
firmware.elf:     file format elf32-avr


Disassembly of section .text:

00000000 <__vectors>:
       0:	0c 94 f6 03 	jmp	0x7ec	; 0x7ec <__ctors_end>
       4:	0c 94 15 04 	jmp	0x82a	; 0x82a <__bad_interrupt>
       8:	0c 94 15 04 	jmp	0x82a	; 0x82a <__bad_interrupt>
       c:	0c 94 15 04 	jmp	0x82a	; 0x82a <__bad_interrupt>
      10:	0c 94 15 04 	jmp	0x82a	; 0x82a <__bad_interrupt>
      14:	0c 94 15 04 	jmp	0x82a	; 0x82a <__bad_interrupt>
      18:	0c 94 15 04 	jmp	0x82a	; 0x82a <__bad_interrupt>
      1c:	0c 94 15 04 	jmp	0x82a	; 0x82a <__bad_interrupt>
      20:	0c 94 15 04 	jmp	0x82a	; 0x82a <__bad_interrupt>
      24:	0c 94 15 04 	jmp	0x82a	; 0x82a <__bad_interrupt>
      28:	0c 94 15 04 	jmp	0x82a	; 0x82a <__bad_interrupt>
      2c:	0c 94 15 04 	jmp	0x82a	; 0x82a <__bad_interrupt>
      30:	0c 94 15 04 	jmp	0x82a	; 0x82a <__bad_interrupt>
      34:	0c 94 15 04 	jmp	0x82a	; 0x82a <__bad_interrupt>
      38:	0c 94 15 04 	jmp	0x82a	; 0x82a <__bad_interrupt>
      3c:	0c 94 15 04 	jmp	0x82a	; 0x82a <__bad_interrupt>
      40:	0c 94 15 04 	jmp	0x82a	; 0x82a <__bad_interrupt>
      44:	0c 94 15 04 	jmp	0x82a	; 0x82a <__bad_interrupt>
      48:	0c 94 15 04 	jmp	0x82a	; 0x82a <__bad_interrupt>
      4c:	0c 94 15 04 	jmp	0x82a	; 0x82a <__bad_interrupt>
      50:	0c 94 15 04 	jmp	0x82a	; 0x82a <__bad_interrupt>
      54:	0c 94 15 04 	jmp	0x82a	; 0x82a <__bad_interrupt>
      58:	0c 94 15 04 	jmp	0x82a	; 0x82a <__bad_interrupt>
      5c:	0c 94 15 04 	jmp	0x82a	; 0x82a <__bad_interrupt>
      60:	0c 94 15 04 	jmp	0x82a	; 0x82a <__bad_interrupt>
      64:	0c 94 15 04 	jmp	0x82a	; 0x82a <__bad_interrupt>
      68:	0c 94 15 04 	jmp	0x82a	; 0x82a <__bad_interrupt>
      6c:	0c 94 15 04 	jmp	0x82a	; 0x82a <__bad_interrupt>
      70:	0c 94 15 04 	jmp	0x82a	; 0x82a <__bad_interrupt>
      74:	0c 94 15 04 	jmp	0x82a	; 0x82a <__bad_interrupt>
      78:	0c 94 15 04 	jmp	0x82a	; 0x82a <__bad_interrupt>
      7c:	0c 94 15 04 	jmp	0x82a	; 0x82a <__bad_interrupt>
      80:	0c 94 15 04 	jmp	0x82a	; 0x82a <__bad_interrupt>
      84:	0c 94 15 04 	jmp	0x82a	; 0x82a <__bad_interrupt>
      88:	0c 94 15 04 	jmp	0x82a	; 0x82a <__bad_interrupt>

0000008c <__trampolines_end>:
      8c:	7c 07       	cpc	r23, r28
      8e:	6c 07       	cpc	r22, r28
      90:	5c 07       	cpc	r21, r28
      92:	4c 07       	cpc	r20, r28
      94:	3c 07       	cpc	r19, r28
      96:	2c 07       	cpc	r18, r28
      98:	1c 07       	cpc	r17, r28
      9a:	0c 07       	cpc	r16, r28
      9c:	fc 06       	cpc	r15, r28
      9e:	ec 06       	cpc	r14, r28
      a0:	dc 06       	cpc	r13, r28
      a2:	cc 06       	cpc	r12, r28
      a4:	bc 06       	cpc	r11, r28
      a6:	ac 06       	cpc	r10, r28
      a8:	9c 06       	cpc	r9, r28
      aa:	8c 06       	cpc	r8, r28
      ac:	7c 06       	cpc	r7, r28
      ae:	6c 06       	cpc	r6, r28
      b0:	5c 06       	cpc	r5, r28
      b2:	4c 06       	cpc	r4, r28
      b4:	3c 06       	cpc	r3, r28
      b6:	2c 06       	cpc	r2, r28
      b8:	1c 06       	cpc	r1, r28
      ba:	0c 06       	cpc	r0, r28
      bc:	fc 05       	cpc	r31, r12
      be:	ec 05       	cpc	r30, r12
      c0:	dc 05       	cpc	r29, r12
      c2:	cc 05       	cpc	r28, r12
      c4:	bc 05       	cpc	r27, r12
      c6:	ac 05       	cpc	r26, r12
      c8:	9c 05       	cpc	r25, r12
      ca:	8c 05       	cpc	r24, r12
      cc:	7c 05       	cpc	r23, r12
      ce:	6c 05       	cpc	r22, r12
      d0:	5c 05       	cpc	r21, r12
      d2:	4c 05       	cpc	r20, r12
      d4:	3c 05       	cpc	r19, r12
      d6:	2c 05       	cpc	r18, r12
      d8:	1c 05       	cpc	r17, r12
      da:	0c 05       	cpc	r16, r12
      dc:	fc 04       	cpc	r15, r12
      de:	ec 04       	cpc	r14, r12
      e0:	dc 04       	cpc	r13, r12
      e2:	cc 04       	cpc	r12, r12
      e4:	bc 04       	cpc	r11, r12
      e6:	9c 04       	cpc	r9, r12
      e8:	8c 04       	cpc	r8, r12
      ea:	7c 04       	cpc	r7, r12
      ec:	6c 04       	cpc	r6, r12
      ee:	5c 04       	cpc	r5, r12
      f0:	4c 04       	cpc	r4, r12
      f2:	3c 04       	cpc	r3, r12
      f4:	2c 04       	cpc	r2, r12
      f6:	1c 04       	cpc	r1, r12
      f8:	0c 04       	cpc	r0, r12
      fa:	ec 03       	fmulsu	r22, r20
      fc:	dc 03       	fmulsu	r21, r20
      fe:	cc 03       	fmulsu	r20, r20
     100:	bc 03       	fmulsu	r19, r20
     102:	ac 03       	fmulsu	r18, r20
     104:	9c 03       	fmulsu	r17, r20
     106:	8c 03       	fmulsu	r16, r20
     108:	6c 03       	fmul	r22, r20
     10a:	4c 03       	fmul	r20, r20
     10c:	3c 03       	fmul	r19, r20
     10e:	2c 03       	fmul	r18, r20
     110:	1c 03       	fmul	r17, r20
     112:	0c 03       	fmul	r16, r20
     114:	fc 02       	muls	r31, r28
     116:	ec 02       	muls	r30, r28
     118:	dc 02       	muls	r29, r28
     11a:	cc 02       	muls	r28, r28
     11c:	bc 02       	muls	r27, r28
     11e:	ac 02       	muls	r26, r28
     120:	9c 02       	muls	r25, r28
     122:	8c 02       	muls	r24, r28
     124:	7c 02       	muls	r23, r28
     126:	6c 02       	muls	r22, r28
     128:	5c 02       	muls	r21, r28
     12a:	4c 02       	muls	r20, r28
     12c:	3c 02       	muls	r19, r28
     12e:	2c 02       	muls	r18, r28
     130:	1c 02       	muls	r17, r28
     132:	0c 02       	muls	r16, r28
     134:	fc 01       	movw	r30, r24
     136:	ec 01       	movw	r28, r24
     138:	dc 01       	movw	r26, r24
     13a:	cc 01       	movw	r24, r24
     13c:	bc 01       	movw	r22, r24
     13e:	ac 01       	movw	r20, r24
     140:	9c 01       	movw	r18, r24
     142:	8c 01       	movw	r16, r24
     144:	7c 01       	movw	r14, r24
     146:	6c 01       	movw	r12, r24
     148:	5c 01       	movw	r10, r24
     14a:	4c 01       	movw	r8, r24

0000014c <chr_f16_7F>:
     14c:	00 00 30 48 48 30 00 00 00 00 00 00 00 00 00 00     ..0HH0..........

0000015c <chr_f16_7E>:
     15c:	00 00 00 32 4c 00 00 00 00 00 00 00 00 00 00 00     ...2L...........

0000016c <chr_f16_7D>:
     16c:	00 40 20 20 20 20 20 20 10 20 20 20 20 20 20 40     .@      .      @

0000017c <chr_f16_7C>:
     17c:	00 00 40 40 40 40 40 40 40 40 40 40 40 40 40 00     ..@@@@@@@@@@@@@.

0000018c <chr_f16_7B>:
     18c:	00 10 20 20 20 20 20 20 40 20 20 20 20 20 20 10     ..      @      .

0000019c <chr_f16_7A>:
     19c:	00 00 00 00 00 00 fc 04 08 30 40 80 fc 00 00 00     .........0@.....

000001ac <chr_f16_79>:
     1ac:	00 00 00 00 00 00 84 84 84 84 84 4c 34 04 08 70     ...........L4..p

000001bc <chr_f16_78>:
     1bc:	00 00 00 00 00 00 88 88 50 20 50 88 88 00 00 00     ........P P.....

000001cc <chr_f16_77>:
     1cc:	00 00 00 00 00 00 82 82 82 92 92 aa 44 00 00 00     ............D...

000001dc <chr_f16_76>:
     1dc:	00 00 00 00 00 00 82 82 82 82 44 28 10 00 00 00     ..........D(....

000001ec <chr_f16_75>:
     1ec:	00 00 00 00 00 00 84 84 84 84 84 4c 34 00 00 00     ...........L4...

000001fc <chr_f16_74>:
     1fc:	00 00 00 00 40 40 e0 40 40 40 40 40 30 00 00 00     ....@@.@@@@@0...

0000020c <chr_f16_73>:
     20c:	00 00 00 00 00 00 70 88 80 70 08 88 70 00 00 00     ......p..p..p...

0000021c <chr_f16_72>:
     21c:	00 00 00 00 00 00 b0 c8 80 80 80 80 80 00 00 00     ................

0000022c <chr_f16_71>:
     22c:	00 00 00 00 00 00 34 4c 84 84 84 4c 34 04 04 06     ......4L...L4...

0000023c <chr_f16_70>:
     23c:	00 00 00 00 00 00 b0 c8 84 84 84 c8 b0 80 80 80     ................

0000024c <chr_f16_6F>:
     24c:	00 00 00 00 00 00 38 44 82 82 82 44 38 00 00 00     ......8D...D8...

0000025c <chr_f16_6E>:
     25c:	00 00 00 00 00 00 b0 c8 84 84 84 84 84 00 00 00     ................

0000026c <chr_f16_6D>:
     26c:	00 00 00 00 00 00 ac d2 92 92 92 92 92 00 00 00     ................

0000027c <chr_f16_6C>:
     27c:	00 00 00 c0 40 40 40 40 40 40 40 40 40 00 00 00     ....@@@@@@@@@...

0000028c <chr_f16_6B>:
     28c:	00 00 00 80 80 80 88 90 a0 c0 a0 90 88 00 00 00     ................

0000029c <chr_f16_6A>:
     29c:	00 00 00 00 10 00 30 10 10 10 10 10 10 10 90 60     ......0........`

000002ac <chr_f16_69>:
     2ac:	00 00 00 00 40 00 40 40 40 40 40 40 40 00 00 00     ....@.@@@@@@@...

000002bc <chr_f16_68>:
     2bc:	00 00 00 80 80 80 b0 c8 84 84 84 84 84 00 00 00     ................

000002cc <chr_f16_67>:
     2cc:	00 00 00 00 00 00 30 4c 84 84 84 4c 34 04 08 70     ......0L...L4..p

000002dc <chr_f16_66>:
     2dc:	00 00 00 30 48 40 40 40 e0 40 40 40 40 00 00 00     ...0H@@@.@@@@...

000002ec <chr_f16_65>:
     2ec:	00 00 00 00 00 00 38 44 84 f8 80 44 38 00 00 00     ......8D...D8...

000002fc <chr_f16_64>:
     2fc:	00 00 00 00 04 04 34 4c 84 84 84 4c 34 00 00 00     ......4L...L4...

0000030c <chr_f16_63>:
     30c:	00 00 00 00 00 00 38 44 80 80 80 44 38 00 00 00     ......8D...D8...

0000031c <chr_f16_62>:
     31c:	00 00 00 00 80 80 b0 c8 84 84 84 c8 b0 00 00 00     ................

0000032c <chr_f16_61>:
     32c:	00 00 00 00 00 00 70 08 04 74 8c 8c 74 00 00 00     ......p..t..t...

0000033c <chr_f16_60>:
     33c:	00 00 00 40 40 40 20 00 00 00 00 00 00 00 00 00     ...@@@ .........

0000034c <chr_f16_5F>:
	...
     358:	00 00 ff 00 00 00 00 00 00 00 00 00 00 00 00 00     ................
     368:	00 00 00 00                                         ....

0000036c <chr_f16_5E>:
     36c:	00 10 28 44 00 00 00 00 00 00 00 00 00 00 00 00     ..(D............
	...

0000038c <chr_f16_5D>:
     38c:	00 00 e0 20 20 20 20 20 20 20 20 20 20 e0 00 00     ...          ...

0000039c <chr_f16_5C>:
     39c:	00 00 04 04 08 08 10 10 20 20 40 40 80 80 00 00     ........  @@....

000003ac <chr_f16_5B>:
     3ac:	00 00 e0 80 80 80 80 80 80 80 80 80 80 e0 00 00     ................

000003bc <chr_f16_5A>:
     3bc:	00 00 00 fe 02 04 08 10 10 20 40 80 fe 00 00 00     ......... @.....

000003cc <chr_f16_59>:
     3cc:	00 00 00 82 82 82 44 28 10 10 10 10 10 00 00 00     ......D(........

000003dc <chr_f16_58>:
     3dc:	00 00 00 82 82 44 28 10 10 28 44 82 82 00 00 00     .....D(..(D.....

000003ec <chr_f16_57>:
     3ec:	00 00 00 00 00 00 80 80 80 80 80 80 88 80 88 80     ................
     3fc:	49 00 55 00 55 00 22 00 22 00 00 00 00 00 00 00     I.U.U.".".......

0000040c <chr_f16_56>:
     40c:	00 00 00 82 82 82 82 44 44 28 28 10 10 00 00 00     .......DD((.....

0000041c <chr_f16_55>:
     41c:	00 00 00 82 82 82 82 82 82 82 82 44 38 00 00 00     ...........D8...

0000042c <chr_f16_54>:
     42c:	00 00 00 fe 10 10 10 10 10 10 10 10 10 00 00 00     ................

0000043c <chr_f16_53>:
     43c:	00 00 00 38 44 82 80 60 1c 02 82 44 38 00 00 00     ...8D..`...D8...

0000044c <chr_f16_52>:
     44c:	00 00 00 f8 84 82 82 84 f8 90 88 84 82 00 00 00     ................

0000045c <chr_f16_51>:
     45c:	00 00 00 38 44 82 82 82 82 82 82 44 38 08 06 00     ...8D......D8...

0000046c <chr_f16_50>:
     46c:	00 00 00 f8 84 82 82 82 84 f8 80 80 80 00 00 00     ................

0000047c <chr_f16_4F>:
     47c:	00 00 00 38 44 82 82 82 82 82 82 44 38 00 00 00     ...8D......D8...

0000048c <chr_f16_4E>:
     48c:	00 00 00 c2 c2 a2 a2 92 92 8a 8a 86 86 00 00 00     ................

0000049c <chr_f16_4D>:
     49c:	00 00 00 00 00 00 c1 80 c1 80 a2 80 a2 80 94 80     ................
     4ac:	94 80 88 80 88 80 80 80 80 80 00 00 00 00 00 00     ................

000004bc <chr_f16_4C>:
     4bc:	00 00 00 80 80 80 80 80 80 80 80 80 fc 00 00 00     ................

000004cc <chr_f16_4B>:
     4cc:	00 00 00 84 88 90 a0 c0 a0 90 88 84 82 00 00 00     ................

000004dc <chr_f16_4A>:
     4dc:	00 00 00 02 02 02 02 02 02 02 82 44 38 00 00 00     ...........D8...

000004ec <chr_f16_49>:
     4ec:	00 00 00 e0 40 40 40 40 40 40 40 40 e0 00 00 00     ....@@@@@@@@....

000004fc <chr_f16_48>:
     4fc:	00 00 00 84 84 84 84 fc 84 84 84 84 84 00 00 00     ................

0000050c <chr_f16_47>:
     50c:	00 00 00 3c 42 80 80 80 9c 82 82 42 3c 00 00 00     ...<B......B<...

0000051c <chr_f16_46>:
     51c:	00 00 00 fe 80 80 80 f8 80 80 80 80 80 00 00 00     ................

0000052c <chr_f16_45>:
     52c:	00 00 00 fe 80 80 80 fc 80 80 80 80 fe 00 00 00     ................

0000053c <chr_f16_44>:
     53c:	00 00 00 f8 84 82 82 82 82 82 82 84 f8 00 00 00     ................

0000054c <chr_f16_43>:
     54c:	00 00 00 3c 42 80 80 80 80 80 80 42 3c 00 00 00     ...<B......B<...

0000055c <chr_f16_42>:
     55c:	00 00 00 f8 84 82 84 f8 84 82 82 84 f8 00 00 00     ................

0000056c <chr_f16_41>:
     56c:	00 00 00 10 10 28 28 44 44 7c 82 82 82 00 00 00     .....((DD|......

0000057c <chr_f16_40>:
     57c:	00 00 00 3c 42 99 a5 a5 a5 a5 9e 40 3e 00 00 00     ...<B......@>...

0000058c <chr_f16_3F>:
     58c:	00 00 00 38 44 82 02 04 08 10 10 00 10 00 00 00     ...8D...........

0000059c <chr_f16_3E>:
     59c:	00 00 00 00 80 40 20 10 08 10 20 40 80 00 00 00     .....@ ... @....

000005ac <chr_f16_3D>:
     5ac:	00 00 00 00 00 00 00 f8 00 f8 00 00 00 00 00 00     ................

000005bc <chr_f16_3C>:
     5bc:	00 00 00 00 08 10 20 40 80 40 20 10 08 00 00 00     ...... @.@ .....

000005cc <chr_f16_3B>:
     5cc:	00 00 00 00 00 00 c0 c0 00 c0 c0 40 80 00 00 00     ...........@....

000005dc <chr_f16_3A>:
     5dc:	00 00 00 00 00 00 c0 c0 00 c0 c0 00 00 00 00 00     ................

000005ec <chr_f16_39>:
     5ec:	00 00 00 38 44 82 82 46 3a 02 02 04 78 00 00 00     ...8D..F:...x...

000005fc <chr_f16_38>:
     5fc:	00 00 00 38 44 82 44 38 44 82 82 44 38 00 00 00     ...8D.D8D..D8...

0000060c <chr_f16_37>:
     60c:	00 00 00 7e 02 02 04 04 08 08 10 10 10 00 00 00     ...~............

0000061c <chr_f16_36>:
     61c:	00 00 00 3c 40 80 80 b8 c4 82 82 44 38 00 00 00     ...<@......D8...

0000062c <chr_f16_35>:
     62c:	00 00 00 fc 80 80 80 f8 04 02 02 84 78 00 00 00     ............x...

0000063c <chr_f16_34>:
     63c:	00 00 00 04 0c 14 24 44 84 fe 04 04 04 00 00 00     ......$D........

0000064c <chr_f16_33>:
     64c:	00 00 00 78 84 02 04 38 04 02 02 84 78 00 00 00     ...x...8....x...

0000065c <chr_f16_32>:
     65c:	00 00 00 38 44 82 02 04 18 20 40 80 fe 00 00 00     ...8D.... @.....

0000066c <chr_f16_31>:
     66c:	00 00 00 10 30 50 10 10 10 10 10 10 7c 00 00 00     ....0P......|...

0000067c <chr_f16_30>:
     67c:	00 00 00 38 44 44 82 82 82 82 44 44 38 00 00 00     ...8DD....DD8...

0000068c <chr_f16_2F>:
     68c:	00 00 04 04 08 08 10 10 20 20 40 40 80 80 00 00     ........  @@....

0000069c <chr_f16_2E>:
	...
     6a4:	00 00 00 c0 c0 00 00 00                             ........

000006ac <chr_f16_2D>:
	...
     6b4:	f8 00 00 00 00 00 00 00                             ........

000006bc <chr_f16_2C>:
	...
     6c4:	00 00 00 c0 c0 40 80 00                             .....@..

000006cc <chr_f16_2B>:
     6cc:	00 00 00 00 00 00 20 20 f8 20 20 00 00 00 00 00     ......  .  .....

000006dc <chr_f16_2A>:
     6dc:	00 00 00 00 10 92 54 38 54 92 10 00 00 00 00 00     ......T8T.......

000006ec <chr_f16_29>:
     6ec:	00 c0 20 10 08 08 04 04 04 04 04 08 08 10 20 c0     .. ........... .

000006fc <chr_f16_28>:
     6fc:	00 0c 10 20 40 40 80 80 80 80 80 40 40 20 10 0c     ... @@.....@@ ..

0000070c <chr_f16_27>:
     70c:	00 00 40 40 40 80 00 00 00 00 00 00 00 00 00 00     ..@@@...........

0000071c <chr_f16_26>:
     71c:	00 00 00 20 50 88 88 50 20 52 8c 8c 73 00 00 00     ... P..P R..s...

0000072c <chr_f16_25>:
     72c:	00 00 00 61 91 92 64 08 10 26 49 89 86 00 00 00     ...a..d..&I.....

0000073c <chr_f16_24>:
     73c:	00 00 00 3c 42 40 40 70 40 70 40 40 fe 00 00 00     ...<B@@p@p@@....

0000074c <chr_f16_23>:
     74c:	00 00 00 24 24 24 ff 24 24 ff 24 24 24 00 00 00     ...$$$.$$.$$$...

0000075c <chr_f16_22>:
     75c:	00 00 a0 a0 a0 00 00 00 00 00 00 00 00 00 00 00     ................

0000076c <chr_f16_21>:
     76c:	00 00 00 40 40 40 40 40 40 40 40 00 40 00 00 00     ...@@@@@@@@.@...

0000077c <chr_f16_20>:
	...

0000078c <widtbl_f16>:
     78c:	06 03 04 09 08 09 09 03 07 07 08 06 03 06 05 07     ................
     79c:	08 08 08 08 08 08 08 08 08 08 03 03 06 06 06 08     ................
     7ac:	09 08 08 08 08 08 08 08 08 04 08 08 07 0a 08 08     ................
     7bc:	08 08 08 08 08 08 08 0a 08 08 08 04 07 04 07 09     ................
     7cc:	04 07 07 07 07 07 06 07 07 04 05 06 04 08 07 08     ................
     7dc:	07 08 06 06 05 07 08 08 06 07 07 05 03 05 08 06     ................

000007ec <__ctors_end>:
     7ec:	11 24       	eor	r1, r1
     7ee:	1f be       	out	0x3f, r1	; 63
     7f0:	cf ef       	ldi	r28, 0xFF	; 255
     7f2:	d0 e1       	ldi	r29, 0x10	; 16
     7f4:	de bf       	out	0x3e, r29	; 62
     7f6:	cd bf       	out	0x3d, r28	; 61

000007f8 <__do_copy_data>:
     7f8:	11 e0       	ldi	r17, 0x01	; 1

000007fa <.Loc.1>:
     7fa:	a0 e0       	ldi	r26, 0x00	; 0

000007fc <.Loc.2>:
     7fc:	b1 e0       	ldi	r27, 0x01	; 1

000007fe <.Loc.3>:
     7fe:	ea ee       	ldi	r30, 0xEA	; 234

00000800 <.Loc.4>:
     800:	f1 e1       	ldi	r31, 0x11	; 17

00000802 <.Loc.5>:
     802:	00 e0       	ldi	r16, 0x00	; 0

00000804 <.Loc.6>:
     804:	0b bf       	out	0x3b, r16	; 59

00000806 <.Loc.7>:
     806:	02 c0       	rjmp	.+4      	; 0x80c <.L__do_copy_data_start>

00000808 <.L__do_copy_data_loop>:
     808:	07 90       	elpm	r0, Z+

0000080a <.Loc.9>:
     80a:	0d 92       	st	X+, r0

0000080c <.L__do_copy_data_start>:
     80c:	ae 30       	cpi	r26, 0x0E	; 14

0000080e <.Loc.11>:
     80e:	b1 07       	cpc	r27, r17

00000810 <.Loc.12>:
     810:	d9 f7       	brne	.-10     	; 0x808 <.L__do_copy_data_loop>

00000812 <__do_clear_bss>:
     812:	21 e0       	ldi	r18, 0x01	; 1

00000814 <.Loc.1>:
     814:	ae e0       	ldi	r26, 0x0E	; 14

00000816 <.Loc.2>:
     816:	b1 e0       	ldi	r27, 0x01	; 1

00000818 <.Loc.3>:
     818:	01 c0       	rjmp	.+2      	; 0x81c <.Loc.5>

0000081a <.Loc.4>:
     81a:	1d 92       	st	X+, r1

0000081c <.Loc.5>:
     81c:	a7 32       	cpi	r26, 0x27	; 39

0000081e <.Loc.6>:
     81e:	b2 07       	cpc	r27, r18

00000820 <.Loc.7>:
     820:	e1 f7       	brne	.-8      	; 0x81a <.Loc.4>

00000822 <L0>:
     822:	0e 94 9a 08 	call	0x1134	; 0x1134 <main>
     826:	0c 94 f3 08 	jmp	0x11e6	; 0x11e6 <_exit>

0000082a <__bad_interrupt>:
     82a:	0c 94 00 00 	jmp	0	; 0x0 <__vectors>

0000082e <video_config>:
     82e:	91 e0       	ldi	r25, 0x01	; 1
     830:	81 11       	cpse	r24, r1
     832:	01 c0       	rjmp	.+2      	; 0x836 <.L2>
     834:	90 e0       	ldi	r25, 0x00	; 0

00000836 <.L2>:
     836:	99 0f       	add	r25, r25
     838:	61 11       	cpse	r22, r1
     83a:	94 60       	ori	r25, 0x04	; 4
     83c:	98 bb       	out	0x18, r25	; 24
     83e:	08 95       	ret

00000840 <vga_setTextFont>:
     840:	81 11       	cpse	r24, r1
     842:	01 c0       	rjmp	.+2      	; 0x846 <.L8>
     844:	81 e0       	ldi	r24, 0x01	; 1

00000846 <.L8>:
     846:	80 93 11 01 	sts	0x0111, r24	; 0x800111 <textfont>
     84a:	08 95       	ret

0000084c <vga_setTextSize>:
     84c:	81 11       	cpse	r24, r1
     84e:	04 c0       	rjmp	.+8      	; 0x858 <.L10>
     850:	81 e0       	ldi	r24, 0x01	; 1

00000852 <.L11>:
     852:	80 93 10 01 	sts	0x0110, r24	; 0x800110 <textsize>
     856:	08 95       	ret

00000858 <.L10>:
     858:	88 30       	cpi	r24, 0x08	; 8
     85a:	d8 f3       	brcs	.-10     	; 0x852 <.L11>
     85c:	87 e0       	ldi	r24, 0x07	; 7
     85e:	f9 cf       	rjmp	.-14     	; 0x852 <.L11>

00000860 <vga_setTextColor>:
     860:	80 93 24 01 	sts	0x0124, r24	; 0x800124 <textcolor>
     864:	90 93 25 01 	sts	0x0125, r25	; 0x800125 <textcolor+0x1>
     868:	60 93 22 01 	sts	0x0122, r22	; 0x800122 <textbgcolor>
     86c:	70 93 23 01 	sts	0x0123, r23	; 0x800123 <textbgcolor+0x1>
     870:	08 95       	ret

00000872 <vga_pixel_fast>:
     872:	28 ee       	ldi	r18, 0xE8	; 232
     874:	33 e0       	ldi	r19, 0x03	; 3

00000876 <.L15>:
     876:	40 9b       	sbis	0x08, 0	; 8
     878:	03 c0       	rjmp	.+6      	; 0x880 <.L14>
     87a:	21 50       	subi	r18, 0x01	; 1
     87c:	30 40       	sbci	r19, 0x00	; 0
     87e:	d9 f7       	brne	.-10     	; 0x876 <.L15>

00000880 <.L14>:
     880:	80 93 50 40 	sts	0x4050, r24	; 0x804050 <__bss_end+0x3f29>
     884:	93 70       	andi	r25, 0x03	; 3
     886:	90 93 51 40 	sts	0x4051, r25	; 0x804051 <__bss_end+0x3f2a>
     88a:	60 93 52 40 	sts	0x4052, r22	; 0x804052 <__bss_end+0x3f2b>
     88e:	73 70       	andi	r23, 0x03	; 3
     890:	70 93 53 40 	sts	0x4053, r23	; 0x804053 <__bss_end+0x3f2c>
     894:	40 93 54 40 	sts	0x4054, r20	; 0x804054 <__bss_end+0x3f2d>
     898:	50 93 55 40 	sts	0x4055, r21	; 0x804055 <__bss_end+0x3f2e>
     89c:	08 95       	ret

0000089e <test_fill>:
     89e:	0f 93       	push	r16
     8a0:	1f 93       	push	r17
     8a2:	cf 93       	push	r28
     8a4:	df 93       	push	r29
     8a6:	0c e2       	ldi	r16, 0x2C	; 44
     8a8:	11 e0       	ldi	r17, 0x01	; 1

000008aa <.L21>:
     8aa:	c4 e6       	ldi	r28, 0x64	; 100
     8ac:	d0 e0       	ldi	r29, 0x00	; 0

000008ae <.L22>:
     8ae:	40 ee       	ldi	r20, 0xE0	; 224
     8b0:	5f ef       	ldi	r21, 0xFF	; 255
     8b2:	be 01       	movw	r22, r28
     8b4:	c8 01       	movw	r24, r16
     8b6:	0e 94 39 04 	call	0x872	; 0x872 <vga_pixel_fast>
     8ba:	21 96       	adiw	r28, 0x01	; 1
     8bc:	cc 32       	cpi	r28, 0x2C	; 44
     8be:	81 e0       	ldi	r24, 0x01	; 1
     8c0:	d8 07       	cpc	r29, r24
     8c2:	a9 f7       	brne	.-22     	; 0x8ae <.L22>
     8c4:	0f 5f       	subi	r16, 0xFF	; 255
     8c6:	1f 4f       	sbci	r17, 0xFF	; 255
     8c8:	04 3f       	cpi	r16, 0xF4	; 244
     8ca:	81 e0       	ldi	r24, 0x01	; 1
     8cc:	18 07       	cpc	r17, r24
     8ce:	69 f7       	brne	.-38     	; 0x8aa <.L21>
     8d0:	df 91       	pop	r29
     8d2:	cf 91       	pop	r28
     8d4:	1f 91       	pop	r17
     8d6:	0f 91       	pop	r16
     8d8:	08 95       	ret

000008da <vga_clear_screen>:
     8da:	68 ee       	ldi	r22, 0xE8	; 232
     8dc:	73 e0       	ldi	r23, 0x03	; 3
     8de:	20 e0       	ldi	r18, 0x00	; 0
     8e0:	30 e0       	ldi	r19, 0x00	; 0

000008e2 <.L29>:
     8e2:	20 93 52 40 	sts	0x4052, r18	; 0x804052 <__bss_end+0x3f2b>
     8e6:	30 93 53 40 	sts	0x4053, r19	; 0x804053 <__bss_end+0x3f2c>
     8ea:	40 e0       	ldi	r20, 0x00	; 0
     8ec:	50 e0       	ldi	r21, 0x00	; 0

000008ee <.L28>:
     8ee:	40 93 50 40 	sts	0x4050, r20	; 0x804050 <__bss_end+0x3f29>
     8f2:	50 93 51 40 	sts	0x4051, r21	; 0x804051 <__bss_end+0x3f2a>
     8f6:	80 93 54 40 	sts	0x4054, r24	; 0x804054 <__bss_end+0x3f2d>
     8fa:	90 93 55 40 	sts	0x4055, r25	; 0x804055 <__bss_end+0x3f2e>

000008fe <.L27>:
     8fe:	40 9b       	sbis	0x08, 0	; 8
     900:	03 c0       	rjmp	.+6      	; 0x908 <.L26>
     902:	61 50       	subi	r22, 0x01	; 1
     904:	70 40       	sbci	r23, 0x00	; 0
     906:	d9 f7       	brne	.-10     	; 0x8fe <.L27>

00000908 <.L26>:
     908:	4f 5f       	subi	r20, 0xFF	; 255
     90a:	5f 4f       	sbci	r21, 0xFF	; 255
     90c:	40 38       	cpi	r20, 0x80	; 128
     90e:	e2 e0       	ldi	r30, 0x02	; 2
     910:	5e 07       	cpc	r21, r30
     912:	69 f7       	brne	.-38     	; 0x8ee <.L28>
     914:	2f 5f       	subi	r18, 0xFF	; 255
     916:	3f 4f       	sbci	r19, 0xFF	; 255
     918:	20 3e       	cpi	r18, 0xE0	; 224
     91a:	41 e0       	ldi	r20, 0x01	; 1
     91c:	34 07       	cpc	r19, r20
     91e:	09 f7       	brne	.-62     	; 0x8e2 <.L29>
     920:	08 95       	ret

00000922 <vga_fillRect>:
     922:	0f 93       	push	r16
     924:	1f 93       	push	r17
     926:	cf 93       	push	r28
     928:	fb 01       	movw	r30, r22
     92a:	48 0f       	add	r20, r24
     92c:	59 1f       	adc	r21, r25
     92e:	26 0f       	add	r18, r22
     930:	37 1f       	adc	r19, r23
     932:	a8 ee       	ldi	r26, 0xE8	; 232
     934:	b3 e0       	ldi	r27, 0x03	; 3

00000936 <.L37>:
     936:	e2 17       	cp	r30, r18
     938:	f3 07       	cpc	r31, r19
     93a:	20 f0       	brcs	.+8      	; 0x944 <.L38>
     93c:	cf 91       	pop	r28
     93e:	1f 91       	pop	r17
     940:	0f 91       	pop	r16
     942:	08 95       	ret

00000944 <.L38>:
     944:	40 99       	sbic	0x08, 0	; 8
     946:	fe cf       	rjmp	.-4      	; 0x944 <.L38>
     948:	e0 93 52 40 	sts	0x4052, r30	; 0x804052 <__bss_end+0x3f2b>
     94c:	6f 2f       	mov	r22, r31
     94e:	63 70       	andi	r22, 0x03	; 3
     950:	60 93 53 40 	sts	0x4053, r22	; 0x804053 <__bss_end+0x3f2c>
     954:	bc 01       	movw	r22, r24

00000956 <.L39>:
     956:	64 17       	cp	r22, r20
     958:	75 07       	cpc	r23, r21
     95a:	10 f0       	brcs	.+4      	; 0x960 <.L40>
     95c:	31 96       	adiw	r30, 0x01	; 1
     95e:	eb cf       	rjmp	.-42     	; 0x936 <.L37>

00000960 <.L40>:
     960:	40 99       	sbic	0x08, 0	; 8
     962:	fe cf       	rjmp	.-4      	; 0x960 <.L40>
     964:	60 93 50 40 	sts	0x4050, r22	; 0x804050 <__bss_end+0x3f29>
     968:	c7 2f       	mov	r28, r23
     96a:	c3 70       	andi	r28, 0x03	; 3
     96c:	c0 93 51 40 	sts	0x4051, r28	; 0x804051 <__bss_end+0x3f2a>
     970:	00 93 54 40 	sts	0x4054, r16	; 0x804054 <__bss_end+0x3f2d>
     974:	10 93 55 40 	sts	0x4055, r17	; 0x804055 <__bss_end+0x3f2e>

00000978 <.L42>:
     978:	40 9b       	sbis	0x08, 0	; 8
     97a:	02 c0       	rjmp	.+4      	; 0x980 <.L41>
     97c:	11 97       	sbiw	r26, 0x01	; 1
     97e:	e1 f7       	brne	.-8      	; 0x978 <.L42>

00000980 <.L41>:
     980:	6f 5f       	subi	r22, 0xFF	; 255
     982:	7f 4f       	sbci	r23, 0xFF	; 255
     984:	e8 cf       	rjmp	.-48     	; 0x956 <.L39>

00000986 <vga_drawChar>:
     986:	2f 92       	push	r2
     988:	3f 92       	push	r3
     98a:	4f 92       	push	r4
     98c:	5f 92       	push	r5
     98e:	6f 92       	push	r6
     990:	7f 92       	push	r7
     992:	8f 92       	push	r8
     994:	9f 92       	push	r9
     996:	af 92       	push	r10
     998:	bf 92       	push	r11
     99a:	cf 92       	push	r12
     99c:	df 92       	push	r13
     99e:	ef 92       	push	r14
     9a0:	ff 92       	push	r15
     9a2:	0f 93       	push	r16
     9a4:	1f 93       	push	r17
     9a6:	cf 93       	push	r28
     9a8:	df 93       	push	r29
     9aa:	cd b7       	in	r28, 0x3d	; 61
     9ac:	de b7       	in	r29, 0x3e	; 62
     9ae:	2a 97       	sbiw	r28, 0x0a	; 10
     9b0:	0f b6       	in	r0, 0x3f	; 63
     9b2:	f8 94       	cli
     9b4:	de bf       	out	0x3e, r29	; 62
     9b6:	0f be       	out	0x3f, r0	; 63
     9b8:	cd bf       	out	0x3d, r28	; 61
     9ba:	2b 01       	movw	r4, r22
     9bc:	4a 01       	movw	r8, r20
     9be:	21 30       	cpi	r18, 0x01	; 1
     9c0:	31 05       	cpc	r19, r1
     9c2:	f9 f4       	brne	.+62     	; 0xa02 <.L52>
     9c4:	80 91 10 01 	lds	r24, 0x0110	; 0x800110 <textsize>
     9c8:	16 e0       	ldi	r17, 0x06	; 6
     9ca:	81 9f       	mul	r24, r17
     9cc:	c0 01       	movw	r24, r0
     9ce:	11 24       	eor	r1, r1

000009d0 <.L51>:
     9d0:	2a 96       	adiw	r28, 0x0a	; 10
     9d2:	0f b6       	in	r0, 0x3f	; 63
     9d4:	f8 94       	cli
     9d6:	de bf       	out	0x3e, r29	; 62
     9d8:	0f be       	out	0x3f, r0	; 63
     9da:	cd bf       	out	0x3d, r28	; 61
     9dc:	df 91       	pop	r29
     9de:	cf 91       	pop	r28
     9e0:	1f 91       	pop	r17
     9e2:	0f 91       	pop	r16
     9e4:	ff 90       	pop	r15
     9e6:	ef 90       	pop	r14
     9e8:	df 90       	pop	r13
     9ea:	cf 90       	pop	r12
     9ec:	bf 90       	pop	r11
     9ee:	af 90       	pop	r10
     9f0:	9f 90       	pop	r9
     9f2:	8f 90       	pop	r8
     9f4:	7f 90       	pop	r7
     9f6:	6f 90       	pop	r6
     9f8:	5f 90       	pop	r5
     9fa:	4f 90       	pop	r4
     9fc:	3f 90       	pop	r3
     9fe:	2f 90       	pop	r2
     a00:	08 95       	ret

00000a02 <.L52>:
     a02:	80 32       	cpi	r24, 0x20	; 32
     a04:	91 05       	cpc	r25, r1
     a06:	08 f4       	brcc	.+2      	; 0xa0a <L0+0x2>

00000a08 <L0>:
     a08:	38 c1       	rjmp	.+624    	; 0xc7a <.L78>
     a0a:	22 30       	cpi	r18, 0x02	; 2
     a0c:	31 05       	cpc	r19, r1
     a0e:	09 f0       	breq	.+2      	; 0xa12 <L0+0x2>

00000a10 <L0>:
     a10:	4d c0       	rjmp	.+154    	; 0xaac <.L79>
     a12:	9c 01       	movw	r18, r24
     a14:	20 52       	subi	r18, 0x20	; 32
     a16:	31 09       	sbc	r19, r1
     a18:	f9 01       	movw	r30, r18
     a1a:	ee 0f       	add	r30, r30
     a1c:	ff 1f       	adc	r31, r31
     a1e:	e4 57       	subi	r30, 0x74	; 116
     a20:	ff 4f       	sbci	r31, 0xFF	; 255
     a22:	85 91       	lpm	r24, Z+
     a24:	95 91       	lpm	r25, Z+
     a26:	24 57       	subi	r18, 0x74	; 116
     a28:	38 4f       	sbci	r19, 0xF8	; 248
     a2a:	f9 01       	movw	r30, r18
     a2c:	24 91       	lpm	r18, Z
     a2e:	c2 2e       	mov	r12, r18
     a30:	d1 2c       	mov	r13, r1
     a32:	20 e1       	ldi	r18, 0x10	; 16
     a34:	29 83       	std	Y+1, r18	; 0x01
     a36:	1a 82       	std	Y+2, r1	; 0x02

00000a38 <.L54>:
     a38:	36 01       	movw	r6, r12
     a3a:	37 e0       	ldi	r19, 0x07	; 7
     a3c:	63 0e       	add	r6, r19
     a3e:	71 1c       	adc	r7, r1
     a40:	33 e0       	ldi	r19, 0x03	; 3

00000a42 <.L11>:
     a42:	75 94       	asr	r7
     a44:	67 94       	ror	r6
     a46:	3a 95       	dec	r19
     a48:	e1 f7       	brne	.-8      	; 0xa42 <.L11>
     a4a:	40 91 24 01 	lds	r20, 0x0124	; 0x800124 <textcolor>
     a4e:	50 91 25 01 	lds	r21, 0x0125	; 0x800125 <textcolor+0x1>
     a52:	20 91 22 01 	lds	r18, 0x0122	; 0x800122 <textbgcolor>
     a56:	30 91 23 01 	lds	r19, 0x0123	; 0x800123 <textbgcolor+0x1>
     a5a:	42 17       	cp	r20, r18
     a5c:	53 07       	cpc	r21, r19
     a5e:	69 f1       	breq	.+90     	; 0xaba <.L55>
     a60:	20 91 10 01 	lds	r18, 0x0110	; 0x800110 <textsize>
     a64:	21 30       	cpi	r18, 0x01	; 1
     a66:	49 f5       	brne	.+82     	; 0xaba <.L55>
     a68:	e9 81       	ldd	r30, Y+1	; 0x01
     a6a:	fa 81       	ldd	r31, Y+2	; 0x02
     a6c:	e8 0d       	add	r30, r8
     a6e:	f9 1d       	adc	r31, r9
     a70:	e9 83       	std	Y+1, r30	; 0x01
     a72:	fa 83       	std	Y+2, r31	; 0x02
     a74:	40 e8       	ldi	r20, 0x80	; 128
     a76:	50 e0       	ldi	r21, 0x00	; 0

00000a78 <.L56>:
     a78:	29 81       	ldd	r18, Y+1	; 0x01
     a7a:	3a 81       	ldd	r19, Y+2	; 0x02
     a7c:	28 15       	cp	r18, r8
     a7e:	39 05       	cpc	r19, r9
     a80:	31 f1       	breq	.+76     	; 0xace <.L77>
     a82:	29 2d       	mov	r18, r9

00000a84 <.L67>:
     a84:	40 99       	sbic	0x08, 0	; 8
     a86:	fe cf       	rjmp	.-4      	; 0xa84 <.L67>
     a88:	80 92 52 40 	sts	0x4052, r8	; 0x804052 <__bss_end+0x3f2b>
     a8c:	23 70       	andi	r18, 0x03	; 3
     a8e:	20 93 53 40 	sts	0x4053, r18	; 0x804053 <__bss_end+0x3f2c>
     a92:	60 e0       	ldi	r22, 0x00	; 0
     a94:	70 e0       	ldi	r23, 0x00	; 0
     a96:	db 01       	movw	r26, r22

00000a98 <.L68>:
     a98:	6a 16       	cp	r6, r26
     a9a:	7b 06       	cpc	r7, r27
     a9c:	09 f0       	breq	.+2      	; 0xaa0 <L0+0x2>

00000a9e <L0>:
     a9e:	aa c0       	rjmp	.+340    	; 0xbf4 <.L75>
     aa0:	2f ef       	ldi	r18, 0xFF	; 255
     aa2:	82 1a       	sub	r8, r18
     aa4:	92 0a       	sbc	r9, r18
     aa6:	86 0d       	add	r24, r6
     aa8:	97 1d       	adc	r25, r7
     aaa:	e6 cf       	rjmp	.-52     	; 0xa78 <.L56>

00000aac <.L79>:
     aac:	a0 e0       	ldi	r26, 0x00	; 0
     aae:	b0 e0       	ldi	r27, 0x00	; 0
     ab0:	cd 01       	movw	r24, r26
     ab2:	19 82       	std	Y+1, r1	; 0x01
     ab4:	1a 82       	std	Y+2, r1	; 0x02
     ab6:	6c 01       	movw	r12, r24
     ab8:	bf cf       	rjmp	.-130    	; 0xa38 <.L54>

00000aba <.L55>:
     aba:	1c 01       	movw	r2, r24
     abc:	19 86       	std	Y+9, r1	; 0x09
     abe:	1a 86       	std	Y+10, r1	; 0x0a

00000ac0 <.L57>:
     ac0:	89 85       	ldd	r24, Y+9	; 0x09
     ac2:	9a 85       	ldd	r25, Y+10	; 0x0a
     ac4:	e9 81       	ldd	r30, Y+1	; 0x01
     ac6:	fa 81       	ldd	r31, Y+2	; 0x02
     ac8:	8e 17       	cp	r24, r30
     aca:	9f 07       	cpc	r25, r31
     acc:	41 f4       	brne	.+16     	; 0xade <.L66>

00000ace <.L77>:
     ace:	20 91 10 01 	lds	r18, 0x0110	; 0x800110 <textsize>
     ad2:	2c 9d       	mul	r18, r12
     ad4:	c0 01       	movw	r24, r0
     ad6:	2d 9d       	mul	r18, r13
     ad8:	90 0d       	add	r25, r0
     ada:	11 24       	eor	r1, r1
     adc:	79 cf       	rjmp	.-270    	; 0x9d0 <.L51>

00000ade <.L66>:
     ade:	00 91 22 01 	lds	r16, 0x0122	; 0x800122 <textbgcolor>
     ae2:	10 91 23 01 	lds	r17, 0x0123	; 0x800123 <textbgcolor+0x1>
     ae6:	80 91 24 01 	lds	r24, 0x0124	; 0x800124 <textcolor>
     aea:	90 91 25 01 	lds	r25, 0x0125	; 0x800125 <textcolor+0x1>
     aee:	80 17       	cp	r24, r16
     af0:	91 07       	cpc	r25, r17
     af2:	99 f0       	breq	.+38     	; 0xb1a <.L58>
     af4:	70 91 10 01 	lds	r23, 0x0110	; 0x800110 <textsize>
     af8:	27 2f       	mov	r18, r23
     afa:	30 e0       	ldi	r19, 0x00	; 0
     afc:	7c 9d       	mul	r23, r12
     afe:	a0 01       	movw	r20, r0
     b00:	7d 9d       	mul	r23, r13
     b02:	50 0d       	add	r21, r0
     b04:	11 24       	eor	r1, r1
     b06:	69 85       	ldd	r22, Y+9	; 0x09
     b08:	67 03       	mulsu	r22, r23
     b0a:	c0 01       	movw	r24, r0
     b0c:	11 24       	eor	r1, r1
     b0e:	bc 01       	movw	r22, r24
     b10:	68 0d       	add	r22, r8
     b12:	79 1d       	adc	r23, r9
     b14:	c2 01       	movw	r24, r4
     b16:	0e 94 91 04 	call	0x922	; 0x922 <vga_fillRect>

00000b1a <.L58>:
     b1a:	a1 2c       	mov	r10, r1
     b1c:	b1 2c       	mov	r11, r1
     b1e:	89 85       	ldd	r24, Y+9	; 0x09
     b20:	9a 85       	ldd	r25, Y+10	; 0x0a
     b22:	88 0d       	add	r24, r8
     b24:	99 1d       	adc	r25, r9
     b26:	8f 83       	std	Y+7, r24	; 0x07
     b28:	98 87       	std	Y+8, r25	; 0x08

00000b2a <.L59>:
     b2a:	6a 14       	cp	r6, r10
     b2c:	7b 04       	cpc	r7, r11
     b2e:	49 f4       	brne	.+18     	; 0xb42 <.L65>
     b30:	29 85       	ldd	r18, Y+9	; 0x09
     b32:	3a 85       	ldd	r19, Y+10	; 0x0a
     b34:	2f 5f       	subi	r18, 0xFF	; 255
     b36:	3f 4f       	sbci	r19, 0xFF	; 255
     b38:	29 87       	std	Y+9, r18	; 0x09
     b3a:	3a 87       	std	Y+10, r19	; 0x0a
     b3c:	26 0c       	add	r2, r6
     b3e:	37 1c       	adc	r3, r7
     b40:	bf cf       	rjmp	.-130    	; 0xac0 <.L57>

00000b42 <.L65>:
     b42:	f5 01       	movw	r30, r10
     b44:	e2 0d       	add	r30, r2
     b46:	f3 1d       	adc	r31, r3
     b48:	e4 91       	lpm	r30, Z
     b4a:	e1 11       	cpse	r30, r1
     b4c:	04 c0       	rjmp	.+8      	; 0xb56 <.L60>

00000b4e <.L64>:
     b4e:	8f ef       	ldi	r24, 0xFF	; 255
     b50:	a8 1a       	sub	r10, r24
     b52:	b8 0a       	sbc	r11, r24
     b54:	ea cf       	rjmp	.-44     	; 0xb2a <.L59>

00000b56 <.L60>:
     b56:	20 91 10 01 	lds	r18, 0x0110	; 0x800110 <textsize>
     b5a:	1a 2d       	mov	r17, r10
     b5c:	12 03       	mulsu	r17, r18
     b5e:	c0 01       	movw	r24, r0
     b60:	11 24       	eor	r1, r1
     b62:	23 e0       	ldi	r18, 0x03	; 3

00000b64 <.L12>:
     b64:	88 0f       	add	r24, r24
     b66:	99 1f       	adc	r25, r25
     b68:	2a 95       	dec	r18
     b6a:	e1 f7       	brne	.-8      	; 0xb64 <.L12>
     b6c:	9c 01       	movw	r18, r24
     b6e:	24 0d       	add	r18, r4
     b70:	35 1d       	adc	r19, r5
     b72:	2b 83       	std	Y+3, r18	; 0x03
     b74:	3c 83       	std	Y+4, r19	; 0x04
     b76:	e1 2c       	mov	r14, r1
     b78:	f1 2c       	mov	r15, r1
     b7a:	ed 83       	std	Y+5, r30	; 0x05
     b7c:	1e 82       	std	Y+6, r1	; 0x06

00000b7e <.L63>:
     b7e:	80 e8       	ldi	r24, 0x80	; 128
     b80:	90 e0       	ldi	r25, 0x00	; 0
     b82:	0e 2c       	mov	r0, r14
     b84:	02 c0       	rjmp	.+4      	; 0xb8a <.L21>

00000b86 <.L13>:
     b86:	95 95       	asr	r25
     b88:	87 95       	ror	r24

00000b8a <.L21>:
     b8a:	0a 94       	dec	r0
     b8c:	e2 f7       	brpl	.-8      	; 0xb86 <.L13>
     b8e:	ed 81       	ldd	r30, Y+5	; 0x05
     b90:	fe 81       	ldd	r31, Y+6	; 0x06
     b92:	8e 23       	and	r24, r30
     b94:	9f 23       	and	r25, r31
     b96:	89 2b       	or	r24, r25
     b98:	89 f0       	breq	.+34     	; 0xbbc <.L61>
     b9a:	20 91 10 01 	lds	r18, 0x0110	; 0x800110 <textsize>
     b9e:	00 91 24 01 	lds	r16, 0x0124	; 0x800124 <textcolor>
     ba2:	10 91 25 01 	lds	r17, 0x0125	; 0x800125 <textcolor+0x1>
     ba6:	21 30       	cpi	r18, 0x01	; 1
     ba8:	89 f4       	brne	.+34     	; 0xbcc <.L62>
     baa:	a8 01       	movw	r20, r16
     bac:	6f 81       	ldd	r22, Y+7	; 0x07
     bae:	78 85       	ldd	r23, Y+8	; 0x08
     bb0:	8b 81       	ldd	r24, Y+3	; 0x03
     bb2:	9c 81       	ldd	r25, Y+4	; 0x04
     bb4:	8e 0d       	add	r24, r14
     bb6:	9f 1d       	adc	r25, r15
     bb8:	0e 94 39 04 	call	0x872	; 0x872 <vga_pixel_fast>

00000bbc <.L61>:
     bbc:	ff ef       	ldi	r31, 0xFF	; 255
     bbe:	ef 1a       	sub	r14, r31
     bc0:	ff 0a       	sbc	r15, r31
     bc2:	18 e0       	ldi	r17, 0x08	; 8
     bc4:	e1 16       	cp	r14, r17
     bc6:	f1 04       	cpc	r15, r1
     bc8:	d1 f6       	brne	.-76     	; 0xb7e <.L63>
     bca:	c1 cf       	rjmp	.-126    	; 0xb4e <.L64>

00000bcc <.L62>:
     bcc:	42 2f       	mov	r20, r18
     bce:	50 e0       	ldi	r21, 0x00	; 0
     bd0:	39 85       	ldd	r19, Y+9	; 0x09
     bd2:	32 03       	mulsu	r19, r18
     bd4:	b0 01       	movw	r22, r0
     bd6:	11 24       	eor	r1, r1
     bd8:	68 0d       	add	r22, r8
     bda:	79 1d       	adc	r23, r9
     bdc:	3e 2d       	mov	r19, r14
     bde:	32 03       	mulsu	r19, r18
     be0:	c0 01       	movw	r24, r0
     be2:	11 24       	eor	r1, r1
     be4:	9a 01       	movw	r18, r20
     be6:	eb 81       	ldd	r30, Y+3	; 0x03
     be8:	fc 81       	ldd	r31, Y+4	; 0x04
     bea:	8e 0f       	add	r24, r30
     bec:	9f 1f       	adc	r25, r31
     bee:	0e 94 91 04 	call	0x922	; 0x922 <vga_fillRect>
     bf2:	e4 cf       	rjmp	.-56     	; 0xbbc <.L61>

00000bf4 <.L75>:
     bf4:	fd 01       	movw	r30, r26
     bf6:	e8 0f       	add	r30, r24
     bf8:	f9 1f       	adc	r31, r25
     bfa:	e4 91       	lpm	r30, Z
     bfc:	20 e0       	ldi	r18, 0x00	; 0
     bfe:	30 e0       	ldi	r19, 0x00	; 0
     c00:	72 01       	movw	r14, r4
     c02:	e6 0e       	add	r14, r22
     c04:	f7 1e       	adc	r15, r23
     c06:	f0 e0       	ldi	r31, 0x00	; 0
     c08:	b6 2e       	mov	r11, r22
     c0a:	b4 0c       	add	r11, r4

00000c0c <.L73>:
     c0c:	8b 01       	movw	r16, r22
     c0e:	02 0f       	add	r16, r18
     c10:	13 1f       	adc	r17, r19
     c12:	0c 15       	cp	r16, r12
     c14:	1d 05       	cpc	r17, r13
     c16:	24 f0       	brlt	.+8      	; 0xc20 <.L69>

00000c18 <.L74>:
     c18:	11 96       	adiw	r26, 0x01	; 1
     c1a:	68 5f       	subi	r22, 0xF8	; 248
     c1c:	7f 4f       	sbci	r23, 0xFF	; 255
     c1e:	3c cf       	rjmp	.-392    	; 0xa98 <.L68>

00000c20 <.L69>:
     c20:	17 01       	movw	r2, r14
     c22:	22 0e       	add	r2, r18
     c24:	33 1e       	adc	r3, r19
     c26:	8a 01       	movw	r16, r20
     c28:	02 2e       	mov	r0, r18
     c2a:	02 c0       	rjmp	.+4      	; 0xc30 <.L22>

00000c2c <.L14>:
     c2c:	15 95       	asr	r17
     c2e:	07 95       	ror	r16

00000c30 <.L22>:
     c30:	0a 94       	dec	r0
     c32:	e2 f7       	brpl	.-8      	; 0xc2c <.L14>
     c34:	0e 23       	and	r16, r30
     c36:	1f 23       	and	r17, r31
     c38:	01 2b       	or	r16, r17
     c3a:	d1 f0       	breq	.+52     	; 0xc70 <.L70>
     c3c:	00 91 24 01 	lds	r16, 0x0124	; 0x800124 <textcolor>
     c40:	10 91 25 01 	lds	r17, 0x0125	; 0x800125 <textcolor+0x1>

00000c44 <.L87>:
     c44:	1b 83       	std	Y+3, r17	; 0x03

00000c46 <.L72>:
     c46:	40 99       	sbic	0x08, 0	; 8
     c48:	fe cf       	rjmp	.-4      	; 0xc46 <.L72>
     c4a:	ab 2c       	mov	r10, r11
     c4c:	a2 0e       	add	r10, r18
     c4e:	a0 92 50 40 	sts	0x4050, r10	; 0x804050 <__bss_end+0x3f29>
     c52:	13 2d       	mov	r17, r3
     c54:	13 70       	andi	r17, 0x03	; 3
     c56:	10 93 51 40 	sts	0x4051, r17	; 0x804051 <__bss_end+0x3f2a>
     c5a:	00 93 54 40 	sts	0x4054, r16	; 0x804054 <__bss_end+0x3f2d>
     c5e:	1b 81       	ldd	r17, Y+3	; 0x03
     c60:	10 93 55 40 	sts	0x4055, r17	; 0x804055 <__bss_end+0x3f2e>
     c64:	2f 5f       	subi	r18, 0xFF	; 255
     c66:	3f 4f       	sbci	r19, 0xFF	; 255
     c68:	28 30       	cpi	r18, 0x08	; 8
     c6a:	31 05       	cpc	r19, r1
     c6c:	79 f6       	brne	.-98     	; 0xc0c <.L73>
     c6e:	d4 cf       	rjmp	.-88     	; 0xc18 <.L74>

00000c70 <.L70>:
     c70:	00 91 22 01 	lds	r16, 0x0122	; 0x800122 <textbgcolor>
     c74:	10 91 23 01 	lds	r17, 0x0123	; 0x800123 <textbgcolor+0x1>
     c78:	e5 cf       	rjmp	.-54     	; 0xc44 <.L87>

00000c7a <.L78>:
     c7a:	80 e0       	ldi	r24, 0x00	; 0
     c7c:	90 e0       	ldi	r25, 0x00	; 0
     c7e:	a8 ce       	rjmp	.-688    	; 0x9d0 <.L51>

00000c80 <vga_printAt>:
     c80:	ef 92       	push	r14
     c82:	ff 92       	push	r15
     c84:	0f 93       	push	r16
     c86:	1f 93       	push	r17
     c88:	cf 93       	push	r28
     c8a:	df 93       	push	r29
     c8c:	00 d0       	rcall	.+0      	; 0xc8e <L0>

00000c8e <L0>:
     c8e:	00 d0       	rcall	.+0      	; 0xc90 <L0>

00000c90 <L0>:
     c90:	cd b7       	in	r28, 0x3d	; 61
     c92:	de b7       	in	r29, 0x3e	; 62
     c94:	6b 83       	std	Y+3, r22	; 0x03
     c96:	7c 83       	std	Y+4, r23	; 0x04
     c98:	49 83       	std	Y+1, r20	; 0x01
     c9a:	5a 83       	std	Y+2, r21	; 0x02
     c9c:	20 93 24 01 	sts	0x0124, r18	; 0x800124 <textcolor>
     ca0:	30 93 25 01 	sts	0x0125, r19	; 0x800125 <textcolor+0x1>
     ca4:	00 93 22 01 	sts	0x0122, r16	; 0x800122 <textbgcolor>
     ca8:	10 93 23 01 	sts	0x0123, r17	; 0x800123 <textbgcolor+0x1>
     cac:	21 e0       	ldi	r18, 0x01	; 1
     cae:	20 93 10 01 	sts	0x0110, r18	; 0x800110 <textsize>
     cb2:	8c 01       	movw	r16, r24
     cb4:	f1 2c       	mov	r15, r1

00000cb6 <.L89>:
     cb6:	f8 01       	movw	r30, r16
     cb8:	80 81       	ld	r24, Z
     cba:	81 15       	cp	r24, r1
     cbc:	c9 f0       	breq	.+50     	; 0xcf0 <.L88>
     cbe:	0f 5f       	subi	r16, 0xFF	; 255
     cc0:	1f 4f       	sbci	r17, 0xFF	; 255
     cc2:	97 01       	movw	r18, r14
     cc4:	49 81       	ldd	r20, Y+1	; 0x01
     cc6:	5a 81       	ldd	r21, Y+2	; 0x02
     cc8:	6b 81       	ldd	r22, Y+3	; 0x03
     cca:	7c 81       	ldd	r23, Y+4	; 0x04
     ccc:	90 e0       	ldi	r25, 0x00	; 0
     cce:	0e 94 c3 04 	call	0x986	; 0x986 <vga_drawChar>
     cd2:	00 97       	sbiw	r24, 0x00	; 0
     cd4:	21 f4       	brne	.+8      	; 0xcde <.L90>
     cd6:	f8 01       	movw	r30, r16
     cd8:	22 91       	ld	r18, -Z
     cda:	20 32       	cpi	r18, 0x20	; 32
     cdc:	61 f7       	brne	.-40     	; 0xcb6 <.L89>

00000cde <.L90>:
     cde:	2b 81       	ldd	r18, Y+3	; 0x03
     ce0:	3c 81       	ldd	r19, Y+4	; 0x04
     ce2:	28 0f       	add	r18, r24
     ce4:	39 1f       	adc	r19, r25
     ce6:	2b 83       	std	Y+3, r18	; 0x03
     ce8:	3c 83       	std	Y+4, r19	; 0x04
     cea:	2c 37       	cpi	r18, 0x7C	; 124
     cec:	32 40       	sbci	r19, 0x02	; 2
     cee:	1c f3       	brlt	.-58     	; 0xcb6 <.L89>

00000cf0 <.L88>:
     cf0:	0f 90       	pop	r0
     cf2:	0f 90       	pop	r0
     cf4:	0f 90       	pop	r0
     cf6:	0f 90       	pop	r0
     cf8:	df 91       	pop	r29
     cfa:	cf 91       	pop	r28
     cfc:	1f 91       	pop	r17
     cfe:	0f 91       	pop	r16
     d00:	ff 90       	pop	r15
     d02:	ef 90       	pop	r14
     d04:	08 95       	ret

00000d06 <vga_drawFastHLine>:
     d06:	fc 01       	movw	r30, r24
     d08:	da 01       	movw	r26, r20
     d0a:	57 ff       	sbrs	r21, 7
     d0c:	05 c0       	rjmp	.+10     	; 0xd18 <.L96>
     d0e:	e4 0f       	add	r30, r20
     d10:	f5 1f       	adc	r31, r21
     d12:	b1 95       	neg	r27
     d14:	a1 95       	neg	r26
     d16:	b1 09       	sbc	r27, r1

00000d18 <.L96>:
     d18:	40 99       	sbic	0x08, 0	; 8
     d1a:	fe cf       	rjmp	.-4      	; 0xd18 <.L96>
     d1c:	60 93 52 40 	sts	0x4052, r22	; 0x804052 <__bss_end+0x3f2b>
     d20:	73 70       	andi	r23, 0x03	; 3
     d22:	70 93 53 40 	sts	0x4053, r23	; 0x804053 <__bss_end+0x3f2c>
     d26:	ae 0f       	add	r26, r30
     d28:	bf 1f       	adc	r27, r31

00000d2a <.L97>:
     d2a:	ea 17       	cp	r30, r26
     d2c:	fb 07       	cpc	r31, r27
     d2e:	09 f4       	brne	.+2      	; 0xd32 <.L100>
     d30:	08 95       	ret

00000d32 <.L100>:
     d32:	e0 38       	cpi	r30, 0x80	; 128
     d34:	82 e0       	ldi	r24, 0x02	; 2
     d36:	f8 07       	cpc	r31, r24
     d38:	58 f4       	brcc	.+22     	; 0xd50 <.L98>
     d3a:	4f 2f       	mov	r20, r31

00000d3c <.L99>:
     d3c:	40 99       	sbic	0x08, 0	; 8
     d3e:	fe cf       	rjmp	.-4      	; 0xd3c <.L99>
     d40:	e0 93 50 40 	sts	0x4050, r30	; 0x804050 <__bss_end+0x3f29>
     d44:	40 93 51 40 	sts	0x4051, r20	; 0x804051 <__bss_end+0x3f2a>
     d48:	20 93 54 40 	sts	0x4054, r18	; 0x804054 <__bss_end+0x3f2d>
     d4c:	30 93 55 40 	sts	0x4055, r19	; 0x804055 <__bss_end+0x3f2e>

00000d50 <.L98>:
     d50:	31 96       	adiw	r30, 0x01	; 1
     d52:	eb cf       	rjmp	.-42     	; 0xd2a <.L97>

00000d54 <vga_drawFastVLine>:
     d54:	fc 01       	movw	r30, r24
     d56:	14 16       	cp	r1, r20
     d58:	15 06       	cpc	r1, r21
     d5a:	04 f5       	brge	.+64     	; 0xd9c <.L103>
     d5c:	e0 38       	cpi	r30, 0x80	; 128
     d5e:	82 e0       	ldi	r24, 0x02	; 2
     d60:	f8 07       	cpc	r31, r24
     d62:	e0 f4       	brcc	.+56     	; 0xd9c <.L103>

00000d64 <.L105>:
     d64:	40 99       	sbic	0x08, 0	; 8
     d66:	fe cf       	rjmp	.-4      	; 0xd64 <.L105>
     d68:	e0 93 50 40 	sts	0x4050, r30	; 0x804050 <__bss_end+0x3f29>
     d6c:	f0 93 51 40 	sts	0x4051, r31	; 0x804051 <__bss_end+0x3f2a>
     d70:	cb 01       	movw	r24, r22
     d72:	46 0f       	add	r20, r22
     d74:	57 1f       	adc	r21, r23

00000d76 <.L108>:
     d76:	80 3e       	cpi	r24, 0xE0	; 224
     d78:	61 e0       	ldi	r22, 0x01	; 1
     d7a:	96 07       	cpc	r25, r22
     d7c:	58 f4       	brcc	.+22     	; 0xd94 <.L106>
     d7e:	69 2f       	mov	r22, r25

00000d80 <.L107>:
     d80:	40 99       	sbic	0x08, 0	; 8
     d82:	fe cf       	rjmp	.-4      	; 0xd80 <.L107>
     d84:	80 93 52 40 	sts	0x4052, r24	; 0x804052 <__bss_end+0x3f2b>
     d88:	60 93 53 40 	sts	0x4053, r22	; 0x804053 <__bss_end+0x3f2c>
     d8c:	20 93 54 40 	sts	0x4054, r18	; 0x804054 <__bss_end+0x3f2d>
     d90:	30 93 55 40 	sts	0x4055, r19	; 0x804055 <__bss_end+0x3f2e>

00000d94 <.L106>:
     d94:	01 96       	adiw	r24, 0x01	; 1
     d96:	84 17       	cp	r24, r20
     d98:	95 07       	cpc	r25, r21
     d9a:	69 f7       	brne	.-38     	; 0xd76 <.L108>

00000d9c <.L103>:
     d9c:	08 95       	ret

00000d9e <vga_drawRect>:
     d9e:	af 92       	push	r10
     da0:	bf 92       	push	r11
     da2:	cf 92       	push	r12
     da4:	df 92       	push	r13
     da6:	ef 92       	push	r14
     da8:	ff 92       	push	r15
     daa:	0f 93       	push	r16
     dac:	1f 93       	push	r17
     dae:	cf 93       	push	r28
     db0:	df 93       	push	r29
     db2:	5c 01       	movw	r10, r24
     db4:	7b 01       	movw	r14, r22
     db6:	ea 01       	movw	r28, r20
     db8:	69 01       	movw	r12, r18
     dba:	14 16       	cp	r1, r20
     dbc:	15 06       	cpc	r1, r21
     dbe:	4c f5       	brge	.+82     	; 0xe12 <.L112>
     dc0:	12 16       	cp	r1, r18
     dc2:	13 06       	cpc	r1, r19
     dc4:	34 f5       	brge	.+76     	; 0xe12 <.L112>
     dc6:	98 01       	movw	r18, r16
     dc8:	0e 94 83 06 	call	0xd06	; 0xd06 <vga_drawFastHLine>
     dcc:	b6 01       	movw	r22, r12
     dce:	6e 0d       	add	r22, r14
     dd0:	7f 1d       	adc	r23, r15
     dd2:	61 50       	subi	r22, 0x01	; 1
     dd4:	71 09       	sbc	r23, r1
     dd6:	98 01       	movw	r18, r16
     dd8:	ae 01       	movw	r20, r28
     dda:	c5 01       	movw	r24, r10
     ddc:	0e 94 83 06 	call	0xd06	; 0xd06 <vga_drawFastHLine>
     de0:	98 01       	movw	r18, r16
     de2:	a6 01       	movw	r20, r12
     de4:	b7 01       	movw	r22, r14
     de6:	c5 01       	movw	r24, r10
     de8:	0e 94 aa 06 	call	0xd54	; 0xd54 <vga_drawFastVLine>
     dec:	ca 0d       	add	r28, r10
     dee:	db 1d       	adc	r29, r11
     df0:	98 01       	movw	r18, r16
     df2:	a6 01       	movw	r20, r12
     df4:	b7 01       	movw	r22, r14
     df6:	ce 01       	movw	r24, r28
     df8:	01 97       	sbiw	r24, 0x01	; 1
     dfa:	df 91       	pop	r29
     dfc:	cf 91       	pop	r28
     dfe:	1f 91       	pop	r17
     e00:	0f 91       	pop	r16
     e02:	ff 90       	pop	r15
     e04:	ef 90       	pop	r14
     e06:	df 90       	pop	r13
     e08:	cf 90       	pop	r12
     e0a:	bf 90       	pop	r11
     e0c:	af 90       	pop	r10
     e0e:	0c 94 aa 06 	jmp	0xd54	; 0xd54 <vga_drawFastVLine>

00000e12 <.L112>:
     e12:	df 91       	pop	r29
     e14:	cf 91       	pop	r28
     e16:	1f 91       	pop	r17
     e18:	0f 91       	pop	r16
     e1a:	ff 90       	pop	r15
     e1c:	ef 90       	pop	r14
     e1e:	df 90       	pop	r13
     e20:	cf 90       	pop	r12
     e22:	bf 90       	pop	r11
     e24:	af 90       	pop	r10
     e26:	08 95       	ret

00000e28 <vga_fillCircle>:
     e28:	2f 92       	push	r2
     e2a:	3f 92       	push	r3
     e2c:	4f 92       	push	r4
     e2e:	5f 92       	push	r5
     e30:	6f 92       	push	r6
     e32:	7f 92       	push	r7
     e34:	8f 92       	push	r8
     e36:	9f 92       	push	r9
     e38:	af 92       	push	r10
     e3a:	bf 92       	push	r11
     e3c:	cf 92       	push	r12
     e3e:	df 92       	push	r13
     e40:	ef 92       	push	r14
     e42:	ff 92       	push	r15
     e44:	0f 93       	push	r16
     e46:	1f 93       	push	r17
     e48:	cf 93       	push	r28
     e4a:	df 93       	push	r29
     e4c:	00 d0       	rcall	.+0      	; 0xe4e <L0>

00000e4e <L0>:
     e4e:	00 d0       	rcall	.+0      	; 0xe50 <L0>

00000e50 <L0>:
     e50:	cd b7       	in	r28, 0x3d	; 61
     e52:	de b7       	in	r29, 0x3e	; 62
     e54:	3c 01       	movw	r6, r24
     e56:	5b 01       	movw	r10, r22
     e58:	4b 83       	std	Y+3, r20	; 0x03
     e5a:	5c 83       	std	Y+4, r21	; 0x04
     e5c:	49 01       	movw	r8, r18
     e5e:	2a 01       	movw	r4, r20
     e60:	44 0c       	add	r4, r4
     e62:	55 1c       	adc	r5, r5
     e64:	a2 01       	movw	r20, r4
     e66:	4f 5f       	subi	r20, 0xFF	; 255
     e68:	5f 4f       	sbci	r21, 0xFF	; 255
     e6a:	c3 01       	movw	r24, r6
     e6c:	eb 81       	ldd	r30, Y+3	; 0x03
     e6e:	fc 81       	ldd	r31, Y+4	; 0x04
     e70:	8e 1b       	sub	r24, r30
     e72:	9f 0b       	sbc	r25, r31
     e74:	0e 94 83 06 	call	0xd06	; 0xd06 <vga_drawFastHLine>
     e78:	01 e0       	ldi	r16, 0x01	; 1
     e7a:	10 e0       	ldi	r17, 0x00	; 0
     e7c:	8b 81       	ldd	r24, Y+3	; 0x03
     e7e:	9c 81       	ldd	r25, Y+4	; 0x04
     e80:	08 1b       	sub	r16, r24
     e82:	19 0b       	sbc	r17, r25
     e84:	51 94       	neg	r5
     e86:	41 94       	neg	r4
     e88:	51 08       	sbc	r5, r1
     e8a:	e1 2c       	mov	r14, r1
     e8c:	f1 2c       	mov	r15, r1
     e8e:	67 01       	movw	r12, r14
     e90:	c3 94       	inc	r12

00000e92 <.L115>:
     e92:	8b 81       	ldd	r24, Y+3	; 0x03
     e94:	9c 81       	ldd	r25, Y+4	; 0x04
     e96:	e8 16       	cp	r14, r24
     e98:	f9 06       	cpc	r15, r25
     e9a:	bc f0       	brlt	.+46     	; 0xeca <.L117>
     e9c:	0f 90       	pop	r0
     e9e:	0f 90       	pop	r0
     ea0:	0f 90       	pop	r0
     ea2:	0f 90       	pop	r0
     ea4:	df 91       	pop	r29
     ea6:	cf 91       	pop	r28
     ea8:	1f 91       	pop	r17
     eaa:	0f 91       	pop	r16
     eac:	ff 90       	pop	r15
     eae:	ef 90       	pop	r14
     eb0:	df 90       	pop	r13
     eb2:	cf 90       	pop	r12
     eb4:	bf 90       	pop	r11
     eb6:	af 90       	pop	r10
     eb8:	9f 90       	pop	r9
     eba:	8f 90       	pop	r8
     ebc:	7f 90       	pop	r7
     ebe:	6f 90       	pop	r6
     ec0:	5f 90       	pop	r5
     ec2:	4f 90       	pop	r4
     ec4:	3f 90       	pop	r3
     ec6:	2f 90       	pop	r2
     ec8:	08 95       	ret

00000eca <.L117>:
     eca:	17 fd       	sbrc	r17, 7
     ecc:	0a c0       	rjmp	.+20     	; 0xee2 <.L116>
     ece:	eb 81       	ldd	r30, Y+3	; 0x03
     ed0:	fc 81       	ldd	r31, Y+4	; 0x04
     ed2:	31 97       	sbiw	r30, 0x01	; 1
     ed4:	eb 83       	std	Y+3, r30	; 0x03
     ed6:	fc 83       	std	Y+4, r31	; 0x04
     ed8:	f2 e0       	ldi	r31, 0x02	; 2
     eda:	4f 0e       	add	r4, r31
     edc:	51 1c       	adc	r5, r1
     ede:	04 0d       	add	r16, r4
     ee0:	15 1d       	adc	r17, r5

00000ee2 <.L116>:
     ee2:	8f ef       	ldi	r24, 0xFF	; 255
     ee4:	e8 1a       	sub	r14, r24
     ee6:	f8 0a       	sbc	r15, r24
     ee8:	92 e0       	ldi	r25, 0x02	; 2
     eea:	c9 0e       	add	r12, r25
     eec:	d1 1c       	adc	r13, r1
     eee:	0c 0d       	add	r16, r12
     ef0:	1d 1d       	adc	r17, r13
     ef2:	13 01       	movw	r2, r6
     ef4:	2e 18       	sub	r2, r14
     ef6:	3f 08       	sbc	r3, r15
     ef8:	94 01       	movw	r18, r8
     efa:	a6 01       	movw	r20, r12
     efc:	6b 81       	ldd	r22, Y+3	; 0x03
     efe:	7c 81       	ldd	r23, Y+4	; 0x04
     f00:	6a 0d       	add	r22, r10
     f02:	7b 1d       	adc	r23, r11
     f04:	c1 01       	movw	r24, r2
     f06:	0e 94 83 06 	call	0xd06	; 0xd06 <vga_drawFastHLine>
     f0a:	94 01       	movw	r18, r8
     f0c:	a6 01       	movw	r20, r12
     f0e:	b5 01       	movw	r22, r10
     f10:	eb 81       	ldd	r30, Y+3	; 0x03
     f12:	fc 81       	ldd	r31, Y+4	; 0x04
     f14:	6e 1b       	sub	r22, r30
     f16:	7f 0b       	sbc	r23, r31
     f18:	c1 01       	movw	r24, r2
     f1a:	0e 94 83 06 	call	0xd06	; 0xd06 <vga_drawFastHLine>
     f1e:	2b 80       	ldd	r2, Y+3	; 0x03
     f20:	3c 80       	ldd	r3, Y+4	; 0x04
     f22:	22 0c       	add	r2, r2
     f24:	33 1c       	adc	r3, r3
     f26:	ff ef       	ldi	r31, 0xFF	; 255
     f28:	2f 1a       	sub	r2, r31
     f2a:	3f 0a       	sbc	r3, r31
     f2c:	b5 01       	movw	r22, r10
     f2e:	6e 0d       	add	r22, r14
     f30:	7f 1d       	adc	r23, r15
     f32:	94 01       	movw	r18, r8
     f34:	a1 01       	movw	r20, r2
     f36:	c3 01       	movw	r24, r6
     f38:	eb 81       	ldd	r30, Y+3	; 0x03
     f3a:	fc 81       	ldd	r31, Y+4	; 0x04
     f3c:	8e 1b       	sub	r24, r30
     f3e:	9f 0b       	sbc	r25, r31
     f40:	89 83       	std	Y+1, r24	; 0x01
     f42:	9a 83       	std	Y+2, r25	; 0x02
     f44:	0e 94 83 06 	call	0xd06	; 0xd06 <vga_drawFastHLine>
     f48:	b5 01       	movw	r22, r10
     f4a:	6e 19       	sub	r22, r14
     f4c:	7f 09       	sbc	r23, r15
     f4e:	94 01       	movw	r18, r8
     f50:	a1 01       	movw	r20, r2
     f52:	89 81       	ldd	r24, Y+1	; 0x01
     f54:	9a 81       	ldd	r25, Y+2	; 0x02
     f56:	0e 94 83 06 	call	0xd06	; 0xd06 <vga_drawFastHLine>
     f5a:	9b cf       	rjmp	.-202    	; 0xe92 <.L115>

00000f5c <vga_drawLine>:
     f5c:	2f 92       	push	r2
     f5e:	3f 92       	push	r3
     f60:	4f 92       	push	r4
     f62:	5f 92       	push	r5
     f64:	6f 92       	push	r6
     f66:	7f 92       	push	r7
     f68:	8f 92       	push	r8
     f6a:	9f 92       	push	r9
     f6c:	af 92       	push	r10
     f6e:	bf 92       	push	r11
     f70:	cf 92       	push	r12
     f72:	df 92       	push	r13
     f74:	ef 92       	push	r14
     f76:	ff 92       	push	r15
     f78:	0f 93       	push	r16
     f7a:	1f 93       	push	r17
     f7c:	cf 93       	push	r28
     f7e:	df 93       	push	r29
     f80:	00 d0       	rcall	.+0      	; 0xf82 <L0>

00000f82 <L0>:
     f82:	00 d0       	rcall	.+0      	; 0xf84 <L0>

00000f84 <L0>:
     f84:	cd b7       	in	r28, 0x3d	; 61
     f86:	de b7       	in	r29, 0x3e	; 62
     f88:	6b 83       	std	Y+3, r22	; 0x03
     f8a:	7c 83       	std	Y+4, r23	; 0x04
     f8c:	6a 01       	movw	r12, r20
     f8e:	79 01       	movw	r14, r18
     f90:	58 01       	movw	r10, r16
     f92:	84 17       	cp	r24, r20
     f94:	95 07       	cpc	r25, r21
     f96:	51 f5       	brne	.+84     	; 0xfec <.L119>
     f98:	a9 01       	movw	r20, r18
     f9a:	2b 81       	ldd	r18, Y+3	; 0x03
     f9c:	3c 81       	ldd	r19, Y+4	; 0x04
     f9e:	42 1b       	sub	r20, r18
     fa0:	53 0b       	sbc	r21, r19
     fa2:	1a f4       	brpl	.+6      	; 0xfaa <.L120>
     fa4:	a9 01       	movw	r20, r18
     fa6:	4e 19       	sub	r20, r14
     fa8:	5f 09       	sbc	r21, r15

00000faa <.L120>:
     faa:	4f 5f       	subi	r20, 0xFF	; 255
     fac:	5f 4f       	sbci	r21, 0xFF	; 255
     fae:	6b 81       	ldd	r22, Y+3	; 0x03
     fb0:	7c 81       	ldd	r23, Y+4	; 0x04
     fb2:	e6 16       	cp	r14, r22
     fb4:	f7 06       	cpc	r15, r23
     fb6:	0c f4       	brge	.+2      	; 0xfba <.L121>
     fb8:	b7 01       	movw	r22, r14

00000fba <.L121>:
     fba:	95 01       	movw	r18, r10
     fbc:	0f 90       	pop	r0
     fbe:	0f 90       	pop	r0
     fc0:	0f 90       	pop	r0
     fc2:	0f 90       	pop	r0
     fc4:	df 91       	pop	r29
     fc6:	cf 91       	pop	r28
     fc8:	1f 91       	pop	r17
     fca:	0f 91       	pop	r16
     fcc:	ff 90       	pop	r15
     fce:	ef 90       	pop	r14
     fd0:	df 90       	pop	r13
     fd2:	cf 90       	pop	r12
     fd4:	bf 90       	pop	r11
     fd6:	af 90       	pop	r10
     fd8:	9f 90       	pop	r9
     fda:	8f 90       	pop	r8
     fdc:	7f 90       	pop	r7
     fde:	6f 90       	pop	r6
     fe0:	5f 90       	pop	r5
     fe2:	4f 90       	pop	r4
     fe4:	3f 90       	pop	r3
     fe6:	2f 90       	pop	r2
     fe8:	0c 94 aa 06 	jmp	0xd54	; 0xd54 <vga_drawFastVLine>

00000fec <.L119>:
     fec:	4a 01       	movw	r8, r20
     fee:	88 1a       	sub	r8, r24
     ff0:	99 0a       	sbc	r9, r25
     ff2:	1a f4       	brpl	.+6      	; 0xffa <.L122>
     ff4:	4c 01       	movw	r8, r24
     ff6:	84 1a       	sub	r8, r20
     ff8:	95 0a       	sbc	r9, r21

00000ffa <.L122>:
     ffa:	2b 81       	ldd	r18, Y+3	; 0x03
     ffc:	3c 81       	ldd	r19, Y+4	; 0x04
     ffe:	2e 15       	cp	r18, r14
    1000:	3f 05       	cpc	r19, r15
    1002:	11 f5       	brne	.+68     	; 0x1048 <.L123>
    1004:	a4 01       	movw	r20, r8
    1006:	4f 5f       	subi	r20, 0xFF	; 255
    1008:	5f 4f       	sbci	r21, 0xFF	; 255
    100a:	c8 16       	cp	r12, r24
    100c:	d9 06       	cpc	r13, r25
    100e:	0c f4       	brge	.+2      	; 0x1012 <.L124>
    1010:	c6 01       	movw	r24, r12

00001012 <.L124>:
    1012:	95 01       	movw	r18, r10
    1014:	6b 81       	ldd	r22, Y+3	; 0x03
    1016:	7c 81       	ldd	r23, Y+4	; 0x04
    1018:	0f 90       	pop	r0
    101a:	0f 90       	pop	r0
    101c:	0f 90       	pop	r0
    101e:	0f 90       	pop	r0
    1020:	df 91       	pop	r29
    1022:	cf 91       	pop	r28
    1024:	1f 91       	pop	r17
    1026:	0f 91       	pop	r16
    1028:	ff 90       	pop	r15
    102a:	ef 90       	pop	r14
    102c:	df 90       	pop	r13
    102e:	cf 90       	pop	r12
    1030:	bf 90       	pop	r11
    1032:	af 90       	pop	r10
    1034:	9f 90       	pop	r9
    1036:	8f 90       	pop	r8
    1038:	7f 90       	pop	r7
    103a:	6f 90       	pop	r6
    103c:	5f 90       	pop	r5
    103e:	4f 90       	pop	r4
    1040:	3f 90       	pop	r3
    1042:	2f 90       	pop	r2
    1044:	0c 94 83 06 	jmp	0xd06	; 0xd06 <vga_drawFastHLine>

00001048 <.L123>:
    1048:	37 01       	movw	r6, r14
    104a:	2b 81       	ldd	r18, Y+3	; 0x03
    104c:	3c 81       	ldd	r19, Y+4	; 0x04
    104e:	62 1a       	sub	r6, r18
    1050:	73 0a       	sbc	r7, r19
    1052:	1a f4       	brpl	.+6      	; 0x105a <.L125>
    1054:	39 01       	movw	r6, r18
    1056:	6e 18       	sub	r6, r14
    1058:	7f 08       	sbc	r7, r15

0000105a <.L125>:
    105a:	86 14       	cp	r8, r6
    105c:	97 04       	cpc	r9, r7
    105e:	5c f0       	brlt	.+22     	; 0x1076 <.L126>
    1060:	3e 2d       	mov	r19, r14
    1062:	2f 2d       	mov	r18, r15
    1064:	76 01       	movw	r14, r12
    1066:	c3 2e       	mov	r12, r19
    1068:	d2 2e       	mov	r13, r18
    106a:	3b 81       	ldd	r19, Y+3	; 0x03
    106c:	2c 81       	ldd	r18, Y+4	; 0x04
    106e:	8b 83       	std	Y+3, r24	; 0x03
    1070:	9c 83       	std	Y+4, r25	; 0x04
    1072:	83 2f       	mov	r24, r19
    1074:	92 2f       	mov	r25, r18

00001076 <.L126>:
    1076:	2b 81       	ldd	r18, Y+3	; 0x03
    1078:	3c 81       	ldd	r19, Y+4	; 0x04
    107a:	e2 16       	cp	r14, r18
    107c:	f3 06       	cpc	r15, r19
    107e:	5c f0       	brlt	.+22     	; 0x1096 <.L127>
    1080:	3c 2d       	mov	r19, r12
    1082:	2d 2d       	mov	r18, r13
    1084:	6c 01       	movw	r12, r24
    1086:	83 2f       	mov	r24, r19
    1088:	92 2f       	mov	r25, r18
    108a:	3e 2d       	mov	r19, r14
    108c:	2f 2d       	mov	r18, r15
    108e:	eb 80       	ldd	r14, Y+3	; 0x03
    1090:	fc 80       	ldd	r15, Y+4	; 0x04
    1092:	3b 83       	std	Y+3, r19	; 0x03
    1094:	2c 83       	std	Y+4, r18	; 0x04

00001096 <.L127>:
    1096:	4b 80       	ldd	r4, Y+3	; 0x03
    1098:	5c 80       	ldd	r5, Y+4	; 0x04
    109a:	4e 18       	sub	r4, r14
    109c:	5f 08       	sbc	r5, r15
    109e:	1c 01       	movw	r2, r24
    10a0:	2c 18       	sub	r2, r12
    10a2:	3d 08       	sbc	r3, r13
    10a4:	1a f4       	brpl	.+6      	; 0x10ac <.L128>
    10a6:	16 01       	movw	r2, r12
    10a8:	28 1a       	sub	r2, r24
    10aa:	39 0a       	sbc	r3, r25

000010ac <.L128>:
    10ac:	82 01       	movw	r16, r4
    10ae:	57 fe       	sbrs	r5, 7
    10b0:	02 c0       	rjmp	.+4      	; 0x10b6 <.L129>
    10b2:	0f 5f       	subi	r16, 0xFF	; 255
    10b4:	1f 4f       	sbci	r17, 0xFF	; 255

000010b6 <.L129>:
    10b6:	15 95       	asr	r17
    10b8:	07 95       	ror	r16
    10ba:	c8 16       	cp	r12, r24
    10bc:	d9 06       	cpc	r13, r25
    10be:	bc f1       	brlt	.+110    	; 0x112e <.L130>
    10c0:	8f ef       	ldi	r24, 0xFF	; 255
    10c2:	9f ef       	ldi	r25, 0xFF	; 255

000010c4 <.L138>:
    10c4:	89 83       	std	Y+1, r24	; 0x01
    10c6:	9a 83       	std	Y+2, r25	; 0x02
    10c8:	16 c0       	rjmp	.+44     	; 0x10f6 <.L135>

000010ca <.L136>:
    10ca:	a5 01       	movw	r20, r10
    10cc:	b7 01       	movw	r22, r14
    10ce:	c6 01       	movw	r24, r12
    10d0:	86 14       	cp	r8, r6
    10d2:	97 04       	cpc	r9, r7
    10d4:	14 f0       	brlt	.+4      	; 0x10da <.L137>
    10d6:	b6 01       	movw	r22, r12
    10d8:	c7 01       	movw	r24, r14

000010da <.L137>:
    10da:	0e 94 39 04 	call	0x872	; 0x872 <vga_pixel_fast>
    10de:	02 19       	sub	r16, r2
    10e0:	13 09       	sbc	r17, r3
    10e2:	32 f4       	brpl	.+12     	; 0x10f0 <.L134>
    10e4:	29 81       	ldd	r18, Y+1	; 0x01
    10e6:	3a 81       	ldd	r19, Y+2	; 0x02
    10e8:	c2 0e       	add	r12, r18
    10ea:	d3 1e       	adc	r13, r19
    10ec:	04 0d       	add	r16, r4
    10ee:	15 1d       	adc	r17, r5

000010f0 <.L134>:
    10f0:	3f ef       	ldi	r19, 0xFF	; 255
    10f2:	e3 1a       	sub	r14, r19
    10f4:	f3 0a       	sbc	r15, r19

000010f6 <.L135>:
    10f6:	2b 81       	ldd	r18, Y+3	; 0x03
    10f8:	3c 81       	ldd	r19, Y+4	; 0x04
    10fa:	2e 15       	cp	r18, r14
    10fc:	3f 05       	cpc	r19, r15
    10fe:	2c f7       	brge	.-54     	; 0x10ca <.L136>
    1100:	0f 90       	pop	r0
    1102:	0f 90       	pop	r0
    1104:	0f 90       	pop	r0
    1106:	0f 90       	pop	r0
    1108:	df 91       	pop	r29
    110a:	cf 91       	pop	r28
    110c:	1f 91       	pop	r17
    110e:	0f 91       	pop	r16
    1110:	ff 90       	pop	r15
    1112:	ef 90       	pop	r14
    1114:	df 90       	pop	r13
    1116:	cf 90       	pop	r12
    1118:	bf 90       	pop	r11
    111a:	af 90       	pop	r10
    111c:	9f 90       	pop	r9
    111e:	8f 90       	pop	r8
    1120:	7f 90       	pop	r7
    1122:	6f 90       	pop	r6
    1124:	5f 90       	pop	r5
    1126:	4f 90       	pop	r4
    1128:	3f 90       	pop	r3
    112a:	2f 90       	pop	r2
    112c:	08 95       	ret

0000112e <.L130>:
    112e:	81 e0       	ldi	r24, 0x01	; 1
    1130:	90 e0       	ldi	r25, 0x00	; 0
    1132:	c8 cf       	rjmp	.-112    	; 0x10c4 <.L138>

00001134 <main>:
    1134:	61 e0       	ldi	r22, 0x01	; 1
    1136:	80 e0       	ldi	r24, 0x00	; 0
    1138:	0e 94 17 04 	call	0x82e	; 0x82e <video_config>
    113c:	2f e7       	ldi	r18, 0x7F	; 127
    113e:	8d e8       	ldi	r24, 0x8D	; 141
    1140:	9b e5       	ldi	r25, 0x5B	; 91

00001142 <.L11>:
    1142:	21 50       	subi	r18, 0x01	; 1
    1144:	80 40       	sbci	r24, 0x00	; 0
    1146:	90 40       	sbci	r25, 0x00	; 0
    1148:	e1 f7       	brne	.-8      	; 0x1142 <.L11>
    114a:	00 c0       	rjmp	.+0      	; 0x114c <L0>

0000114c <L0>:
    114c:	00 00       	nop
    114e:	80 e0       	ldi	r24, 0x00	; 0
    1150:	90 e0       	ldi	r25, 0x00	; 0
    1152:	0e 94 6d 04 	call	0x8da	; 0x8da <vga_clear_screen>
    1156:	0f e1       	ldi	r16, 0x1F	; 31
    1158:	10 e0       	ldi	r17, 0x00	; 0
    115a:	20 e2       	ldi	r18, 0x20	; 32
    115c:	30 e0       	ldi	r19, 0x00	; 0
    115e:	4c e6       	ldi	r20, 0x6C	; 108
    1160:	52 e0       	ldi	r21, 0x02	; 2
    1162:	60 e0       	ldi	r22, 0x00	; 0
    1164:	70 e0       	ldi	r23, 0x00	; 0
    1166:	cb 01       	movw	r24, r22
    1168:	0e 94 91 04 	call	0x922	; 0x922 <vga_fillRect>
    116c:	82 e0       	ldi	r24, 0x02	; 2
    116e:	0e 94 20 04 	call	0x840	; 0x840 <vga_setTextFont>
    1172:	82 e0       	ldi	r24, 0x02	; 2
    1174:	0e 94 26 04 	call	0x84c	; 0x84c <vga_setTextSize>
    1178:	60 e0       	ldi	r22, 0x00	; 0
    117a:	70 e0       	ldi	r23, 0x00	; 0
    117c:	8f ef       	ldi	r24, 0xFF	; 255
    117e:	9f ef       	ldi	r25, 0xFF	; 255
    1180:	0e 94 30 04 	call	0x860	; 0x860 <vga_setTextColor>
    1184:	82 e0       	ldi	r24, 0x02	; 2
    1186:	e8 2e       	mov	r14, r24
    1188:	20 ee       	ldi	r18, 0xE0	; 224
    118a:	37 e0       	ldi	r19, 0x07	; 7
    118c:	45 e0       	ldi	r20, 0x05	; 5
    118e:	50 e0       	ldi	r21, 0x00	; 0
    1190:	6a e0       	ldi	r22, 0x0A	; 10
    1192:	70 e0       	ldi	r23, 0x00	; 0
    1194:	84 e0       	ldi	r24, 0x04	; 4
    1196:	91 e0       	ldi	r25, 0x01	; 1
    1198:	0e 94 40 06 	call	0xc80	; 0xc80 <vga_printAt>
    119c:	06 e8       	ldi	r16, 0x86	; 134
    119e:	11 e3       	ldi	r17, 0x31	; 49
    11a0:	2f ef       	ldi	r18, 0xFF	; 255
    11a2:	3f ef       	ldi	r19, 0xFF	; 255
    11a4:	45 e0       	ldi	r20, 0x05	; 5
    11a6:	50 e0       	ldi	r21, 0x00	; 0
    11a8:	6e ea       	ldi	r22, 0xAE	; 174
    11aa:	71 e0       	ldi	r23, 0x01	; 1
    11ac:	88 e0       	ldi	r24, 0x08	; 8
    11ae:	91 e0       	ldi	r25, 0x01	; 1
    11b0:	0e 94 40 06 	call	0xc80	; 0xc80 <vga_printAt>
    11b4:	0f ef       	ldi	r16, 0xFF	; 255
    11b6:	1f ef       	ldi	r17, 0xFF	; 255
    11b8:	22 ef       	ldi	r18, 0xF2	; 242
    11ba:	30 e0       	ldi	r19, 0x00	; 0
    11bc:	42 e9       	ldi	r20, 0x92	; 146
    11be:	51 e0       	ldi	r21, 0x01	; 1
    11c0:	60 e2       	ldi	r22, 0x20	; 32
    11c2:	70 e0       	ldi	r23, 0x00	; 0
    11c4:	84 e0       	ldi	r24, 0x04	; 4
    11c6:	90 e0       	ldi	r25, 0x00	; 0
    11c8:	0e 94 cf 06 	call	0xd9e	; 0xd9e <vga_drawRect>
    11cc:	00 ee       	ldi	r16, 0xE0	; 224
    11ce:	17 e0       	ldi	r17, 0x07	; 7
    11d0:	22 e3       	ldi	r18, 0x32	; 50
    11d2:	30 e0       	ldi	r19, 0x00	; 0
    11d4:	48 e5       	ldi	r20, 0x58	; 88
    11d6:	52 e0       	ldi	r21, 0x02	; 2
    11d8:	60 e9       	ldi	r22, 0x90	; 144
    11da:	71 e0       	ldi	r23, 0x01	; 1
    11dc:	8a e0       	ldi	r24, 0x0A	; 10
    11de:	90 e0       	ldi	r25, 0x00	; 0
    11e0:	0e 94 ae 07 	call	0xf5c	; 0xf5c <vga_drawLine>

000011e4 <.L2>:
    11e4:	ff cf       	rjmp	.-2      	; 0x11e4 <.L2>

000011e6 <_exit>:
    11e6:	f8 94       	cli

000011e8 <__stop_program>:
    11e8:	ff cf       	rjmp	.-2      	; 0x11e8 <__stop_program>
