
firmware.elf:     file format elf32-avr


Disassembly of section .text:

00000000 <__vectors>:
       0:	0c 94 1b 07 	jmp	0xe36	; 0xe36 <__init>
       4:	0c 94 3a 07 	jmp	0xe74	; 0xe74 <__bad_interrupt>
       8:	0c 94 3a 07 	jmp	0xe74	; 0xe74 <__bad_interrupt>
       c:	0c 94 3a 07 	jmp	0xe74	; 0xe74 <__bad_interrupt>
      10:	0c 94 3a 07 	jmp	0xe74	; 0xe74 <__bad_interrupt>
      14:	0c 94 3a 07 	jmp	0xe74	; 0xe74 <__bad_interrupt>
      18:	0c 94 3a 07 	jmp	0xe74	; 0xe74 <__bad_interrupt>
      1c:	0c 94 3a 07 	jmp	0xe74	; 0xe74 <__bad_interrupt>
      20:	0c 94 3a 07 	jmp	0xe74	; 0xe74 <__bad_interrupt>
      24:	0c 94 3a 07 	jmp	0xe74	; 0xe74 <__bad_interrupt>
      28:	0c 94 3a 07 	jmp	0xe74	; 0xe74 <__bad_interrupt>
      2c:	0c 94 3a 07 	jmp	0xe74	; 0xe74 <__bad_interrupt>
      30:	0c 94 3a 07 	jmp	0xe74	; 0xe74 <__bad_interrupt>
      34:	0c 94 3a 07 	jmp	0xe74	; 0xe74 <__bad_interrupt>
      38:	0c 94 3a 07 	jmp	0xe74	; 0xe74 <__bad_interrupt>
      3c:	0c 94 3a 07 	jmp	0xe74	; 0xe74 <__bad_interrupt>
      40:	0c 94 3a 07 	jmp	0xe74	; 0xe74 <__bad_interrupt>
      44:	0c 94 3a 07 	jmp	0xe74	; 0xe74 <__bad_interrupt>
      48:	0c 94 3a 07 	jmp	0xe74	; 0xe74 <__bad_interrupt>
      4c:	0c 94 3a 07 	jmp	0xe74	; 0xe74 <__bad_interrupt>
      50:	0c 94 3a 07 	jmp	0xe74	; 0xe74 <__bad_interrupt>
      54:	0c 94 3a 07 	jmp	0xe74	; 0xe74 <__bad_interrupt>
      58:	0c 94 3a 07 	jmp	0xe74	; 0xe74 <__bad_interrupt>
      5c:	0c 94 3a 07 	jmp	0xe74	; 0xe74 <__bad_interrupt>
      60:	0c 94 3a 07 	jmp	0xe74	; 0xe74 <__bad_interrupt>
      64:	0c 94 3a 07 	jmp	0xe74	; 0xe74 <__bad_interrupt>
      68:	0c 94 3a 07 	jmp	0xe74	; 0xe74 <__bad_interrupt>
      6c:	0c 94 3a 07 	jmp	0xe74	; 0xe74 <__bad_interrupt>
      70:	0c 94 3a 07 	jmp	0xe74	; 0xe74 <__bad_interrupt>
      74:	0c 94 3a 07 	jmp	0xe74	; 0xe74 <__bad_interrupt>
      78:	0c 94 3a 07 	jmp	0xe74	; 0xe74 <__bad_interrupt>
      7c:	0c 94 3a 07 	jmp	0xe74	; 0xe74 <__bad_interrupt>
      80:	0c 94 3a 07 	jmp	0xe74	; 0xe74 <__bad_interrupt>
      84:	0c 94 3a 07 	jmp	0xe74	; 0xe74 <__bad_interrupt>
      88:	0c 94 3a 07 	jmp	0xe74	; 0xe74 <__bad_interrupt>

0000008c <chrtbl_f16>:
      8c:	7c 07 6c 07 5c 07 4c 07 3c 07 2c 07 1c 07 0c 07     |.l.\.L.<.,.....
      9c:	fc 06 ec 06 dc 06 cc 06 bc 06 ac 06 9c 06 8c 06     ................
      ac:	7c 06 6c 06 5c 06 4c 06 3c 06 2c 06 1c 06 0c 06     |.l.\.L.<.,.....
      bc:	fc 05 ec 05 dc 05 cc 05 bc 05 ac 05 9c 05 8c 05     ................
      cc:	7c 05 6c 05 5c 05 4c 05 3c 05 2c 05 1c 05 0c 05     |.l.\.L.<.,.....
      dc:	fc 04 ec 04 dc 04 cc 04 bc 04 9c 04 8c 04 7c 04     ..............|.
      ec:	6c 04 5c 04 4c 04 3c 04 2c 04 1c 04 0c 04 ec 03     l.\.L.<.,.......
      fc:	dc 03 cc 03 bc 03 ac 03 9c 03 8c 03 6c 03 4c 03     ............l.L.
     10c:	3c 03 2c 03 1c 03 0c 03 fc 02 ec 02 dc 02 cc 02     <.,.............
     11c:	bc 02 ac 02 9c 02 8c 02 7c 02 6c 02 5c 02 4c 02     ........|.l.\.L.
     12c:	3c 02 2c 02 1c 02 0c 02 fc 01 ec 01 dc 01 cc 01     <.,.............
     13c:	bc 01 ac 01 9c 01 8c 01 7c 01 6c 01 5c 01 4c 01     ........|.l.\.L.

0000014c <chr_f16_7F>:
     14c:	00 00 30 48 48 30 00 00 00 00 00 00 00 00 00 00     ..0HH0..........

0000015c <chr_f16_7E>:
     15c:	00 00 00 32 4c 00 00 00 00 00 00 00 00 00 00 00     ...2L...........

0000016c <chr_f16_7D>:
     16c:	00 40 20 20 20 20 20 20 10 20 20 20 20 20 20 40     .@      .      @

0000017c <chr_f16_7C>:
     17c:	00 00 40 40 40 40 40 40 40 40 40 40 40 40 40 00     ..@@@@@@@@@@@@@.

0000018c <chr_f16_7B>:
     18c:	00 10 20 20 20 20 20 20 40 20 20 20 20 20 20 10     ..      @      .

0000019c <chr_f16_7A>:
     19c:	00 00 00 00 00 00 fc 04 08 30 40 80 fc 00 00 00     .........0@.....

000001ac <chr_f16_79>:
     1ac:	00 00 00 00 00 00 84 84 84 84 84 4c 34 04 08 70     ...........L4..p

000001bc <chr_f16_78>:
     1bc:	00 00 00 00 00 00 88 88 50 20 50 88 88 00 00 00     ........P P.....

000001cc <chr_f16_77>:
     1cc:	00 00 00 00 00 00 82 82 82 92 92 aa 44 00 00 00     ............D...

000001dc <chr_f16_76>:
     1dc:	00 00 00 00 00 00 82 82 82 82 44 28 10 00 00 00     ..........D(....

000001ec <chr_f16_75>:
     1ec:	00 00 00 00 00 00 84 84 84 84 84 4c 34 00 00 00     ...........L4...

000001fc <chr_f16_74>:
     1fc:	00 00 00 00 40 40 e0 40 40 40 40 40 30 00 00 00     ....@@.@@@@@0...

0000020c <chr_f16_73>:
     20c:	00 00 00 00 00 00 70 88 80 70 08 88 70 00 00 00     ......p..p..p...

0000021c <chr_f16_72>:
     21c:	00 00 00 00 00 00 b0 c8 80 80 80 80 80 00 00 00     ................

0000022c <chr_f16_71>:
     22c:	00 00 00 00 00 00 34 4c 84 84 84 4c 34 04 04 06     ......4L...L4...

0000023c <chr_f16_70>:
     23c:	00 00 00 00 00 00 b0 c8 84 84 84 c8 b0 80 80 80     ................

0000024c <chr_f16_6F>:
     24c:	00 00 00 00 00 00 38 44 82 82 82 44 38 00 00 00     ......8D...D8...

0000025c <chr_f16_6E>:
     25c:	00 00 00 00 00 00 b0 c8 84 84 84 84 84 00 00 00     ................

0000026c <chr_f16_6D>:
     26c:	00 00 00 00 00 00 ac d2 92 92 92 92 92 00 00 00     ................

0000027c <chr_f16_6C>:
     27c:	00 00 00 c0 40 40 40 40 40 40 40 40 40 00 00 00     ....@@@@@@@@@...

0000028c <chr_f16_6B>:
     28c:	00 00 00 80 80 80 88 90 a0 c0 a0 90 88 00 00 00     ................

0000029c <chr_f16_6A>:
     29c:	00 00 00 00 10 00 30 10 10 10 10 10 10 10 90 60     ......0........`

000002ac <chr_f16_69>:
     2ac:	00 00 00 00 40 00 40 40 40 40 40 40 40 00 00 00     ....@.@@@@@@@...

000002bc <chr_f16_68>:
     2bc:	00 00 00 80 80 80 b0 c8 84 84 84 84 84 00 00 00     ................

000002cc <chr_f16_67>:
     2cc:	00 00 00 00 00 00 30 4c 84 84 84 4c 34 04 08 70     ......0L...L4..p

000002dc <chr_f16_66>:
     2dc:	00 00 00 30 48 40 40 40 e0 40 40 40 40 00 00 00     ...0H@@@.@@@@...

000002ec <chr_f16_65>:
     2ec:	00 00 00 00 00 00 38 44 84 f8 80 44 38 00 00 00     ......8D...D8...

000002fc <chr_f16_64>:
     2fc:	00 00 00 00 04 04 34 4c 84 84 84 4c 34 00 00 00     ......4L...L4...

0000030c <chr_f16_63>:
     30c:	00 00 00 00 00 00 38 44 80 80 80 44 38 00 00 00     ......8D...D8...

0000031c <chr_f16_62>:
     31c:	00 00 00 00 80 80 b0 c8 84 84 84 c8 b0 00 00 00     ................

0000032c <chr_f16_61>:
     32c:	00 00 00 00 00 00 70 08 04 74 8c 8c 74 00 00 00     ......p..t..t...

0000033c <chr_f16_60>:
     33c:	00 00 00 40 40 40 20 00 00 00 00 00 00 00 00 00     ...@@@ .........

0000034c <chr_f16_5F>:
	...
     358:	00 00 ff 00 00 00 00 00 00 00 00 00 00 00 00 00     ................
     368:	00 00 00 00                                         ....

0000036c <chr_f16_5E>:
     36c:	00 10 28 44 00 00 00 00 00 00 00 00 00 00 00 00     ..(D............
	...

0000038c <chr_f16_5D>:
     38c:	00 00 e0 20 20 20 20 20 20 20 20 20 20 e0 00 00     ...          ...

0000039c <chr_f16_5C>:
     39c:	00 00 04 04 08 08 10 10 20 20 40 40 80 80 00 00     ........  @@....

000003ac <chr_f16_5B>:
     3ac:	00 00 e0 80 80 80 80 80 80 80 80 80 80 e0 00 00     ................

000003bc <chr_f16_5A>:
     3bc:	00 00 00 fe 02 04 08 10 10 20 40 80 fe 00 00 00     ......... @.....

000003cc <chr_f16_59>:
     3cc:	00 00 00 82 82 82 44 28 10 10 10 10 10 00 00 00     ......D(........

000003dc <chr_f16_58>:
     3dc:	00 00 00 82 82 44 28 10 10 28 44 82 82 00 00 00     .....D(..(D.....

000003ec <chr_f16_57>:
     3ec:	00 00 00 00 00 00 80 80 80 80 80 80 88 80 88 80     ................
     3fc:	49 00 55 00 55 00 22 00 22 00 00 00 00 00 00 00     I.U.U.".".......

0000040c <chr_f16_56>:
     40c:	00 00 00 82 82 82 82 44 44 28 28 10 10 00 00 00     .......DD((.....

0000041c <chr_f16_55>:
     41c:	00 00 00 82 82 82 82 82 82 82 82 44 38 00 00 00     ...........D8...

0000042c <chr_f16_54>:
     42c:	00 00 00 fe 10 10 10 10 10 10 10 10 10 00 00 00     ................

0000043c <chr_f16_53>:
     43c:	00 00 00 38 44 82 80 60 1c 02 82 44 38 00 00 00     ...8D..`...D8...

0000044c <chr_f16_52>:
     44c:	00 00 00 f8 84 82 82 84 f8 90 88 84 82 00 00 00     ................

0000045c <chr_f16_51>:
     45c:	00 00 00 38 44 82 82 82 82 82 82 44 38 08 06 00     ...8D......D8...

0000046c <chr_f16_50>:
     46c:	00 00 00 f8 84 82 82 82 84 f8 80 80 80 00 00 00     ................

0000047c <chr_f16_4F>:
     47c:	00 00 00 38 44 82 82 82 82 82 82 44 38 00 00 00     ...8D......D8...

0000048c <chr_f16_4E>:
     48c:	00 00 00 c2 c2 a2 a2 92 92 8a 8a 86 86 00 00 00     ................

0000049c <chr_f16_4D>:
     49c:	00 00 00 00 00 00 c1 80 c1 80 a2 80 a2 80 94 80     ................
     4ac:	94 80 88 80 88 80 80 80 80 80 00 00 00 00 00 00     ................

000004bc <chr_f16_4C>:
     4bc:	00 00 00 80 80 80 80 80 80 80 80 80 fc 00 00 00     ................

000004cc <chr_f16_4B>:
     4cc:	00 00 00 84 88 90 a0 c0 a0 90 88 84 82 00 00 00     ................

000004dc <chr_f16_4A>:
     4dc:	00 00 00 02 02 02 02 02 02 02 82 44 38 00 00 00     ...........D8...

000004ec <chr_f16_49>:
     4ec:	00 00 00 e0 40 40 40 40 40 40 40 40 e0 00 00 00     ....@@@@@@@@....

000004fc <chr_f16_48>:
     4fc:	00 00 00 84 84 84 84 fc 84 84 84 84 84 00 00 00     ................

0000050c <chr_f16_47>:
     50c:	00 00 00 3c 42 80 80 80 9c 82 82 42 3c 00 00 00     ...<B......B<...

0000051c <chr_f16_46>:
     51c:	00 00 00 fe 80 80 80 f8 80 80 80 80 80 00 00 00     ................

0000052c <chr_f16_45>:
     52c:	00 00 00 fe 80 80 80 fc 80 80 80 80 fe 00 00 00     ................

0000053c <chr_f16_44>:
     53c:	00 00 00 f8 84 82 82 82 82 82 82 84 f8 00 00 00     ................

0000054c <chr_f16_43>:
     54c:	00 00 00 3c 42 80 80 80 80 80 80 42 3c 00 00 00     ...<B......B<...

0000055c <chr_f16_42>:
     55c:	00 00 00 f8 84 82 84 f8 84 82 82 84 f8 00 00 00     ................

0000056c <chr_f16_41>:
     56c:	00 00 00 10 10 28 28 44 44 7c 82 82 82 00 00 00     .....((DD|......

0000057c <chr_f16_40>:
     57c:	00 00 00 3c 42 99 a5 a5 a5 a5 9e 40 3e 00 00 00     ...<B......@>...

0000058c <chr_f16_3F>:
     58c:	00 00 00 38 44 82 02 04 08 10 10 00 10 00 00 00     ...8D...........

0000059c <chr_f16_3E>:
     59c:	00 00 00 00 80 40 20 10 08 10 20 40 80 00 00 00     .....@ ... @....

000005ac <chr_f16_3D>:
     5ac:	00 00 00 00 00 00 00 f8 00 f8 00 00 00 00 00 00     ................

000005bc <chr_f16_3C>:
     5bc:	00 00 00 00 08 10 20 40 80 40 20 10 08 00 00 00     ...... @.@ .....

000005cc <chr_f16_3B>:
     5cc:	00 00 00 00 00 00 c0 c0 00 c0 c0 40 80 00 00 00     ...........@....

000005dc <chr_f16_3A>:
     5dc:	00 00 00 00 00 00 c0 c0 00 c0 c0 00 00 00 00 00     ................

000005ec <chr_f16_39>:
     5ec:	00 00 00 38 44 82 82 46 3a 02 02 04 78 00 00 00     ...8D..F:...x...

000005fc <chr_f16_38>:
     5fc:	00 00 00 38 44 82 44 38 44 82 82 44 38 00 00 00     ...8D.D8D..D8...

0000060c <chr_f16_37>:
     60c:	00 00 00 7e 02 02 04 04 08 08 10 10 10 00 00 00     ...~............

0000061c <chr_f16_36>:
     61c:	00 00 00 3c 40 80 80 b8 c4 82 82 44 38 00 00 00     ...<@......D8...

0000062c <chr_f16_35>:
     62c:	00 00 00 fc 80 80 80 f8 04 02 02 84 78 00 00 00     ............x...

0000063c <chr_f16_34>:
     63c:	00 00 00 04 0c 14 24 44 84 fe 04 04 04 00 00 00     ......$D........

0000064c <chr_f16_33>:
     64c:	00 00 00 78 84 02 04 38 04 02 02 84 78 00 00 00     ...x...8....x...

0000065c <chr_f16_32>:
     65c:	00 00 00 38 44 82 02 04 18 20 40 80 fe 00 00 00     ...8D.... @.....

0000066c <chr_f16_31>:
     66c:	00 00 00 10 30 50 10 10 10 10 10 10 7c 00 00 00     ....0P......|...

0000067c <chr_f16_30>:
     67c:	00 00 00 38 44 44 82 82 82 82 44 44 38 00 00 00     ...8DD....DD8...

0000068c <chr_f16_2F>:
     68c:	00 00 04 04 08 08 10 10 20 20 40 40 80 80 00 00     ........  @@....

0000069c <chr_f16_2E>:
	...
     6a4:	00 00 00 c0 c0 00 00 00                             ........

000006ac <chr_f16_2D>:
	...
     6b4:	f8 00 00 00 00 00 00 00                             ........

000006bc <chr_f16_2C>:
	...
     6c4:	00 00 00 c0 c0 40 80 00                             .....@..

000006cc <chr_f16_2B>:
     6cc:	00 00 00 00 00 00 20 20 f8 20 20 00 00 00 00 00     ......  .  .....

000006dc <chr_f16_2A>:
     6dc:	00 00 00 00 10 92 54 38 54 92 10 00 00 00 00 00     ......T8T.......

000006ec <chr_f16_29>:
     6ec:	00 c0 20 10 08 08 04 04 04 04 04 08 08 10 20 c0     .. ........... .

000006fc <chr_f16_28>:
     6fc:	00 0c 10 20 40 40 80 80 80 80 80 40 40 20 10 0c     ... @@.....@@ ..

0000070c <chr_f16_27>:
     70c:	00 00 40 40 40 80 00 00 00 00 00 00 00 00 00 00     ..@@@...........

0000071c <chr_f16_26>:
     71c:	00 00 00 20 50 88 88 50 20 52 8c 8c 73 00 00 00     ... P..P R..s...

0000072c <chr_f16_25>:
     72c:	00 00 00 61 91 92 64 08 10 26 49 89 86 00 00 00     ...a..d..&I.....

0000073c <chr_f16_24>:
     73c:	00 00 00 3c 42 40 40 70 40 70 40 40 fe 00 00 00     ...<B@@p@p@@....

0000074c <chr_f16_23>:
     74c:	00 00 00 24 24 24 ff 24 24 ff 24 24 24 00 00 00     ...$$$.$$.$$$...

0000075c <chr_f16_22>:
     75c:	00 00 a0 a0 a0 00 00 00 00 00 00 00 00 00 00 00     ................

0000076c <chr_f16_21>:
     76c:	00 00 00 40 40 40 40 40 40 40 40 00 40 00 00 00     ...@@@@@@@@.@...

0000077c <chr_f16_20>:
	...

0000078c <widtbl_f16>:
     78c:	06 03 04 09 08 09 09 03 07 07 08 06 03 06 05 07     ................
     79c:	08 08 08 08 08 08 08 08 08 08 03 03 06 06 06 08     ................
     7ac:	09 08 08 08 08 08 08 08 08 04 08 08 07 0a 08 08     ................
     7bc:	08 08 08 08 08 08 08 0a 08 08 08 04 07 04 07 09     ................
     7cc:	04 07 07 07 07 07 06 07 07 04 05 06 04 08 07 08     ................
     7dc:	07 08 06 06 05 07 08 08 06 07 07 05 03 05 08 06     ................

000007ec <font>:
     7ec:	00 00 00 00 00 3e 5b 4f 5b 3e 3e 6b 4f 6b 3e 1c     .....>[O[>>kOk>.
     7fc:	3e 7c 3e 1c 18 3c 7e 3c 18 1c 57 7d 57 1c 1c 5e     >|>..<~<..W}W..^
     80c:	7f 5e 1c 00 18 3c 18 00 ff e7 c3 e7 ff 00 18 24     .^...<.........$
     81c:	18 00 ff e7 db e7 ff 30 48 3a 06 0e 26 29 79 29     .......0H:..&)y)
     82c:	26 40 7f 05 05 07 40 7f 05 25 3f 5a 3c e7 3c 5a     &@....@..%?Z<.<Z
     83c:	7f 3e 1c 1c 08 08 1c 1c 3e 7f 14 22 7f 22 14 5f     .>......>.."."._
     84c:	5f 00 5f 5f 06 09 7f 01 7f 00 66 89 95 6a 60 60     _.__......f..j``
     85c:	60 60 60 94 a2 ff a2 94 08 04 7e 04 08 10 20 7e     ```.......~... ~
     86c:	20 10 08 08 2a 1c 08 08 1c 2a 08 08 1e 10 10 10      ...*....*......
     87c:	10 0c 1e 0c 1e 0c 30 38 3e 38 30 06 0e 3e 0e 06     ......08>80..>..
     88c:	00 00 00 00 00 00 00 5f 00 00 00 07 00 07 00 14     ......._........
     89c:	7f 14 7f 14 24 2a 7f 2a 12 23 13 08 64 62 36 49     ....$*.*.#..db6I
     8ac:	56 20 50 00 08 07 03 00 00 1c 22 41 00 00 41 22     V P......."A..A"
     8bc:	1c 00 2a 1c 7f 1c 2a 08 08 3e 08 08 00 80 70 30     ..*...*..>....p0
     8cc:	00 08 08 08 08 08 00 00 60 60 00 20 10 08 04 02     ........``. ....
     8dc:	3e 51 49 45 3e 00 42 7f 40 00 72 49 49 49 46 21     >QIE>.B.@.rIIIF!
     8ec:	41 49 4d 33 18 14 12 7f 10 27 45 45 45 39 3c 4a     AIM3.....'EEE9<J
     8fc:	49 49 31 41 21 11 09 07 36 49 49 49 36 46 49 49     II1A!...6III6FII
     90c:	29 1e 00 00 14 00 00 00 40 34 00 00 00 08 14 22     ).......@4....."
     91c:	41 14 14 14 14 14 00 41 22 14 08 02 01 59 09 06     A......A"....Y..
     92c:	3e 41 5d 59 4e 7c 12 11 12 7c 7f 49 49 49 36 3e     >A]YN|...|.III6>
     93c:	41 41 41 22 7f 41 41 41 3e 7f 49 49 49 41 7f 09     AAA".AAA>.IIIA..
     94c:	09 09 01 3e 41 41 51 73 7f 08 08 08 7f 00 41 7f     ...>AAQs......A.
     95c:	41 00 20 40 41 3f 01 7f 08 14 22 41 7f 40 40 40     A. @A?...."A.@@@
     96c:	40 7f 02 1c 02 7f 7f 04 08 10 7f 3e 41 41 41 3e     @..........>AAA>
     97c:	7f 09 09 09 06 3e 41 51 21 5e 7f 09 19 29 46 26     .....>AQ!^...)F&
     98c:	49 49 49 32 03 01 7f 01 03 3f 40 40 40 3f 1f 20     III2.....?@@@?. 
     99c:	40 20 1f 3f 40 38 40 3f 63 14 08 14 63 03 04 78     @ .?@8@?c...c..x
     9ac:	04 03 61 59 49 4d 43 00 7f 41 41 41 02 04 08 10     ..aYIMC..AAA....
     9bc:	20 00 41 41 41 7f 04 02 01 02 04 40 40 40 40 40      .AAA......@@@@@
     9cc:	00 03 07 08 00 20 54 54 78 40 7f 28 44 44 38 38     ..... TTx@.(DD88
     9dc:	44 44 44 28 38 44 44 28 7f 38 54 54 54 18 00 08     DDD(8DD(.8TTT...
     9ec:	7e 09 02 18 a4 a4 9c 78 7f 08 04 04 78 00 44 7d     ~......x....x.D}
     9fc:	40 00 20 40 40 3d 00 7f 10 28 44 00 00 41 7f 40     @. @@=...(D..A.@
     a0c:	00 7c 04 78 04 78 7c 08 04 04 78 38 44 44 44 38     .|.x.x|...x8DDD8
     a1c:	fc 18 24 24 18 18 24 24 18 fc 7c 08 04 04 08 48     ..$$..$$..|....H
     a2c:	54 54 54 24 04 04 3f 44 24 3c 40 40 20 7c 1c 20     TTT$..?D$<@@ |. 
     a3c:	40 20 1c 3c 40 30 40 3c 44 28 10 28 44 4c 90 90     @ .<@0@<D(.(DL..
     a4c:	90 7c 44 64 54 4c 44 00 08 36 41 00 00 00 77 00     .|DdTLD..6A...w.
     a5c:	00 00 41 36 08 00 02 01 02 04 02 3c 26 23 26 3c     ..A6.......<&#&<
     a6c:	1e a1 a1 61 12 3a 40 40 20 7a 38 54 54 55 59 21     ...a.:@@ z8TTUY!
     a7c:	55 55 79 41 21 54 54 78 41 21 55 54 78 40 20 54     UUyA!TTxA!UTx@ T
     a8c:	55 79 40 0c 1e 52 72 12 39 55 55 55 59 39 54 54     Uy@..Rr.9UUUY9TT
     a9c:	54 59 39 55 54 54 58 00 00 45 7c 41 00 02 45 7d     TY9UTTX..E|A..E}
     aac:	42 00 01 45 7c 40 f0 29 24 29 f0 f0 28 25 28 f0     B..E|@.)$)..(%(.
     abc:	7c 54 55 45 00 20 54 54 7c 54 7c 0a 09 7f 49 32     |TUE. TT|T|...I2
     acc:	49 49 49 32 32 48 48 48 32 32 4a 48 48 30 3a 41     III22HHH22JHH0:A
     adc:	41 21 7a 3a 42 40 20 78 00 9d a0 a0 7d 39 44 44     A!z:B@ x....}9DD
     aec:	44 39 3d 40 40 40 3d 3c 24 ff 24 24 48 7e 49 43     D9=@@@=<$.$$H~IC
     afc:	66 2b 2f fc 2f 2b ff 09 29 f6 20 c0 88 7e 09 03     f+/./+..). ..~..
     b0c:	20 54 54 79 41 00 00 44 7d 41 30 48 48 4a 32 38      TTyA..D}A0HHJ28
     b1c:	40 40 22 7a 00 7a 0a 0a 72 7d 0d 19 31 7d 26 29     @@"z.z..r}..1}&)
     b2c:	29 2f 28 26 29 29 29 26 30 48 4d 40 20 38 08 08     )/(&)))&0HM@ 8..
     b3c:	08 08 08 08 08 08 38 2f 10 c8 ac ba 2f 10 28 34     ......8/..../.(4
     b4c:	fa 00 00 7b 00 00 08 14 2a 14 22 22 14 2a 14 08     ...{....*."".*..
     b5c:	aa 00 55 00 aa aa 55 aa 55 aa 00 00 00 ff 00 10     ..U...U.U.......
     b6c:	10 10 ff 00 14 14 14 ff 00 10 10 ff 00 ff 10 10     ................
     b7c:	f0 10 f0 14 14 14 fc 00 14 14 f7 00 ff 00 00 ff     ................
     b8c:	00 ff 14 14 f4 04 fc 14 14 17 10 1f 10 10 1f 10     ................
     b9c:	1f 14 14 14 1f 00 10 10 10 f0 00 00 00 00 1f 10     ................
     bac:	10 10 10 1f 10 10 10 10 f0 10 00 00 00 ff 10 10     ................
     bbc:	10 10 10 10 10 10 10 ff 10 00 00 00 ff 14 00 00     ................
     bcc:	ff 00 ff 00 00 1f 10 17 00 00 fc 04 f4 14 14 17     ................
     bdc:	10 17 14 14 f4 04 f4 00 00 ff 00 f7 14 14 14 14     ................
     bec:	14 14 14 f7 00 f7 14 14 14 17 14 10 10 1f 10 1f     ................
     bfc:	14 14 14 f4 14 10 10 f0 10 f0 00 00 1f 10 1f 00     ................
     c0c:	00 00 1f 14 00 00 00 fc 14 00 00 f0 10 f0 10 10     ................
     c1c:	ff 10 ff 14 14 14 ff 14 10 10 10 1f 00 00 00 00     ................
     c2c:	f0 10 ff ff ff ff ff f0 f0 f0 f0 f0 ff ff ff 00     ................
     c3c:	00 00 00 00 ff ff 0f 0f 0f 0f 0f 38 44 44 38 44     ...........8DD8D
     c4c:	7c 2a 2a 3e 14 7e 02 02 06 06 02 7e 02 7e 02 63     |**>.~.....~.~.c
     c5c:	55 49 41 63 38 44 44 3c 04 40 7e 20 1e 20 06 02     UIAc8DD<.@~ . ..
     c6c:	7e 02 02 99 a5 e7 a5 99 1c 2a 49 2a 1c 4c 72 01     ~........*I*.Lr.
     c7c:	72 4c 30 4a 4d 4d 30 30 48 78 48 30 bc 62 5a 46     rL0JMM00HxH0.bZF
     c8c:	3d 3e 49 49 49 00 7e 01 01 01 7e 2a 2a 2a 2a 2a     =>III.~...~*****
     c9c:	44 44 5f 44 44 40 51 4a 44 40 40 44 4a 51 40 00     DD_DD@QJD@@DJQ@.
     cac:	00 ff 01 03 e0 80 ff 00 00 08 08 6b 6b 08 36 12     ...........kk.6.
     cbc:	36 24 36 06 0f 09 0f 06 00 00 18 18 00 00 00 10     6$6.............
     ccc:	10 00 30 40 ff 01 01 00 1f 01 01 1e 00 19 1d 17     ..0@............
     cdc:	12 00 3c 3c 3c 3c 00 00 00 00 00                    ..<<<<.....

00000ce7 <dds_table>:
     ce7:	ff ff ff ff ff ff ff ff 55 55 55 d5 aa aa aa 6a     ........UUU....j
     cf7:	aa aa aa 2a 55 55 55 15 aa aa aa 0a 44 44 44 04     ...*UUU.....DDD.
     d07:	22 22 22 02 11 11 11 01 06 3a 6d 00 03 9d 36 00     """......:m...6.
     d17:	81 4e 1b 00 33 ec 0a 00 19 76 05 00 0c bb 02 00     .N..3....v......
     d27:	9e 17 01 00 cf 8b 00 00 e7 45 00 00 f6 1b 00 00     .........E......
     d37:	fb 0d 00 00                                         ....

00000d3b <.L_powr10>:
     d3b:	00 40 7a 10 f3 5a 00 a0 72 4e 18 09 00 10 a5 d4     .@z..Z..rN......
     d4b:	e8 00 00 e8 76 48 17 00 00 e4 0b 54 02 00 00 ca     ....vH.....T....
     d5b:	9a 3b 00 00 00 e1 f5 05 00 00 80 96 98 00 00 00     .;..............
     d6b:	40 42 0f 00 00 00 a0 86 01 00 00 00 10 27 00 00     @B...........'..
     d7b:	00 00 e8 03 00 00 00 00 64 00 00 00 00 00 0a 00     ........d.......
     d8b:	00 00 00 00 01 00 00 00 00 00                       ..........

00000d95 <.L_base10>:
     d95:	2c 76 d8 88 dc 67 4f 08 23 df c1 df ae 59 e1 b1     ,v...gO.#....Y..
     da5:	b7 96 e5 e3 e4 53 c6 3a e6 51 99 76 96 e8 e6 c2     .....S.:.Q.v....
     db5:	84 26 eb 89 8c 9b 62 ed 40 7c 6f fc ef bc 9c 9f     .&....b.@|o.....
     dc5:	40 f2 ba a5 6f a5 f4 90 05 5a 2a f7 5c 93 6b 6c     @...o....Z*.\.kl
     dd5:	f9 67 6d c1 1b fc e0 e4 0d 47 fe f5 20 e6 b5 00     .gm......G.. ...
     de5:	d0 ed 90 2e 03 00 94 35 77 05 00 80 84 1e 08 00     .......5w.......
     df5:	00 20 4e 0a 00 00 00 c8 0c 33 33 33 33 0f 98 6e     . N......3333..n
     e05:	12 83 11 41 ef 8d 21 14 89 3b e6 55 16 cf fe e6     ...A..!..;.U....
     e15:	db 18 d1 84 4b 38 1b f7 7c 1d 90 1d a4 bb e4 24     ....K8..|......$
     e25:	20 32 84 72 5e 22 81 00 c9 f1 24 ec a1 e5 3d 27      2.r^"....$...='
	...

00000e36 <__init>:
     e36:	11 24       	eor	r1, r1
     e38:	1f be       	out	0x3f, r1	; 63
     e3a:	cf ef       	ldi	r28, 0xFF	; 255
     e3c:	d0 e4       	ldi	r29, 0x40	; 64
     e3e:	de bf       	out	0x3e, r29	; 62
     e40:	cd bf       	out	0x3d, r28	; 61

00000e42 <__do_copy_data>:
     e42:	14 e0       	ldi	r17, 0x04	; 4

00000e44 <.Loc.1>:
     e44:	a0 e0       	ldi	r26, 0x00	; 0

00000e46 <.Loc.2>:
     e46:	b1 e0       	ldi	r27, 0x01	; 1

00000e48 <.Loc.3>:
     e48:	ea e8       	ldi	r30, 0x8A	; 138

00000e4a <.Loc.4>:
     e4a:	f0 e7       	ldi	r31, 0x70	; 112

00000e4c <.Loc.5>:
     e4c:	00 e0       	ldi	r16, 0x00	; 0

00000e4e <.Loc.6>:
     e4e:	0b bf       	out	0x3b, r16	; 59

00000e50 <.Loc.7>:
     e50:	02 c0       	rjmp	.+4      	; 0xe56 <.L__do_copy_data_start>

00000e52 <.L__do_copy_data_loop>:
     e52:	07 90       	elpm	r0, Z+

00000e54 <.Loc.9>:
     e54:	0d 92       	st	X+, r0

00000e56 <.L__do_copy_data_start>:
     e56:	ae 39       	cpi	r26, 0x9E	; 158

00000e58 <.Loc.11>:
     e58:	b1 07       	cpc	r27, r17

00000e5a <.Loc.12>:
     e5a:	d9 f7       	brne	.-10     	; 0xe52 <.L__do_copy_data_loop>

00000e5c <__do_clear_bss>:
     e5c:	2d e1       	ldi	r18, 0x1D	; 29

00000e5e <.Loc.1>:
     e5e:	ae e9       	ldi	r26, 0x9E	; 158

00000e60 <.Loc.2>:
     e60:	b4 e0       	ldi	r27, 0x04	; 4

00000e62 <.Loc.3>:
     e62:	01 c0       	rjmp	.+2      	; 0xe66 <.Loc.5>

00000e64 <.Loc.4>:
     e64:	1d 92       	st	X+, r1

00000e66 <.Loc.5>:
     e66:	a4 3a       	cpi	r26, 0xA4	; 164

00000e68 <.Loc.6>:
     e68:	b2 07       	cpc	r27, r18

00000e6a <.Loc.7>:
     e6a:	e1 f7       	brne	.-8      	; 0xe64 <.Loc.4>

00000e6c <L0>:
     e6c:	0e 94 92 31 	call	0x6324	; 0x6324 <main>
     e70:	0c 94 2a 38 	jmp	0x7054	; 0x7054 <_exit>

00000e74 <__bad_interrupt>:
     e74:	0c 94 00 00 	jmp	0	; 0x0 <__vectors>

00000e78 <uart_init>:
     e78:	9b 01       	movw	r18, r22
     e7a:	ac 01       	movw	r20, r24
     e7c:	84 e0       	ldi	r24, 0x04	; 4

00000e7e <.L11>:
     e7e:	22 0f       	add	r18, r18
     e80:	33 1f       	adc	r19, r19
     e82:	44 1f       	adc	r20, r20
     e84:	55 1f       	adc	r21, r21
     e86:	8a 95       	dec	r24
     e88:	d1 f7       	brne	.-12     	; 0xe7e <.L11>
     e8a:	60 e0       	ldi	r22, 0x00	; 0
     e8c:	77 e8       	ldi	r23, 0x87	; 135
     e8e:	83 e9       	ldi	r24, 0x93	; 147
     e90:	93 e0       	ldi	r25, 0x03	; 3
     e92:	0e 94 f7 31 	call	0x63ee	; 0x63ee <__udivmodsi4>
     e96:	21 50       	subi	r18, 0x01	; 1
     e98:	31 09       	sbc	r19, r1
     e9a:	30 93 90 00 	sts	0x0090, r19	; 0x800090 <__TEXT_REGION_LENGTH__+0x7f8090>
     e9e:	29 b9       	out	0x09, r18	; 9
     ea0:	88 e1       	ldi	r24, 0x18	; 24
     ea2:	8a b9       	out	0x0a, r24	; 10
     ea4:	86 e0       	ldi	r24, 0x06	; 6
     ea6:	80 93 95 00 	sts	0x0095, r24	; 0x800095 <__TEXT_REGION_LENGTH__+0x7f8095>
     eaa:	08 95       	ret

00000eac <uart_tx>:
     eac:	5d 9b       	sbis	0x0b, 5	; 11
     eae:	fe cf       	rjmp	.-4      	; 0xeac <uart_tx>
     eb0:	8c b9       	out	0x0c, r24	; 12
     eb2:	08 95       	ret

00000eb4 <uart_print>:
     eb4:	cf 93       	push	r28
     eb6:	df 93       	push	r29
     eb8:	ec 01       	movw	r28, r24

00000eba <.L7>:
     eba:	88 81       	ld	r24, Y
     ebc:	81 11       	cpse	r24, r1
     ebe:	03 c0       	rjmp	.+6      	; 0xec6 <.L8>
     ec0:	df 91       	pop	r29
     ec2:	cf 91       	pop	r28
     ec4:	08 95       	ret

00000ec6 <.L8>:
     ec6:	21 96       	adiw	r28, 0x01	; 1
     ec8:	0e 94 56 07 	call	0xeac	; 0xeac <uart_tx>
     ecc:	f6 cf       	rjmp	.-20     	; 0xeba <.L7>

00000ece <uart_putc>:
     ece:	0c 94 56 07 	jmp	0xeac	; 0xeac <uart_tx>

00000ed2 <uart_print_hex16>:
     ed2:	0f 93       	push	r16
     ed4:	1f 93       	push	r17
     ed6:	cf 93       	push	r28
     ed8:	df 93       	push	r29
     eda:	cd b7       	in	r28, 0x3d	; 61
     edc:	de b7       	in	r29, 0x3e	; 62
     ede:	61 97       	sbiw	r28, 0x11	; 17
     ee0:	0f b6       	in	r0, 0x3f	; 63
     ee2:	f8 94       	cli
     ee4:	de bf       	out	0x3e, r29	; 62
     ee6:	0f be       	out	0x3f, r0	; 63
     ee8:	cd bf       	out	0x3d, r28	; 61
     eea:	8c 01       	movw	r16, r24
     eec:	81 e1       	ldi	r24, 0x11	; 17
     eee:	ee e5       	ldi	r30, 0x5E	; 94
     ef0:	f2 e0       	ldi	r31, 0x02	; 2
     ef2:	de 01       	movw	r26, r28
     ef4:	11 96       	adiw	r26, 0x01	; 1

00000ef6 <.L01>:
     ef6:	01 90       	ld	r0, Z+
     ef8:	0d 92       	st	X+, r0
     efa:	8a 95       	dec	r24
     efc:	e1 f7       	brne	.-8      	; 0xef6 <.L01>
     efe:	e1 2f       	mov	r30, r17
     f00:	e2 95       	swap	r30
     f02:	ef 70       	andi	r30, 0x0F	; 15
     f04:	f0 e0       	ldi	r31, 0x00	; 0
     f06:	ce 01       	movw	r24, r28
     f08:	01 96       	adiw	r24, 0x01	; 1
     f0a:	e8 0f       	add	r30, r24
     f0c:	f9 1f       	adc	r31, r25
     f0e:	80 81       	ld	r24, Z
     f10:	0e 94 56 07 	call	0xeac	; 0xeac <uart_tx>
     f14:	e1 2f       	mov	r30, r17
     f16:	ef 70       	andi	r30, 0x0F	; 15
     f18:	f0 e0       	ldi	r31, 0x00	; 0
     f1a:	ce 01       	movw	r24, r28
     f1c:	01 96       	adiw	r24, 0x01	; 1
     f1e:	e8 0f       	add	r30, r24
     f20:	f9 1f       	adc	r31, r25
     f22:	80 81       	ld	r24, Z
     f24:	0e 94 56 07 	call	0xeac	; 0xeac <uart_tx>
     f28:	f8 01       	movw	r30, r16
     f2a:	24 e0       	ldi	r18, 0x04	; 4

00000f2c <.L12>:
     f2c:	f6 95       	lsr	r31
     f2e:	e7 95       	ror	r30
     f30:	2a 95       	dec	r18
     f32:	e1 f7       	brne	.-8      	; 0xf2c <.L12>
     f34:	ef 70       	andi	r30, 0x0F	; 15
     f36:	f0 e0       	ldi	r31, 0x00	; 0
     f38:	ce 01       	movw	r24, r28
     f3a:	01 96       	adiw	r24, 0x01	; 1
     f3c:	e8 0f       	add	r30, r24
     f3e:	f9 1f       	adc	r31, r25
     f40:	80 81       	ld	r24, Z
     f42:	0e 94 56 07 	call	0xeac	; 0xeac <uart_tx>
     f46:	e0 2f       	mov	r30, r16
     f48:	ef 70       	andi	r30, 0x0F	; 15
     f4a:	f0 e0       	ldi	r31, 0x00	; 0
     f4c:	ce 01       	movw	r24, r28
     f4e:	01 96       	adiw	r24, 0x01	; 1
     f50:	e8 0f       	add	r30, r24
     f52:	f9 1f       	adc	r31, r25
     f54:	80 81       	ld	r24, Z
     f56:	61 96       	adiw	r28, 0x11	; 17
     f58:	0f b6       	in	r0, 0x3f	; 63
     f5a:	f8 94       	cli
     f5c:	de bf       	out	0x3e, r29	; 62
     f5e:	0f be       	out	0x3f, r0	; 63
     f60:	cd bf       	out	0x3d, r28	; 61
     f62:	df 91       	pop	r29
     f64:	cf 91       	pop	r28
     f66:	1f 91       	pop	r17
     f68:	0f 91       	pop	r16
     f6a:	0c 94 56 07 	jmp	0xeac	; 0xeac <uart_tx>

00000f6e <uart_print_int16>:
     f6e:	ff 92       	push	r15
     f70:	0f 93       	push	r16
     f72:	1f 93       	push	r17
     f74:	cf 93       	push	r28
     f76:	df 93       	push	r29
     f78:	00 d0       	rcall	.+0      	; 0xf7a <L0>

00000f7a <L0>:
     f7a:	00 d0       	rcall	.+0      	; 0xf7c <L0>

00000f7c <L0>:
     f7c:	00 d0       	rcall	.+0      	; 0xf7e <L0>

00000f7e <L0>:
     f7e:	0f 92       	push	r0
     f80:	cd b7       	in	r28, 0x3d	; 61
     f82:	de b7       	in	r29, 0x3e	; 62
     f84:	8c 01       	movw	r16, r24
     f86:	97 ff       	sbrs	r25, 7
     f88:	06 c0       	rjmp	.+12     	; 0xf96 <.L12>
     f8a:	8d e2       	ldi	r24, 0x2D	; 45
     f8c:	0e 94 56 07 	call	0xeac	; 0xeac <uart_tx>
     f90:	11 95       	neg	r17
     f92:	01 95       	neg	r16
     f94:	11 09       	sbc	r17, r1

00000f96 <.L12>:
     f96:	f1 2c       	mov	r15, r1
     f98:	2a e0       	ldi	r18, 0x0A	; 10
     f9a:	30 e0       	ldi	r19, 0x00	; 0

00000f9c <.L13>:
     f9c:	c8 01       	movw	r24, r16
     f9e:	b9 01       	movw	r22, r18
     fa0:	0e 94 e3 31 	call	0x63c6	; 0x63c6 <__divmodhi4>
     fa4:	fe 01       	movw	r30, r28
     fa6:	31 96       	adiw	r30, 0x01	; 1
     fa8:	ef 0d       	add	r30, r15
     faa:	f1 1d       	adc	r31, r1
     fac:	f3 94       	inc	r15
     fae:	80 5d       	subi	r24, 0xD0	; 208
     fb0:	80 83       	st	Z, r24
     fb2:	8b 01       	movw	r16, r22
     fb4:	67 2b       	or	r22, r23
     fb6:	91 f7       	brne	.-28     	; 0xf9c <.L13>

00000fb8 <.L14>:
     fb8:	f1 10       	cpse	r15, r1
     fba:	0c c0       	rjmp	.+24     	; 0xfd4 <.L15>
     fbc:	27 96       	adiw	r28, 0x07	; 7
     fbe:	0f b6       	in	r0, 0x3f	; 63
     fc0:	f8 94       	cli
     fc2:	de bf       	out	0x3e, r29	; 62
     fc4:	0f be       	out	0x3f, r0	; 63
     fc6:	cd bf       	out	0x3d, r28	; 61
     fc8:	df 91       	pop	r29
     fca:	cf 91       	pop	r28
     fcc:	1f 91       	pop	r17
     fce:	0f 91       	pop	r16
     fd0:	ff 90       	pop	r15
     fd2:	08 95       	ret

00000fd4 <.L15>:
     fd4:	fa 94       	dec	r15
     fd6:	fe 01       	movw	r30, r28
     fd8:	31 96       	adiw	r30, 0x01	; 1
     fda:	ef 0d       	add	r30, r15
     fdc:	f1 1d       	adc	r31, r1
     fde:	80 81       	ld	r24, Z
     fe0:	0e 94 56 07 	call	0xeac	; 0xeac <uart_tx>
     fe4:	e9 cf       	rjmp	.-46     	; 0xfb8 <.L14>

00000fe6 <uart_print_hex>:
     fe6:	1f 93       	push	r17
     fe8:	cf 93       	push	r28
     fea:	df 93       	push	r29
     fec:	cd b7       	in	r28, 0x3d	; 61
     fee:	de b7       	in	r29, 0x3e	; 62
     ff0:	61 97       	sbiw	r28, 0x11	; 17
     ff2:	0f b6       	in	r0, 0x3f	; 63
     ff4:	f8 94       	cli
     ff6:	de bf       	out	0x3e, r29	; 62
     ff8:	0f be       	out	0x3f, r0	; 63
     ffa:	cd bf       	out	0x3d, r28	; 61
     ffc:	18 2f       	mov	r17, r24
     ffe:	81 e1       	ldi	r24, 0x11	; 17
    1000:	ee e5       	ldi	r30, 0x5E	; 94
    1002:	f2 e0       	ldi	r31, 0x02	; 2
    1004:	de 01       	movw	r26, r28
    1006:	11 96       	adiw	r26, 0x01	; 1

00001008 <.L02>:
    1008:	01 90       	ld	r0, Z+
    100a:	0d 92       	st	X+, r0
    100c:	8a 95       	dec	r24
    100e:	e1 f7       	brne	.-8      	; 0x1008 <.L02>
    1010:	81 2f       	mov	r24, r17
    1012:	82 95       	swap	r24
    1014:	8f 70       	andi	r24, 0x0F	; 15
    1016:	fe 01       	movw	r30, r28
    1018:	31 96       	adiw	r30, 0x01	; 1
    101a:	e8 0f       	add	r30, r24
    101c:	f1 1d       	adc	r31, r1
    101e:	80 81       	ld	r24, Z
    1020:	0e 94 56 07 	call	0xeac	; 0xeac <uart_tx>
    1024:	1f 70       	andi	r17, 0x0F	; 15
    1026:	fe 01       	movw	r30, r28
    1028:	31 96       	adiw	r30, 0x01	; 1
    102a:	e1 0f       	add	r30, r17
    102c:	f1 1d       	adc	r31, r1
    102e:	80 81       	ld	r24, Z
    1030:	61 96       	adiw	r28, 0x11	; 17
    1032:	0f b6       	in	r0, 0x3f	; 63
    1034:	f8 94       	cli
    1036:	de bf       	out	0x3e, r29	; 62
    1038:	0f be       	out	0x3f, r0	; 63
    103a:	cd bf       	out	0x3d, r28	; 61
    103c:	df 91       	pop	r29
    103e:	cf 91       	pop	r28
    1040:	1f 91       	pop	r17
    1042:	0c 94 56 07 	jmp	0xeac	; 0xeac <uart_tx>

00001046 <uart_print_uint32>:
    1046:	df 92       	push	r13
    1048:	ef 92       	push	r14
    104a:	ff 92       	push	r15
    104c:	0f 93       	push	r16
    104e:	1f 93       	push	r17
    1050:	cf 93       	push	r28
    1052:	df 93       	push	r29
    1054:	cd b7       	in	r28, 0x3d	; 61
    1056:	de b7       	in	r29, 0x3e	; 62
    1058:	2b 97       	sbiw	r28, 0x0b	; 11
    105a:	0f b6       	in	r0, 0x3f	; 63
    105c:	f8 94       	cli
    105e:	de bf       	out	0x3e, r29	; 62
    1060:	0f be       	out	0x3f, r0	; 63
    1062:	cd bf       	out	0x3d, r28	; 61
    1064:	d6 2e       	mov	r13, r22
    1066:	e7 2e       	mov	r14, r23
    1068:	f8 2e       	mov	r15, r24
    106a:	09 2f       	mov	r16, r25
    106c:	10 e0       	ldi	r17, 0x00	; 0

0000106e <.L19>:
    106e:	6d 2d       	mov	r22, r13
    1070:	7e 2d       	mov	r23, r14
    1072:	8f 2d       	mov	r24, r15
    1074:	90 2f       	mov	r25, r16
    1076:	2a e0       	ldi	r18, 0x0A	; 10
    1078:	30 e0       	ldi	r19, 0x00	; 0
    107a:	40 e0       	ldi	r20, 0x00	; 0
    107c:	50 e0       	ldi	r21, 0x00	; 0
    107e:	0e 94 f7 31 	call	0x63ee	; 0x63ee <__udivmodsi4>
    1082:	fe 01       	movw	r30, r28
    1084:	31 96       	adiw	r30, 0x01	; 1
    1086:	e1 0f       	add	r30, r17
    1088:	f1 1d       	adc	r31, r1
    108a:	1f 5f       	subi	r17, 0xFF	; 255
    108c:	60 5d       	subi	r22, 0xD0	; 208
    108e:	60 83       	st	Z, r22
    1090:	8d 2d       	mov	r24, r13
    1092:	9e 2d       	mov	r25, r14
    1094:	af 2d       	mov	r26, r15
    1096:	b0 2f       	mov	r27, r16
    1098:	d2 2e       	mov	r13, r18
    109a:	e3 2e       	mov	r14, r19
    109c:	f4 2e       	mov	r15, r20
    109e:	05 2f       	mov	r16, r21
    10a0:	0a 97       	sbiw	r24, 0x0a	; 10
    10a2:	a1 05       	cpc	r26, r1
    10a4:	b1 05       	cpc	r27, r1
    10a6:	18 f7       	brcc	.-58     	; 0x106e <.L19>

000010a8 <.L20>:
    10a8:	11 11       	cpse	r17, r1
    10aa:	0e c0       	rjmp	.+28     	; 0x10c8 <.L21>
    10ac:	2b 96       	adiw	r28, 0x0b	; 11
    10ae:	0f b6       	in	r0, 0x3f	; 63
    10b0:	f8 94       	cli
    10b2:	de bf       	out	0x3e, r29	; 62
    10b4:	0f be       	out	0x3f, r0	; 63
    10b6:	cd bf       	out	0x3d, r28	; 61
    10b8:	df 91       	pop	r29
    10ba:	cf 91       	pop	r28
    10bc:	1f 91       	pop	r17
    10be:	0f 91       	pop	r16
    10c0:	ff 90       	pop	r15
    10c2:	ef 90       	pop	r14
    10c4:	df 90       	pop	r13
    10c6:	08 95       	ret

000010c8 <.L21>:
    10c8:	11 50       	subi	r17, 0x01	; 1
    10ca:	fe 01       	movw	r30, r28
    10cc:	31 96       	adiw	r30, 0x01	; 1
    10ce:	e1 0f       	add	r30, r17
    10d0:	f1 1d       	adc	r31, r1
    10d2:	80 81       	ld	r24, Z
    10d4:	0e 94 56 07 	call	0xeac	; 0xeac <uart_tx>
    10d8:	e7 cf       	rjmp	.-50     	; 0x10a8 <.L20>

000010da <uart_print_float>:
    10da:	cf 92       	push	r12
    10dc:	df 92       	push	r13
    10de:	ef 92       	push	r14
    10e0:	ff 92       	push	r15
    10e2:	1f 93       	push	r17
    10e4:	cf 93       	push	r28
    10e6:	df 93       	push	r29
    10e8:	00 d0       	rcall	.+0      	; 0x10ea <L0>

000010ea <L0>:
    10ea:	00 d0       	rcall	.+0      	; 0x10ec <L0>

000010ec <L0>:
    10ec:	0f 92       	push	r0
    10ee:	cd b7       	in	r28, 0x3d	; 61
    10f0:	de b7       	in	r29, 0x3e	; 62
    10f2:	6b 01       	movw	r12, r22
    10f4:	7c 01       	movw	r14, r24
    10f6:	4d 83       	std	Y+5, r20	; 0x05
    10f8:	40 e0       	ldi	r20, 0x00	; 0
    10fa:	50 e0       	ldi	r21, 0x00	; 0
    10fc:	9a 01       	movw	r18, r20
    10fe:	0e 94 14 33 	call	0x6628	; 0x6628 <__cmpsf2>
    1102:	87 ff       	sbrs	r24, 7
    1104:	07 c0       	rjmp	.+14     	; 0x1114 <.L24>
    1106:	8d e2       	ldi	r24, 0x2D	; 45
    1108:	0e 94 56 07 	call	0xeac	; 0xeac <uart_tx>
    110c:	f7 fa       	bst	r15, 7
    110e:	f0 94       	com	r15
    1110:	f7 f8       	bld	r15, 7
    1112:	f0 94       	com	r15

00001114 <.L24>:
    1114:	b6 01       	movw	r22, r12
    1116:	c7 01       	movw	r24, r14
    1118:	0e 94 92 33 	call	0x6724	; 0x6724 <__fixunssfsi>
    111c:	69 83       	std	Y+1, r22	; 0x01
    111e:	7a 83       	std	Y+2, r23	; 0x02
    1120:	8b 83       	std	Y+3, r24	; 0x03
    1122:	9c 83       	std	Y+4, r25	; 0x04
    1124:	0e 94 23 08 	call	0x1046	; 0x1046 <uart_print_uint32>
    1128:	2d 81       	ldd	r18, Y+5	; 0x05
    112a:	21 15       	cp	r18, r1
    112c:	b1 f1       	breq	.+108    	; 0x119a <.L23>
    112e:	8e e2       	ldi	r24, 0x2E	; 46
    1130:	0e 94 56 07 	call	0xeac	; 0xeac <uart_tx>
    1134:	69 81       	ldd	r22, Y+1	; 0x01
    1136:	7a 81       	ldd	r23, Y+2	; 0x02
    1138:	8b 81       	ldd	r24, Y+3	; 0x03
    113a:	9c 81       	ldd	r25, Y+4	; 0x04
    113c:	0e 94 c7 33 	call	0x678e	; 0x678e <__floatunsisf>
    1140:	9b 01       	movw	r18, r22
    1142:	ac 01       	movw	r20, r24
    1144:	b6 01       	movw	r22, r12
    1146:	c7 01       	movw	r24, r14
    1148:	0e 94 a7 32 	call	0x654e	; 0x654e <__subsf3>
    114c:	e6 2f       	mov	r30, r22
    114e:	19 82       	std	Y+1, r1	; 0x01

00001150 <.L27>:
    1150:	20 e0       	ldi	r18, 0x00	; 0
    1152:	30 e0       	ldi	r19, 0x00	; 0
    1154:	40 e2       	ldi	r20, 0x20	; 32
    1156:	51 e4       	ldi	r21, 0x41	; 65
    1158:	ce 2e       	mov	r12, r30
    115a:	d7 2e       	mov	r13, r23
    115c:	b6 01       	movw	r22, r12
    115e:	0e 94 cc 34 	call	0x6998	; 0x6998 <__mulsf3>
    1162:	6b 01       	movw	r12, r22
    1164:	7c 01       	movw	r14, r24
    1166:	0e 94 92 33 	call	0x6724	; 0x6724 <__fixunssfsi>
    116a:	16 2f       	mov	r17, r22
    116c:	80 e3       	ldi	r24, 0x30	; 48
    116e:	81 0f       	add	r24, r17
    1170:	0e 94 56 07 	call	0xeac	; 0xeac <uart_tx>
    1174:	61 2f       	mov	r22, r17
    1176:	70 e0       	ldi	r23, 0x00	; 0
    1178:	80 e0       	ldi	r24, 0x00	; 0
    117a:	90 e0       	ldi	r25, 0x00	; 0
    117c:	0e 94 c7 33 	call	0x678e	; 0x678e <__floatunsisf>
    1180:	9b 01       	movw	r18, r22
    1182:	ac 01       	movw	r20, r24
    1184:	b6 01       	movw	r22, r12
    1186:	c7 01       	movw	r24, r14
    1188:	0e 94 a7 32 	call	0x654e	; 0x654e <__subsf3>
    118c:	e6 2f       	mov	r30, r22
    118e:	39 81       	ldd	r19, Y+1	; 0x01
    1190:	3f 5f       	subi	r19, 0xFF	; 255
    1192:	39 83       	std	Y+1, r19	; 0x01
    1194:	2d 81       	ldd	r18, Y+5	; 0x05
    1196:	23 13       	cpse	r18, r19
    1198:	db cf       	rjmp	.-74     	; 0x1150 <.L27>

0000119a <.L23>:
    119a:	0f 90       	pop	r0
    119c:	0f 90       	pop	r0
    119e:	0f 90       	pop	r0
    11a0:	0f 90       	pop	r0
    11a2:	0f 90       	pop	r0
    11a4:	df 91       	pop	r29
    11a6:	cf 91       	pop	r28
    11a8:	1f 91       	pop	r17
    11aa:	ff 90       	pop	r15
    11ac:	ef 90       	pop	r14
    11ae:	df 90       	pop	r13
    11b0:	cf 90       	pop	r12
    11b2:	08 95       	ret

000011b4 <LED_Init>:
    11b4:	8a b3       	in	r24, 0x1a	; 26
    11b6:	8f 60       	ori	r24, 0x0F	; 15
    11b8:	8a bb       	out	0x1a, r24	; 26
    11ba:	8b b3       	in	r24, 0x1b	; 27
    11bc:	80 7f       	andi	r24, 0xF0	; 240
    11be:	8b bb       	out	0x1b, r24	; 27
    11c0:	08 95       	ret

000011c2 <LED_SetCH>:
    11c2:	21 e0       	ldi	r18, 0x01	; 1
    11c4:	81 30       	cpi	r24, 0x01	; 1
    11c6:	09 f4       	brne	.+2      	; 0x11ca <.L3>
    11c8:	20 e0       	ldi	r18, 0x00	; 0

000011ca <.L3>:
    11ca:	81 e0       	ldi	r24, 0x01	; 1
    11cc:	01 c0       	rjmp	.+2      	; 0x11d0 <.L21>

000011ce <.L11>:
    11ce:	88 0f       	add	r24, r24

000011d0 <.L21>:
    11d0:	2a 95       	dec	r18
    11d2:	ea f7       	brpl	.-6      	; 0x11ce <.L11>
    11d4:	9b b3       	in	r25, 0x1b	; 27
    11d6:	61 15       	cp	r22, r1
    11d8:	19 f0       	breq	.+6      	; 0x11e0 <.L4>
    11da:	89 2b       	or	r24, r25

000011dc <.L6>:
    11dc:	8b bb       	out	0x1b, r24	; 27
    11de:	08 95       	ret

000011e0 <.L4>:
    11e0:	80 95       	com	r24
    11e2:	89 23       	and	r24, r25
    11e4:	fb cf       	rjmp	.-10     	; 0x11dc <.L6>

000011e6 <LED_SetRunStop>:
    11e6:	9b b3       	in	r25, 0x1b	; 27
    11e8:	93 7f       	andi	r25, 0xF3	; 243
    11ea:	9b bb       	out	0x1b, r25	; 27
    11ec:	82 30       	cpi	r24, 0x02	; 2
    11ee:	31 f0       	breq	.+12     	; 0x11fc <.L8>
    11f0:	83 30       	cpi	r24, 0x03	; 3
    11f2:	31 f0       	breq	.+12     	; 0x1200 <.L9>
    11f4:	81 30       	cpi	r24, 0x01	; 1
    11f6:	39 f4       	brne	.+14     	; 0x1206 <.L7>
    11f8:	db 9a       	sbi	0x1b, 3	; 27
    11fa:	08 95       	ret

000011fc <.L8>:
    11fc:	da 9a       	sbi	0x1b, 2	; 27
    11fe:	08 95       	ret

00001200 <.L9>:
    1200:	8b b3       	in	r24, 0x1b	; 27
    1202:	8c 60       	ori	r24, 0x0C	; 12
    1204:	8b bb       	out	0x1b, r24	; 27

00001206 <.L7>:
    1206:	08 95       	ret

00001208 <keypad_init>:
    1208:	12 ba       	out	0x12, r1	; 18
    120a:	08 95       	ret

0000120c <keypad_poll>:
    120c:	fc 01       	movw	r30, r24
    120e:	90 b3       	in	r25, 0x10	; 16
    1210:	89 2f       	mov	r24, r25
    1212:	81 70       	andi	r24, 0x01	; 1
    1214:	90 ff       	sbrs	r25, 0
    1216:	07 c0       	rjmp	.+14     	; 0x1226 <.L2>
    1218:	21 b3       	in	r18, 0x11	; 17
    121a:	2f 71       	andi	r18, 0x1F	; 31
    121c:	20 83       	st	Z, r18
    121e:	96 95       	lsr	r25
    1220:	91 70       	andi	r25, 0x01	; 1
    1222:	fb 01       	movw	r30, r22
    1224:	90 83       	st	Z, r25

00001226 <.L2>:
    1226:	08 95       	ret

00001228 <configure_encoder>:
    1228:	82 95       	swap	r24
    122a:	80 7f       	andi	r24, 0xF0	; 240
    122c:	66 0f       	add	r22, r22
    122e:	66 0f       	add	r22, r22
    1230:	86 2b       	or	r24, r22
    1232:	84 b9       	out	0x04, r24	; 4
    1234:	54 b9       	out	0x04, r21	; 4
    1236:	44 b9       	out	0x04, r20	; 4
    1238:	08 95       	ret

0000123a <read_encoder>:
    123a:	82 95       	swap	r24
    123c:	80 7f       	andi	r24, 0xF0	; 240
    123e:	84 b9       	out	0x04, r24	; 4
    1240:	25 b1       	in	r18, 0x05	; 5
    1242:	86 b1       	in	r24, 0x06	; 6
    1244:	92 2f       	mov	r25, r18
    1246:	08 95       	ret

00001248 <update_all_encoders>:
    1248:	ee e9       	ldi	r30, 0x9E	; 158
    124a:	f4 e0       	ldi	r31, 0x04	; 4
    124c:	80 e0       	ldi	r24, 0x00	; 0

0000124e <.L10>:
    124e:	84 b9       	out	0x04, r24	; 4
    1250:	26 b1       	in	r18, 0x06	; 6
    1252:	45 b1       	in	r20, 0x05	; 5
    1254:	21 93       	st	Z+, r18
    1256:	41 93       	st	Z+, r20
    1258:	80 5f       	subi	r24, 0xF0	; 240
    125a:	80 37       	cpi	r24, 0x70	; 112
    125c:	c1 f7       	brne	.-16     	; 0x124e <.L10>
    125e:	08 95       	ret

00001260 <setup_encoder>:
    1260:	0f 93       	push	r16
    1262:	1f 93       	push	r17
    1264:	cf 93       	push	r28
    1266:	df 93       	push	r29
    1268:	00 d0       	rcall	.+0      	; 0x126a <L0>

0000126a <L0>:
    126a:	00 d0       	rcall	.+0      	; 0x126c <L0>

0000126c <L0>:
    126c:	0f 92       	push	r0
    126e:	cd b7       	in	r28, 0x3d	; 61
    1270:	de b7       	in	r29, 0x3e	; 62
    1272:	89 83       	std	Y+1, r24	; 0x01
    1274:	6a 83       	std	Y+2, r22	; 0x02
    1276:	7b 83       	std	Y+3, r23	; 0x03
    1278:	2c 83       	std	Y+4, r18	; 0x04
    127a:	3d 83       	std	Y+5, r19	; 0x05
    127c:	61 e0       	ldi	r22, 0x01	; 1
    127e:	0e 94 14 09 	call	0x1228	; 0x1228 <configure_encoder>
    1282:	4c 81       	ldd	r20, Y+4	; 0x04
    1284:	5d 81       	ldd	r21, Y+5	; 0x05
    1286:	62 e0       	ldi	r22, 0x02	; 2
    1288:	89 81       	ldd	r24, Y+1	; 0x01
    128a:	0e 94 14 09 	call	0x1228	; 0x1228 <configure_encoder>
    128e:	a8 01       	movw	r20, r16
    1290:	63 e0       	ldi	r22, 0x03	; 3
    1292:	89 81       	ldd	r24, Y+1	; 0x01
    1294:	0e 94 14 09 	call	0x1228	; 0x1228 <configure_encoder>
    1298:	4a 81       	ldd	r20, Y+2	; 0x02
    129a:	5b 81       	ldd	r21, Y+3	; 0x03
    129c:	60 e0       	ldi	r22, 0x00	; 0
    129e:	89 81       	ldd	r24, Y+1	; 0x01
    12a0:	0f 90       	pop	r0
    12a2:	0f 90       	pop	r0
    12a4:	0f 90       	pop	r0
    12a6:	0f 90       	pop	r0
    12a8:	0f 90       	pop	r0
    12aa:	df 91       	pop	r29
    12ac:	cf 91       	pop	r28
    12ae:	1f 91       	pop	r17
    12b0:	0f 91       	pop	r16
    12b2:	0c 94 14 09 	jmp	0x1228	; 0x1228 <configure_encoder>

000012b6 <swap_int16>:
    12b6:	fc 01       	movw	r30, r24
    12b8:	20 81       	ld	r18, Z
    12ba:	31 81       	ldd	r19, Z+1	; 0x01
    12bc:	fb 01       	movw	r30, r22
    12be:	40 81       	ld	r20, Z
    12c0:	51 81       	ldd	r21, Z+1	; 0x01
    12c2:	fc 01       	movw	r30, r24
    12c4:	40 83       	st	Z, r20
    12c6:	51 83       	std	Z+1, r21	; 0x01
    12c8:	fb 01       	movw	r30, r22
    12ca:	20 83       	st	Z, r18
    12cc:	31 83       	std	Z+1, r19	; 0x01
    12ce:	08 95       	ret

000012d0 <video_config>:
    12d0:	91 e0       	ldi	r25, 0x01	; 1
    12d2:	81 11       	cpse	r24, r1
    12d4:	01 c0       	rjmp	.+2      	; 0x12d8 <.L3>
    12d6:	90 e0       	ldi	r25, 0x00	; 0

000012d8 <.L3>:
    12d8:	99 0f       	add	r25, r25
    12da:	61 11       	cpse	r22, r1
    12dc:	94 60       	ori	r25, 0x04	; 4
    12de:	98 bb       	out	0x18, r25	; 24
    12e0:	08 95       	ret

000012e2 <vga_set_cursor>:
    12e2:	80 93 b8 04 	sts	0x04B8, r24	; 0x8004b8 <cursor_x>
    12e6:	90 93 b9 04 	sts	0x04B9, r25	; 0x8004b9 <cursor_x+0x1>
    12ea:	60 93 b6 04 	sts	0x04B6, r22	; 0x8004b6 <cursor_y>
    12ee:	70 93 b7 04 	sts	0x04B7, r23	; 0x8004b7 <cursor_y+0x1>
    12f2:	08 95       	ret

000012f4 <vga_setTextFont>:
    12f4:	81 11       	cpse	r24, r1
    12f6:	01 c0       	rjmp	.+2      	; 0x12fa <.L10>
    12f8:	81 e0       	ldi	r24, 0x01	; 1

000012fa <.L10>:
    12fa:	80 93 af 04 	sts	0x04AF, r24	; 0x8004af <textfont>
    12fe:	08 95       	ret

00001300 <vga_setTextSize>:
    1300:	81 11       	cpse	r24, r1
    1302:	04 c0       	rjmp	.+8      	; 0x130c <.L12>
    1304:	81 e0       	ldi	r24, 0x01	; 1

00001306 <.L13>:
    1306:	80 93 ae 04 	sts	0x04AE, r24	; 0x8004ae <textsize>
    130a:	08 95       	ret

0000130c <.L12>:
    130c:	88 30       	cpi	r24, 0x08	; 8
    130e:	d8 f3       	brcs	.-10     	; 0x1306 <.L13>
    1310:	87 e0       	ldi	r24, 0x07	; 7
    1312:	f9 cf       	rjmp	.-14     	; 0x1306 <.L13>

00001314 <vga_setTextColor>:
    1314:	80 93 c2 04 	sts	0x04C2, r24	; 0x8004c2 <textcolor>
    1318:	90 93 c3 04 	sts	0x04C3, r25	; 0x8004c3 <textcolor+0x1>
    131c:	60 93 c0 04 	sts	0x04C0, r22	; 0x8004c0 <textbgcolor>
    1320:	70 93 c1 04 	sts	0x04C1, r23	; 0x8004c1 <textbgcolor+0x1>
    1324:	08 95       	ret

00001326 <vga_pixel_fast>:
    1326:	20 e1       	ldi	r18, 0x10	; 16
    1328:	37 e2       	ldi	r19, 0x27	; 39

0000132a <.L17>:
    132a:	40 9b       	sbis	0x08, 0	; 8
    132c:	03 c0       	rjmp	.+6      	; 0x1334 <.L16>
    132e:	21 50       	subi	r18, 0x01	; 1
    1330:	30 40       	sbci	r19, 0x00	; 0
    1332:	d9 f7       	brne	.-10     	; 0x132a <.L17>

00001334 <.L16>:
    1334:	80 93 50 50 	sts	0x5050, r24	; 0x805050 <__stack+0xf51>
    1338:	93 70       	andi	r25, 0x03	; 3
    133a:	90 93 51 50 	sts	0x5051, r25	; 0x805051 <__stack+0xf52>
    133e:	60 93 52 50 	sts	0x5052, r22	; 0x805052 <__stack+0xf53>
    1342:	73 70       	andi	r23, 0x03	; 3
    1344:	70 93 53 50 	sts	0x5053, r23	; 0x805053 <__stack+0xf54>
    1348:	40 93 54 50 	sts	0x5054, r20	; 0x805054 <__stack+0xf55>
    134c:	50 93 55 50 	sts	0x5055, r21	; 0x805055 <__stack+0xf56>
    1350:	08 95       	ret

00001352 <test_fill>:
    1352:	0f 93       	push	r16
    1354:	1f 93       	push	r17
    1356:	cf 93       	push	r28
    1358:	df 93       	push	r29
    135a:	0c e2       	ldi	r16, 0x2C	; 44
    135c:	11 e0       	ldi	r17, 0x01	; 1

0000135e <.L23>:
    135e:	c4 e6       	ldi	r28, 0x64	; 100
    1360:	d0 e0       	ldi	r29, 0x00	; 0

00001362 <.L24>:
    1362:	48 ef       	ldi	r20, 0xF8	; 248
    1364:	51 e0       	ldi	r21, 0x01	; 1
    1366:	be 01       	movw	r22, r28
    1368:	c8 01       	movw	r24, r16
    136a:	0e 94 93 09 	call	0x1326	; 0x1326 <vga_pixel_fast>
    136e:	21 96       	adiw	r28, 0x01	; 1
    1370:	cc 32       	cpi	r28, 0x2C	; 44
    1372:	81 e0       	ldi	r24, 0x01	; 1
    1374:	d8 07       	cpc	r29, r24
    1376:	a9 f7       	brne	.-22     	; 0x1362 <.L24>
    1378:	0f 5f       	subi	r16, 0xFF	; 255
    137a:	1f 4f       	sbci	r17, 0xFF	; 255
    137c:	04 3f       	cpi	r16, 0xF4	; 244
    137e:	81 e0       	ldi	r24, 0x01	; 1
    1380:	18 07       	cpc	r17, r24
    1382:	69 f7       	brne	.-38     	; 0x135e <.L23>
    1384:	df 91       	pop	r29
    1386:	cf 91       	pop	r28
    1388:	1f 91       	pop	r17
    138a:	0f 91       	pop	r16
    138c:	08 95       	ret

0000138e <vga_clear_screen>:
    138e:	68 ee       	ldi	r22, 0xE8	; 232
    1390:	73 e0       	ldi	r23, 0x03	; 3
    1392:	20 e0       	ldi	r18, 0x00	; 0
    1394:	30 e0       	ldi	r19, 0x00	; 0

00001396 <.L31>:
    1396:	20 93 52 50 	sts	0x5052, r18	; 0x805052 <__stack+0xf53>
    139a:	30 93 53 50 	sts	0x5053, r19	; 0x805053 <__stack+0xf54>
    139e:	40 e0       	ldi	r20, 0x00	; 0
    13a0:	50 e0       	ldi	r21, 0x00	; 0

000013a2 <.L30>:
    13a2:	40 93 50 50 	sts	0x5050, r20	; 0x805050 <__stack+0xf51>
    13a6:	50 93 51 50 	sts	0x5051, r21	; 0x805051 <__stack+0xf52>
    13aa:	80 93 54 50 	sts	0x5054, r24	; 0x805054 <__stack+0xf55>
    13ae:	90 93 55 50 	sts	0x5055, r25	; 0x805055 <__stack+0xf56>

000013b2 <.L29>:
    13b2:	40 9b       	sbis	0x08, 0	; 8
    13b4:	03 c0       	rjmp	.+6      	; 0x13bc <.L28>
    13b6:	61 50       	subi	r22, 0x01	; 1
    13b8:	70 40       	sbci	r23, 0x00	; 0
    13ba:	d9 f7       	brne	.-10     	; 0x13b2 <.L29>

000013bc <.L28>:
    13bc:	4f 5f       	subi	r20, 0xFF	; 255
    13be:	5f 4f       	sbci	r21, 0xFF	; 255
    13c0:	40 38       	cpi	r20, 0x80	; 128
    13c2:	e2 e0       	ldi	r30, 0x02	; 2
    13c4:	5e 07       	cpc	r21, r30
    13c6:	69 f7       	brne	.-38     	; 0x13a2 <.L30>
    13c8:	2f 5f       	subi	r18, 0xFF	; 255
    13ca:	3f 4f       	sbci	r19, 0xFF	; 255
    13cc:	20 3e       	cpi	r18, 0xE0	; 224
    13ce:	41 e0       	ldi	r20, 0x01	; 1
    13d0:	34 07       	cpc	r19, r20
    13d2:	09 f7       	brne	.-62     	; 0x1396 <.L31>
    13d4:	08 95       	ret

000013d6 <vga_fillRect>:
    13d6:	0f 93       	push	r16
    13d8:	1f 93       	push	r17
    13da:	cf 93       	push	r28
    13dc:	fb 01       	movw	r30, r22
    13de:	48 0f       	add	r20, r24
    13e0:	59 1f       	adc	r21, r25
    13e2:	26 0f       	add	r18, r22
    13e4:	37 1f       	adc	r19, r23
    13e6:	a8 ee       	ldi	r26, 0xE8	; 232
    13e8:	b3 e0       	ldi	r27, 0x03	; 3

000013ea <.L39>:
    13ea:	e2 17       	cp	r30, r18
    13ec:	f3 07       	cpc	r31, r19
    13ee:	20 f0       	brcs	.+8      	; 0x13f8 <.L40>
    13f0:	cf 91       	pop	r28
    13f2:	1f 91       	pop	r17
    13f4:	0f 91       	pop	r16
    13f6:	08 95       	ret

000013f8 <.L40>:
    13f8:	40 99       	sbic	0x08, 0	; 8
    13fa:	fe cf       	rjmp	.-4      	; 0x13f8 <.L40>
    13fc:	e0 93 52 50 	sts	0x5052, r30	; 0x805052 <__stack+0xf53>
    1400:	6f 2f       	mov	r22, r31
    1402:	63 70       	andi	r22, 0x03	; 3
    1404:	60 93 53 50 	sts	0x5053, r22	; 0x805053 <__stack+0xf54>
    1408:	bc 01       	movw	r22, r24

0000140a <.L41>:
    140a:	64 17       	cp	r22, r20
    140c:	75 07       	cpc	r23, r21
    140e:	10 f0       	brcs	.+4      	; 0x1414 <.L42>
    1410:	31 96       	adiw	r30, 0x01	; 1
    1412:	eb cf       	rjmp	.-42     	; 0x13ea <.L39>

00001414 <.L42>:
    1414:	40 99       	sbic	0x08, 0	; 8
    1416:	fe cf       	rjmp	.-4      	; 0x1414 <.L42>
    1418:	60 93 50 50 	sts	0x5050, r22	; 0x805050 <__stack+0xf51>
    141c:	c7 2f       	mov	r28, r23
    141e:	c3 70       	andi	r28, 0x03	; 3
    1420:	c0 93 51 50 	sts	0x5051, r28	; 0x805051 <__stack+0xf52>
    1424:	00 93 54 50 	sts	0x5054, r16	; 0x805054 <__stack+0xf55>
    1428:	10 93 55 50 	sts	0x5055, r17	; 0x805055 <__stack+0xf56>

0000142c <.L44>:
    142c:	40 9b       	sbis	0x08, 0	; 8
    142e:	02 c0       	rjmp	.+4      	; 0x1434 <.L43>
    1430:	11 97       	sbiw	r26, 0x01	; 1
    1432:	e1 f7       	brne	.-8      	; 0x142c <.L44>

00001434 <.L43>:
    1434:	6f 5f       	subi	r22, 0xFF	; 255
    1436:	7f 4f       	sbci	r23, 0xFF	; 255
    1438:	e8 cf       	rjmp	.-48     	; 0x140a <.L41>

0000143a <vga_drawCharGL>:
    143a:	2f 92       	push	r2
    143c:	3f 92       	push	r3
    143e:	4f 92       	push	r4
    1440:	5f 92       	push	r5
    1442:	6f 92       	push	r6
    1444:	7f 92       	push	r7
    1446:	8f 92       	push	r8
    1448:	9f 92       	push	r9
    144a:	af 92       	push	r10
    144c:	bf 92       	push	r11
    144e:	cf 92       	push	r12
    1450:	df 92       	push	r13
    1452:	ef 92       	push	r14
    1454:	ff 92       	push	r15
    1456:	0f 93       	push	r16
    1458:	1f 93       	push	r17
    145a:	cf 93       	push	r28
    145c:	df 93       	push	r29
    145e:	00 d0       	rcall	.+0      	; 0x1460 <L0>

00001460 <L0>:
    1460:	00 d0       	rcall	.+0      	; 0x1462 <L0>

00001462 <L0>:
    1462:	00 d0       	rcall	.+0      	; 0x1464 <L0>

00001464 <L0>:
    1464:	0f 92       	push	r0
    1466:	cd b7       	in	r28, 0x3d	; 61
    1468:	de b7       	in	r29, 0x3e	; 62
    146a:	6b 01       	movw	r12, r22
    146c:	2a 83       	std	Y+2, r18	; 0x02
    146e:	3b 83       	std	Y+3, r19	; 0x03
    1470:	48 01       	movw	r8, r16
    1472:	5e 2c       	mov	r5, r14
    1474:	80 38       	cpi	r24, 0x80	; 128
    1476:	22 e0       	ldi	r18, 0x02	; 2
    1478:	92 07       	cpc	r25, r18
    147a:	0c f0       	brlt	.+2      	; 0x147e <L0+0x2>

0000147c <L0>:
    147c:	5b c0       	rjmp	.+182    	; 0x1534 <.L53>
    147e:	60 3e       	cpi	r22, 0xE0	; 224
    1480:	51 e0       	ldi	r21, 0x01	; 1
    1482:	75 07       	cpc	r23, r21
    1484:	0c f0       	brlt	.+2      	; 0x1488 <L0+0x2>

00001486 <L0>:
    1486:	56 c0       	rjmp	.+172    	; 0x1534 <.L53>
    1488:	9c 01       	movw	r18, r24
    148a:	e6 e0       	ldi	r30, 0x06	; 6
    148c:	ee 9e       	mul	r14, r30
    148e:	20 0d       	add	r18, r0
    1490:	31 1d       	adc	r19, r1
    1492:	11 24       	eor	r1, r1
    1494:	12 16       	cp	r1, r18
    1496:	13 06       	cpc	r1, r19
    1498:	0c f0       	brlt	.+2      	; 0x149c <L0+0x2>

0000149a <L0>:
    149a:	4c c0       	rjmp	.+152    	; 0x1534 <.L53>
    149c:	f8 e0       	ldi	r31, 0x08	; 8
    149e:	ef 9e       	mul	r14, r31
    14a0:	90 01       	movw	r18, r0
    14a2:	11 24       	eor	r1, r1
    14a4:	26 0f       	add	r18, r22
    14a6:	37 1f       	adc	r19, r23
    14a8:	12 16       	cp	r1, r18
    14aa:	13 06       	cpc	r1, r19
    14ac:	0c f0       	brlt	.+2      	; 0x14b0 <L0+0x2>

000014ae <L0>:
    14ae:	42 c0       	rjmp	.+132    	; 0x1534 <.L53>
    14b0:	8e 83       	std	Y+6, r24	; 0x06
    14b2:	9f 83       	std	Y+7, r25	; 0x07
    14b4:	25 e0       	ldi	r18, 0x05	; 5
    14b6:	42 9f       	mul	r20, r18
    14b8:	a0 01       	movw	r20, r0
    14ba:	11 24       	eor	r1, r1
    14bc:	ca 01       	movw	r24, r20
    14be:	84 51       	subi	r24, 0x14	; 20
    14c0:	98 4f       	sbci	r25, 0xF8	; 248
    14c2:	1c 01       	movw	r2, r24
    14c4:	6e 80       	ldd	r6, Y+6	; 0x06
    14c6:	7f 80       	ldd	r7, Y+7	; 0x07
    14c8:	19 82       	std	Y+1, r1	; 0x01
    14ca:	fb 01       	movw	r30, r22
    14cc:	38 96       	adiw	r30, 0x08	; 8
    14ce:	ec 83       	std	Y+4, r30	; 0x04
    14d0:	fd 83       	std	Y+5, r31	; 0x05

000014d2 <.L62>:
    14d2:	f9 81       	ldd	r31, Y+1	; 0x01
    14d4:	41 2c       	mov	r4, r1
    14d6:	f5 30       	cpi	r31, 0x05	; 5
    14d8:	11 f0       	breq	.+4      	; 0x14de <.L56>
    14da:	f1 01       	movw	r30, r2
    14dc:	44 90       	lpm	r4, Z

000014de <.L56>:
    14de:	56 01       	movw	r10, r12
    14e0:	76 01       	movw	r14, r12

000014e2 <.L61>:
    14e2:	40 fe       	sbrs	r4, 0
    14e4:	40 c0       	rjmp	.+128    	; 0x1566 <.L57>
    14e6:	f1 e0       	ldi	r31, 0x01	; 1
    14e8:	4a 81       	ldd	r20, Y+2	; 0x02
    14ea:	5b 81       	ldd	r21, Y+3	; 0x03
    14ec:	0a 81       	ldd	r16, Y+2	; 0x02
    14ee:	1b 81       	ldd	r17, Y+3	; 0x03
    14f0:	5f 12       	cpse	r5, r31
    14f2:	44 c0       	rjmp	.+136    	; 0x157c <.L67>

000014f4 <.L66>:
    14f4:	b7 01       	movw	r22, r14
    14f6:	c3 01       	movw	r24, r6
    14f8:	0e 94 93 09 	call	0x1326	; 0x1326 <vga_pixel_fast>

000014fc <.L59>:
    14fc:	46 94       	lsr	r4
    14fe:	a5 0c       	add	r10, r5
    1500:	b1 1c       	adc	r11, r1
    1502:	ef ef       	ldi	r30, 0xFF	; 255
    1504:	ee 1a       	sub	r14, r30
    1506:	fe 0a       	sbc	r15, r30
    1508:	8c 81       	ldd	r24, Y+4	; 0x04
    150a:	9d 81       	ldd	r25, Y+5	; 0x05
    150c:	8e 15       	cp	r24, r14
    150e:	9f 05       	cpc	r25, r15
    1510:	41 f7       	brne	.-48     	; 0x14e2 <.L61>
    1512:	99 81       	ldd	r25, Y+1	; 0x01
    1514:	9f 5f       	subi	r25, 0xFF	; 255
    1516:	99 83       	std	Y+1, r25	; 0x01
    1518:	ee 81       	ldd	r30, Y+6	; 0x06
    151a:	ff 81       	ldd	r31, Y+7	; 0x07
    151c:	e5 0d       	add	r30, r5
    151e:	f1 1d       	adc	r31, r1
    1520:	ee 83       	std	Y+6, r30	; 0x06
    1522:	ff 83       	std	Y+7, r31	; 0x07
    1524:	ff ef       	ldi	r31, 0xFF	; 255
    1526:	6f 1a       	sub	r6, r31
    1528:	7f 0a       	sbc	r7, r31
    152a:	2f ef       	ldi	r18, 0xFF	; 255
    152c:	22 1a       	sub	r2, r18
    152e:	32 0a       	sbc	r3, r18
    1530:	96 30       	cpi	r25, 0x06	; 6
    1532:	79 f6       	brne	.-98     	; 0x14d2 <.L62>

00001534 <.L53>:
    1534:	27 96       	adiw	r28, 0x07	; 7
    1536:	0f b6       	in	r0, 0x3f	; 63
    1538:	f8 94       	cli
    153a:	de bf       	out	0x3e, r29	; 62
    153c:	0f be       	out	0x3f, r0	; 63
    153e:	cd bf       	out	0x3d, r28	; 61
    1540:	df 91       	pop	r29
    1542:	cf 91       	pop	r28
    1544:	1f 91       	pop	r17
    1546:	0f 91       	pop	r16
    1548:	ff 90       	pop	r15
    154a:	ef 90       	pop	r14
    154c:	df 90       	pop	r13
    154e:	cf 90       	pop	r12
    1550:	bf 90       	pop	r11
    1552:	af 90       	pop	r10
    1554:	9f 90       	pop	r9
    1556:	8f 90       	pop	r8
    1558:	7f 90       	pop	r7
    155a:	6f 90       	pop	r6
    155c:	5f 90       	pop	r5
    155e:	4f 90       	pop	r4
    1560:	3f 90       	pop	r3
    1562:	2f 90       	pop	r2
    1564:	08 95       	ret

00001566 <.L57>:
    1566:	8a 81       	ldd	r24, Y+2	; 0x02
    1568:	9b 81       	ldd	r25, Y+3	; 0x03
    156a:	88 16       	cp	r8, r24
    156c:	99 06       	cpc	r9, r25
    156e:	31 f2       	breq	.-116    	; 0x14fc <.L59>
    1570:	91 e0       	ldi	r25, 0x01	; 1
    1572:	84 01       	movw	r16, r8
    1574:	59 12       	cpse	r5, r25
    1576:	02 c0       	rjmp	.+4      	; 0x157c <.L67>
    1578:	a4 01       	movw	r20, r8
    157a:	bc cf       	rjmp	.-136    	; 0x14f4 <.L66>

0000157c <.L67>:
    157c:	25 2d       	mov	r18, r5
    157e:	30 e0       	ldi	r19, 0x00	; 0
    1580:	45 2d       	mov	r20, r5
    1582:	50 e0       	ldi	r21, 0x00	; 0
    1584:	b5 01       	movw	r22, r10
    1586:	8e 81       	ldd	r24, Y+6	; 0x06
    1588:	9f 81       	ldd	r25, Y+7	; 0x07
    158a:	0e 94 eb 09 	call	0x13d6	; 0x13d6 <vga_fillRect>
    158e:	b6 cf       	rjmp	.-148    	; 0x14fc <.L59>

00001590 <vga_fillRect_fast>:
    1590:	0f 93       	push	r16
    1592:	1f 93       	push	r17
    1594:	cf 93       	push	r28
    1596:	df 93       	push	r29
    1598:	cd b7       	in	r28, 0x3d	; 61
    159a:	de b7       	in	r29, 0x3e	; 62
    159c:	2c 97       	sbiw	r28, 0x0c	; 12
    159e:	0f b6       	in	r0, 0x3f	; 63
    15a0:	f8 94       	cli
    15a2:	de bf       	out	0x3e, r29	; 62
    15a4:	0f be       	out	0x3f, r0	; 63
    15a6:	cd bf       	out	0x3d, r28	; 61
    15a8:	8b 83       	std	Y+3, r24	; 0x03
    15aa:	9c 83       	std	Y+4, r25	; 0x04
    15ac:	6d 83       	std	Y+5, r22	; 0x05
    15ae:	7e 83       	std	Y+6, r23	; 0x06
    15b0:	4f 83       	std	Y+7, r20	; 0x07
    15b2:	28 87       	std	Y+8, r18	; 0x08
    15b4:	09 87       	std	Y+9, r16	; 0x09
    15b6:	1a 87       	std	Y+10, r17	; 0x0a
    15b8:	00 e0       	ldi	r16, 0x00	; 0
    15ba:	10 e0       	ldi	r17, 0x00	; 0

000015bc <.L69>:
    15bc:	8f 81       	ldd	r24, Y+7	; 0x07
    15be:	08 17       	cp	r16, r24
    15c0:	11 05       	cpc	r17, r1
    15c2:	2c f1       	brlt	.+74     	; 0x160e <.L72>
    15c4:	2c 96       	adiw	r28, 0x0c	; 12
    15c6:	0f b6       	in	r0, 0x3f	; 63
    15c8:	f8 94       	cli
    15ca:	de bf       	out	0x3e, r29	; 62
    15cc:	0f be       	out	0x3f, r0	; 63
    15ce:	cd bf       	out	0x3d, r28	; 61
    15d0:	df 91       	pop	r29
    15d2:	cf 91       	pop	r28
    15d4:	1f 91       	pop	r17
    15d6:	0f 91       	pop	r16
    15d8:	08 95       	ret

000015da <.L70>:
    15da:	6d 81       	ldd	r22, Y+5	; 0x05
    15dc:	7e 81       	ldd	r23, Y+6	; 0x06
    15de:	8b 85       	ldd	r24, Y+11	; 0x0b
    15e0:	9c 85       	ldd	r25, Y+12	; 0x0c
    15e2:	68 0f       	add	r22, r24
    15e4:	79 1f       	adc	r23, r25
    15e6:	49 85       	ldd	r20, Y+9	; 0x09
    15e8:	5a 85       	ldd	r21, Y+10	; 0x0a
    15ea:	89 81       	ldd	r24, Y+1	; 0x01
    15ec:	9a 81       	ldd	r25, Y+2	; 0x02
    15ee:	0e 94 93 09 	call	0x1326	; 0x1326 <vga_pixel_fast>
    15f2:	8b 85       	ldd	r24, Y+11	; 0x0b
    15f4:	9c 85       	ldd	r25, Y+12	; 0x0c
    15f6:	01 96       	adiw	r24, 0x01	; 1
    15f8:	8b 87       	std	Y+11, r24	; 0x0b
    15fa:	9c 87       	std	Y+12, r25	; 0x0c

000015fc <.L71>:
    15fc:	8b 85       	ldd	r24, Y+11	; 0x0b
    15fe:	9c 85       	ldd	r25, Y+12	; 0x0c
    1600:	28 85       	ldd	r18, Y+8	; 0x08
    1602:	82 17       	cp	r24, r18
    1604:	91 05       	cpc	r25, r1
    1606:	4c f3       	brlt	.-46     	; 0x15da <.L70>
    1608:	0f 5f       	subi	r16, 0xFF	; 255
    160a:	1f 4f       	sbci	r17, 0xFF	; 255
    160c:	d7 cf       	rjmp	.-82     	; 0x15bc <.L69>

0000160e <.L72>:
    160e:	1b 86       	std	Y+11, r1	; 0x0b
    1610:	1c 86       	std	Y+12, r1	; 0x0c
    1612:	8b 81       	ldd	r24, Y+3	; 0x03
    1614:	9c 81       	ldd	r25, Y+4	; 0x04
    1616:	80 0f       	add	r24, r16
    1618:	91 1f       	adc	r25, r17
    161a:	89 83       	std	Y+1, r24	; 0x01
    161c:	9a 83       	std	Y+2, r25	; 0x02
    161e:	ee cf       	rjmp	.-36     	; 0x15fc <.L71>

00001620 <vga_drawChar>:
    1620:	2f 92       	push	r2
    1622:	3f 92       	push	r3
    1624:	4f 92       	push	r4
    1626:	5f 92       	push	r5
    1628:	6f 92       	push	r6
    162a:	7f 92       	push	r7
    162c:	8f 92       	push	r8
    162e:	9f 92       	push	r9
    1630:	af 92       	push	r10
    1632:	bf 92       	push	r11
    1634:	cf 92       	push	r12
    1636:	df 92       	push	r13
    1638:	ef 92       	push	r14
    163a:	ff 92       	push	r15
    163c:	0f 93       	push	r16
    163e:	1f 93       	push	r17
    1640:	cf 93       	push	r28
    1642:	df 93       	push	r29
    1644:	cd b7       	in	r28, 0x3d	; 61
    1646:	de b7       	in	r29, 0x3e	; 62
    1648:	2a 97       	sbiw	r28, 0x0a	; 10
    164a:	0f b6       	in	r0, 0x3f	; 63
    164c:	f8 94       	cli
    164e:	de bf       	out	0x3e, r29	; 62
    1650:	0f be       	out	0x3f, r0	; 63
    1652:	cd bf       	out	0x3d, r28	; 61
    1654:	3b 01       	movw	r6, r22
    1656:	6a 01       	movw	r12, r20
    1658:	21 30       	cpi	r18, 0x01	; 1
    165a:	31 05       	cpc	r19, r1
    165c:	71 f5       	brne	.+92     	; 0x16ba <.L74>
    165e:	00 91 c0 04 	lds	r16, 0x04C0	; 0x8004c0 <textbgcolor>
    1662:	10 91 c1 04 	lds	r17, 0x04C1	; 0x8004c1 <textbgcolor+0x1>
    1666:	20 91 c2 04 	lds	r18, 0x04C2	; 0x8004c2 <textcolor>
    166a:	30 91 c3 04 	lds	r19, 0x04C3	; 0x8004c3 <textcolor+0x1>
    166e:	e0 90 ae 04 	lds	r14, 0x04AE	; 0x8004ae <textsize>
    1672:	48 2f       	mov	r20, r24
    1674:	b6 01       	movw	r22, r12
    1676:	c3 01       	movw	r24, r6
    1678:	0e 94 1d 0a 	call	0x143a	; 0x143a <vga_drawCharGL>
    167c:	80 91 ae 04 	lds	r24, 0x04AE	; 0x8004ae <textsize>
    1680:	16 e0       	ldi	r17, 0x06	; 6
    1682:	81 9f       	mul	r24, r17
    1684:	c0 01       	movw	r24, r0
    1686:	11 24       	eor	r1, r1

00001688 <.L73>:
    1688:	2a 96       	adiw	r28, 0x0a	; 10
    168a:	0f b6       	in	r0, 0x3f	; 63
    168c:	f8 94       	cli
    168e:	de bf       	out	0x3e, r29	; 62
    1690:	0f be       	out	0x3f, r0	; 63
    1692:	cd bf       	out	0x3d, r28	; 61
    1694:	df 91       	pop	r29
    1696:	cf 91       	pop	r28
    1698:	1f 91       	pop	r17
    169a:	0f 91       	pop	r16
    169c:	ff 90       	pop	r15
    169e:	ef 90       	pop	r14
    16a0:	df 90       	pop	r13
    16a2:	cf 90       	pop	r12
    16a4:	bf 90       	pop	r11
    16a6:	af 90       	pop	r10
    16a8:	9f 90       	pop	r9
    16aa:	8f 90       	pop	r8
    16ac:	7f 90       	pop	r7
    16ae:	6f 90       	pop	r6
    16b0:	5f 90       	pop	r5
    16b2:	4f 90       	pop	r4
    16b4:	3f 90       	pop	r3
    16b6:	2f 90       	pop	r2
    16b8:	08 95       	ret

000016ba <.L74>:
    16ba:	80 32       	cpi	r24, 0x20	; 32
    16bc:	91 05       	cpc	r25, r1
    16be:	08 f4       	brcc	.+2      	; 0x16c2 <L0+0x2>

000016c0 <L0>:
    16c0:	31 c1       	rjmp	.+610    	; 0x1924 <.L100>
    16c2:	22 30       	cpi	r18, 0x02	; 2
    16c4:	31 05       	cpc	r19, r1
    16c6:	09 f0       	breq	.+2      	; 0x16ca <L0+0x2>

000016c8 <L0>:
    16c8:	47 c0       	rjmp	.+142    	; 0x1758 <.L101>
    16ca:	9c 01       	movw	r18, r24
    16cc:	20 52       	subi	r18, 0x20	; 32
    16ce:	31 09       	sbc	r19, r1
    16d0:	f9 01       	movw	r30, r18
    16d2:	ee 0f       	add	r30, r30
    16d4:	ff 1f       	adc	r31, r31
    16d6:	e4 57       	subi	r30, 0x74	; 116
    16d8:	ff 4f       	sbci	r31, 0xFF	; 255
    16da:	85 91       	lpm	r24, Z+
    16dc:	95 91       	lpm	r25, Z+
    16de:	24 57       	subi	r18, 0x74	; 116
    16e0:	38 4f       	sbci	r19, 0xF8	; 248
    16e2:	f9 01       	movw	r30, r18
    16e4:	24 91       	lpm	r18, Z
    16e6:	a2 2e       	mov	r10, r18
    16e8:	b1 2c       	mov	r11, r1
    16ea:	20 e1       	ldi	r18, 0x10	; 16
    16ec:	29 83       	std	Y+1, r18	; 0x01
    16ee:	1a 82       	std	Y+2, r1	; 0x02

000016f0 <.L76>:
    16f0:	25 01       	movw	r4, r10
    16f2:	37 e0       	ldi	r19, 0x07	; 7
    16f4:	43 0e       	add	r4, r19
    16f6:	51 1c       	adc	r5, r1
    16f8:	33 e0       	ldi	r19, 0x03	; 3

000016fa <.L11>:
    16fa:	55 94       	asr	r5
    16fc:	47 94       	ror	r4
    16fe:	3a 95       	dec	r19
    1700:	e1 f7       	brne	.-8      	; 0x16fa <.L11>
    1702:	40 91 c2 04 	lds	r20, 0x04C2	; 0x8004c2 <textcolor>
    1706:	50 91 c3 04 	lds	r21, 0x04C3	; 0x8004c3 <textcolor+0x1>
    170a:	20 91 c0 04 	lds	r18, 0x04C0	; 0x8004c0 <textbgcolor>
    170e:	30 91 c1 04 	lds	r19, 0x04C1	; 0x8004c1 <textbgcolor+0x1>
    1712:	42 17       	cp	r20, r18
    1714:	53 07       	cpc	r21, r19
    1716:	39 f1       	breq	.+78     	; 0x1766 <.L77>
    1718:	20 91 ae 04 	lds	r18, 0x04AE	; 0x8004ae <textsize>
    171c:	21 30       	cpi	r18, 0x01	; 1
    171e:	19 f5       	brne	.+70     	; 0x1766 <.L77>
    1720:	a6 01       	movw	r20, r12
    1722:	e9 80       	ldd	r14, Y+1	; 0x01
    1724:	fa 80       	ldd	r15, Y+2	; 0x02
    1726:	ec 0c       	add	r14, r12
    1728:	fd 1c       	adc	r15, r13

0000172a <.L78>:
    172a:	e4 16       	cp	r14, r20
    172c:	f5 06       	cpc	r15, r21
    172e:	19 f1       	breq	.+70     	; 0x1776 <.L99>
    1730:	25 2f       	mov	r18, r21

00001732 <.L89>:
    1732:	40 99       	sbic	0x08, 0	; 8
    1734:	fe cf       	rjmp	.-4      	; 0x1732 <.L89>
    1736:	40 93 52 50 	sts	0x5052, r20	; 0x805052 <__stack+0xf53>
    173a:	23 70       	andi	r18, 0x03	; 3
    173c:	20 93 53 50 	sts	0x5053, r18	; 0x805053 <__stack+0xf54>
    1740:	60 e0       	ldi	r22, 0x00	; 0
    1742:	70 e0       	ldi	r23, 0x00	; 0
    1744:	db 01       	movw	r26, r22

00001746 <.L90>:
    1746:	4a 16       	cp	r4, r26
    1748:	5b 06       	cpc	r5, r27
    174a:	09 f0       	breq	.+2      	; 0x174e <L0+0x2>

0000174c <L0>:
    174c:	a7 c0       	rjmp	.+334    	; 0x189c <.L97>
    174e:	4f 5f       	subi	r20, 0xFF	; 255
    1750:	5f 4f       	sbci	r21, 0xFF	; 255
    1752:	84 0d       	add	r24, r4
    1754:	95 1d       	adc	r25, r5
    1756:	e9 cf       	rjmp	.-46     	; 0x172a <.L78>

00001758 <.L101>:
    1758:	a0 e0       	ldi	r26, 0x00	; 0
    175a:	b0 e0       	ldi	r27, 0x00	; 0
    175c:	cd 01       	movw	r24, r26
    175e:	19 82       	std	Y+1, r1	; 0x01
    1760:	1a 82       	std	Y+2, r1	; 0x02
    1762:	5c 01       	movw	r10, r24
    1764:	c5 cf       	rjmp	.-118    	; 0x16f0 <.L76>

00001766 <.L77>:
    1766:	1c 01       	movw	r2, r24
    1768:	81 2c       	mov	r8, r1
    176a:	91 2c       	mov	r9, r1

0000176c <.L79>:
    176c:	89 81       	ldd	r24, Y+1	; 0x01
    176e:	9a 81       	ldd	r25, Y+2	; 0x02
    1770:	88 16       	cp	r8, r24
    1772:	99 06       	cpc	r9, r25
    1774:	41 f4       	brne	.+16     	; 0x1786 <.L88>

00001776 <.L99>:
    1776:	20 91 ae 04 	lds	r18, 0x04AE	; 0x8004ae <textsize>
    177a:	2a 9d       	mul	r18, r10
    177c:	c0 01       	movw	r24, r0
    177e:	2b 9d       	mul	r18, r11
    1780:	90 0d       	add	r25, r0
    1782:	11 24       	eor	r1, r1
    1784:	81 cf       	rjmp	.-254    	; 0x1688 <.L73>

00001786 <.L88>:
    1786:	00 91 c0 04 	lds	r16, 0x04C0	; 0x8004c0 <textbgcolor>
    178a:	10 91 c1 04 	lds	r17, 0x04C1	; 0x8004c1 <textbgcolor+0x1>
    178e:	80 91 c2 04 	lds	r24, 0x04C2	; 0x8004c2 <textcolor>
    1792:	90 91 c3 04 	lds	r25, 0x04C3	; 0x8004c3 <textcolor+0x1>
    1796:	80 17       	cp	r24, r16
    1798:	91 07       	cpc	r25, r17
    179a:	99 f0       	breq	.+38     	; 0x17c2 <.L80>
    179c:	70 91 ae 04 	lds	r23, 0x04AE	; 0x8004ae <textsize>
    17a0:	27 2f       	mov	r18, r23
    17a2:	30 e0       	ldi	r19, 0x00	; 0
    17a4:	7a 9d       	mul	r23, r10
    17a6:	a0 01       	movw	r20, r0
    17a8:	7b 9d       	mul	r23, r11
    17aa:	50 0d       	add	r21, r0
    17ac:	11 24       	eor	r1, r1
    17ae:	68 2d       	mov	r22, r8
    17b0:	67 03       	mulsu	r22, r23
    17b2:	c0 01       	movw	r24, r0
    17b4:	11 24       	eor	r1, r1
    17b6:	bc 01       	movw	r22, r24
    17b8:	6c 0d       	add	r22, r12
    17ba:	7d 1d       	adc	r23, r13
    17bc:	c3 01       	movw	r24, r6
    17be:	0e 94 eb 09 	call	0x13d6	; 0x13d6 <vga_fillRect>

000017c2 <.L80>:
    17c2:	e1 2c       	mov	r14, r1
    17c4:	f1 2c       	mov	r15, r1
    17c6:	c4 01       	movw	r24, r8
    17c8:	8c 0d       	add	r24, r12
    17ca:	9d 1d       	adc	r25, r13
    17cc:	8f 83       	std	Y+7, r24	; 0x07
    17ce:	98 87       	std	Y+8, r25	; 0x08

000017d0 <.L81>:
    17d0:	4e 14       	cp	r4, r14
    17d2:	5f 04       	cpc	r5, r15
    17d4:	31 f4       	brne	.+12     	; 0x17e2 <.L87>
    17d6:	3f ef       	ldi	r19, 0xFF	; 255
    17d8:	83 1a       	sub	r8, r19
    17da:	93 0a       	sbc	r9, r19
    17dc:	24 0c       	add	r2, r4
    17de:	35 1c       	adc	r3, r5
    17e0:	c5 cf       	rjmp	.-118    	; 0x176c <.L79>

000017e2 <.L87>:
    17e2:	f7 01       	movw	r30, r14
    17e4:	e2 0d       	add	r30, r2
    17e6:	f3 1d       	adc	r31, r3
    17e8:	e4 91       	lpm	r30, Z
    17ea:	e1 11       	cpse	r30, r1
    17ec:	04 c0       	rjmp	.+8      	; 0x17f6 <.L82>

000017ee <.L86>:
    17ee:	8f ef       	ldi	r24, 0xFF	; 255
    17f0:	e8 1a       	sub	r14, r24
    17f2:	f8 0a       	sbc	r15, r24
    17f4:	ed cf       	rjmp	.-38     	; 0x17d0 <.L81>

000017f6 <.L82>:
    17f6:	20 91 ae 04 	lds	r18, 0x04AE	; 0x8004ae <textsize>
    17fa:	1e 2d       	mov	r17, r14
    17fc:	12 03       	mulsu	r17, r18
    17fe:	c0 01       	movw	r24, r0
    1800:	11 24       	eor	r1, r1
    1802:	23 e0       	ldi	r18, 0x03	; 3

00001804 <.L12>:
    1804:	88 0f       	add	r24, r24
    1806:	99 1f       	adc	r25, r25
    1808:	2a 95       	dec	r18
    180a:	e1 f7       	brne	.-8      	; 0x1804 <.L12>
    180c:	9c 01       	movw	r18, r24
    180e:	26 0d       	add	r18, r6
    1810:	37 1d       	adc	r19, r7
    1812:	2b 83       	std	Y+3, r18	; 0x03
    1814:	3c 83       	std	Y+4, r19	; 0x04
    1816:	19 86       	std	Y+9, r1	; 0x09
    1818:	1a 86       	std	Y+10, r1	; 0x0a
    181a:	ed 83       	std	Y+5, r30	; 0x05
    181c:	1e 82       	std	Y+6, r1	; 0x06

0000181e <.L85>:
    181e:	80 e8       	ldi	r24, 0x80	; 128
    1820:	90 e0       	ldi	r25, 0x00	; 0
    1822:	09 84       	ldd	r0, Y+9	; 0x09
    1824:	02 c0       	rjmp	.+4      	; 0x182a <.L21>

00001826 <.L13>:
    1826:	95 95       	asr	r25
    1828:	87 95       	ror	r24

0000182a <.L21>:
    182a:	0a 94       	dec	r0
    182c:	e2 f7       	brpl	.-8      	; 0x1826 <.L13>
    182e:	ed 81       	ldd	r30, Y+5	; 0x05
    1830:	fe 81       	ldd	r31, Y+6	; 0x06
    1832:	8e 23       	and	r24, r30
    1834:	9f 23       	and	r25, r31
    1836:	89 2b       	or	r24, r25
    1838:	99 f0       	breq	.+38     	; 0x1860 <.L83>
    183a:	20 91 ae 04 	lds	r18, 0x04AE	; 0x8004ae <textsize>
    183e:	00 91 c2 04 	lds	r16, 0x04C2	; 0x8004c2 <textcolor>
    1842:	10 91 c3 04 	lds	r17, 0x04C3	; 0x8004c3 <textcolor+0x1>
    1846:	21 30       	cpi	r18, 0x01	; 1
    1848:	a9 f4       	brne	.+42     	; 0x1874 <.L84>
    184a:	a8 01       	movw	r20, r16
    184c:	6f 81       	ldd	r22, Y+7	; 0x07
    184e:	78 85       	ldd	r23, Y+8	; 0x08
    1850:	8b 81       	ldd	r24, Y+3	; 0x03
    1852:	9c 81       	ldd	r25, Y+4	; 0x04
    1854:	29 85       	ldd	r18, Y+9	; 0x09
    1856:	3a 85       	ldd	r19, Y+10	; 0x0a
    1858:	82 0f       	add	r24, r18
    185a:	93 1f       	adc	r25, r19
    185c:	0e 94 93 09 	call	0x1326	; 0x1326 <vga_pixel_fast>

00001860 <.L83>:
    1860:	29 85       	ldd	r18, Y+9	; 0x09
    1862:	3a 85       	ldd	r19, Y+10	; 0x0a
    1864:	2f 5f       	subi	r18, 0xFF	; 255
    1866:	3f 4f       	sbci	r19, 0xFF	; 255
    1868:	29 87       	std	Y+9, r18	; 0x09
    186a:	3a 87       	std	Y+10, r19	; 0x0a
    186c:	28 30       	cpi	r18, 0x08	; 8
    186e:	31 05       	cpc	r19, r1
    1870:	b1 f6       	brne	.-84     	; 0x181e <.L85>
    1872:	bd cf       	rjmp	.-134    	; 0x17ee <.L86>

00001874 <.L84>:
    1874:	42 2f       	mov	r20, r18
    1876:	50 e0       	ldi	r21, 0x00	; 0
    1878:	38 2d       	mov	r19, r8
    187a:	32 03       	mulsu	r19, r18
    187c:	b0 01       	movw	r22, r0
    187e:	11 24       	eor	r1, r1
    1880:	6c 0d       	add	r22, r12
    1882:	7d 1d       	adc	r23, r13
    1884:	39 85       	ldd	r19, Y+9	; 0x09
    1886:	32 03       	mulsu	r19, r18
    1888:	c0 01       	movw	r24, r0
    188a:	11 24       	eor	r1, r1
    188c:	9a 01       	movw	r18, r20
    188e:	eb 81       	ldd	r30, Y+3	; 0x03
    1890:	fc 81       	ldd	r31, Y+4	; 0x04
    1892:	8e 0f       	add	r24, r30
    1894:	9f 1f       	adc	r25, r31
    1896:	0e 94 eb 09 	call	0x13d6	; 0x13d6 <vga_fillRect>
    189a:	e2 cf       	rjmp	.-60     	; 0x1860 <.L83>

0000189c <.L97>:
    189c:	fd 01       	movw	r30, r26
    189e:	e8 0f       	add	r30, r24
    18a0:	f9 1f       	adc	r31, r25
    18a2:	e4 91       	lpm	r30, Z
    18a4:	20 e0       	ldi	r18, 0x00	; 0
    18a6:	30 e0       	ldi	r19, 0x00	; 0
    18a8:	63 01       	movw	r12, r6
    18aa:	c6 0e       	add	r12, r22
    18ac:	d7 1e       	adc	r13, r23
    18ae:	f0 e0       	ldi	r31, 0x00	; 0
    18b0:	96 2e       	mov	r9, r22
    18b2:	96 0c       	add	r9, r6

000018b4 <.L95>:
    18b4:	8b 01       	movw	r16, r22
    18b6:	02 0f       	add	r16, r18
    18b8:	13 1f       	adc	r17, r19
    18ba:	0a 15       	cp	r16, r10
    18bc:	1b 05       	cpc	r17, r11
    18be:	24 f0       	brlt	.+8      	; 0x18c8 <.L91>

000018c0 <.L96>:
    18c0:	11 96       	adiw	r26, 0x01	; 1
    18c2:	68 5f       	subi	r22, 0xF8	; 248
    18c4:	7f 4f       	sbci	r23, 0xFF	; 255
    18c6:	3f cf       	rjmp	.-386    	; 0x1746 <.L90>

000018c8 <.L91>:
    18c8:	16 01       	movw	r2, r12
    18ca:	22 0e       	add	r2, r18
    18cc:	33 1e       	adc	r3, r19
    18ce:	00 e8       	ldi	r16, 0x80	; 128
    18d0:	10 e0       	ldi	r17, 0x00	; 0
    18d2:	02 2e       	mov	r0, r18
    18d4:	02 c0       	rjmp	.+4      	; 0x18da <.L22>

000018d6 <.L14>:
    18d6:	15 95       	asr	r17
    18d8:	07 95       	ror	r16

000018da <.L22>:
    18da:	0a 94       	dec	r0
    18dc:	e2 f7       	brpl	.-8      	; 0x18d6 <.L14>
    18de:	0e 23       	and	r16, r30
    18e0:	1f 23       	and	r17, r31
    18e2:	01 2b       	or	r16, r17
    18e4:	d1 f0       	breq	.+52     	; 0x191a <.L92>
    18e6:	00 91 c2 04 	lds	r16, 0x04C2	; 0x8004c2 <textcolor>
    18ea:	10 91 c3 04 	lds	r17, 0x04C3	; 0x8004c3 <textcolor+0x1>

000018ee <.L109>:
    18ee:	19 83       	std	Y+1, r17	; 0x01

000018f0 <.L94>:
    18f0:	40 99       	sbic	0x08, 0	; 8
    18f2:	fe cf       	rjmp	.-4      	; 0x18f0 <.L94>
    18f4:	89 2c       	mov	r8, r9
    18f6:	82 0e       	add	r8, r18
    18f8:	80 92 50 50 	sts	0x5050, r8	; 0x805050 <__stack+0xf51>
    18fc:	13 2d       	mov	r17, r3
    18fe:	13 70       	andi	r17, 0x03	; 3
    1900:	10 93 51 50 	sts	0x5051, r17	; 0x805051 <__stack+0xf52>
    1904:	00 93 54 50 	sts	0x5054, r16	; 0x805054 <__stack+0xf55>
    1908:	19 81       	ldd	r17, Y+1	; 0x01
    190a:	10 93 55 50 	sts	0x5055, r17	; 0x805055 <__stack+0xf56>
    190e:	2f 5f       	subi	r18, 0xFF	; 255
    1910:	3f 4f       	sbci	r19, 0xFF	; 255
    1912:	28 30       	cpi	r18, 0x08	; 8
    1914:	31 05       	cpc	r19, r1
    1916:	71 f6       	brne	.-100    	; 0x18b4 <.L95>
    1918:	d3 cf       	rjmp	.-90     	; 0x18c0 <.L96>

0000191a <.L92>:
    191a:	00 91 c0 04 	lds	r16, 0x04C0	; 0x8004c0 <textbgcolor>
    191e:	10 91 c1 04 	lds	r17, 0x04C1	; 0x8004c1 <textbgcolor+0x1>
    1922:	e5 cf       	rjmp	.-54     	; 0x18ee <.L109>

00001924 <.L100>:
    1924:	80 e0       	ldi	r24, 0x00	; 0
    1926:	90 e0       	ldi	r25, 0x00	; 0
    1928:	af ce       	rjmp	.-674    	; 0x1688 <.L73>

0000192a <vga_printAt>:
    192a:	ef 92       	push	r14
    192c:	ff 92       	push	r15
    192e:	0f 93       	push	r16
    1930:	1f 93       	push	r17
    1932:	cf 93       	push	r28
    1934:	df 93       	push	r29
    1936:	00 d0       	rcall	.+0      	; 0x1938 <L0>

00001938 <L0>:
    1938:	00 d0       	rcall	.+0      	; 0x193a <L0>

0000193a <L0>:
    193a:	cd b7       	in	r28, 0x3d	; 61
    193c:	de b7       	in	r29, 0x3e	; 62
    193e:	6b 83       	std	Y+3, r22	; 0x03
    1940:	7c 83       	std	Y+4, r23	; 0x04
    1942:	49 83       	std	Y+1, r20	; 0x01
    1944:	5a 83       	std	Y+2, r21	; 0x02
    1946:	20 93 c2 04 	sts	0x04C2, r18	; 0x8004c2 <textcolor>
    194a:	30 93 c3 04 	sts	0x04C3, r19	; 0x8004c3 <textcolor+0x1>
    194e:	00 93 c0 04 	sts	0x04C0, r16	; 0x8004c0 <textbgcolor>
    1952:	10 93 c1 04 	sts	0x04C1, r17	; 0x8004c1 <textbgcolor+0x1>
    1956:	8c 01       	movw	r16, r24
    1958:	f1 2c       	mov	r15, r1

0000195a <.L111>:
    195a:	f8 01       	movw	r30, r16
    195c:	80 81       	ld	r24, Z
    195e:	81 15       	cp	r24, r1
    1960:	c9 f0       	breq	.+50     	; 0x1994 <.L110>
    1962:	0f 5f       	subi	r16, 0xFF	; 255
    1964:	1f 4f       	sbci	r17, 0xFF	; 255
    1966:	97 01       	movw	r18, r14
    1968:	49 81       	ldd	r20, Y+1	; 0x01
    196a:	5a 81       	ldd	r21, Y+2	; 0x02
    196c:	6b 81       	ldd	r22, Y+3	; 0x03
    196e:	7c 81       	ldd	r23, Y+4	; 0x04
    1970:	90 e0       	ldi	r25, 0x00	; 0
    1972:	0e 94 10 0b 	call	0x1620	; 0x1620 <vga_drawChar>
    1976:	00 97       	sbiw	r24, 0x00	; 0
    1978:	21 f4       	brne	.+8      	; 0x1982 <.L112>
    197a:	f8 01       	movw	r30, r16
    197c:	22 91       	ld	r18, -Z
    197e:	20 32       	cpi	r18, 0x20	; 32
    1980:	61 f7       	brne	.-40     	; 0x195a <.L111>

00001982 <.L112>:
    1982:	2b 81       	ldd	r18, Y+3	; 0x03
    1984:	3c 81       	ldd	r19, Y+4	; 0x04
    1986:	28 0f       	add	r18, r24
    1988:	39 1f       	adc	r19, r25
    198a:	2b 83       	std	Y+3, r18	; 0x03
    198c:	3c 83       	std	Y+4, r19	; 0x04
    198e:	2c 37       	cpi	r18, 0x7C	; 124
    1990:	32 40       	sbci	r19, 0x02	; 2
    1992:	1c f3       	brlt	.-58     	; 0x195a <.L111>

00001994 <.L110>:
    1994:	0f 90       	pop	r0
    1996:	0f 90       	pop	r0
    1998:	0f 90       	pop	r0
    199a:	0f 90       	pop	r0
    199c:	df 91       	pop	r29
    199e:	cf 91       	pop	r28
    19a0:	1f 91       	pop	r17
    19a2:	0f 91       	pop	r16
    19a4:	ff 90       	pop	r15
    19a6:	ef 90       	pop	r14
    19a8:	08 95       	ret

000019aa <vga_drawFastHLine>:
    19aa:	fc 01       	movw	r30, r24
    19ac:	da 01       	movw	r26, r20
    19ae:	57 ff       	sbrs	r21, 7
    19b0:	05 c0       	rjmp	.+10     	; 0x19bc <.L118>
    19b2:	e4 0f       	add	r30, r20
    19b4:	f5 1f       	adc	r31, r21
    19b6:	b1 95       	neg	r27
    19b8:	a1 95       	neg	r26
    19ba:	b1 09       	sbc	r27, r1

000019bc <.L118>:
    19bc:	40 99       	sbic	0x08, 0	; 8
    19be:	fe cf       	rjmp	.-4      	; 0x19bc <.L118>
    19c0:	60 93 52 50 	sts	0x5052, r22	; 0x805052 <__stack+0xf53>
    19c4:	73 70       	andi	r23, 0x03	; 3
    19c6:	70 93 53 50 	sts	0x5053, r23	; 0x805053 <__stack+0xf54>
    19ca:	ae 0f       	add	r26, r30
    19cc:	bf 1f       	adc	r27, r31

000019ce <.L119>:
    19ce:	ea 17       	cp	r30, r26
    19d0:	fb 07       	cpc	r31, r27
    19d2:	09 f4       	brne	.+2      	; 0x19d6 <.L122>
    19d4:	08 95       	ret

000019d6 <.L122>:
    19d6:	e0 38       	cpi	r30, 0x80	; 128
    19d8:	82 e0       	ldi	r24, 0x02	; 2
    19da:	f8 07       	cpc	r31, r24
    19dc:	58 f4       	brcc	.+22     	; 0x19f4 <.L120>
    19de:	4f 2f       	mov	r20, r31

000019e0 <.L121>:
    19e0:	40 99       	sbic	0x08, 0	; 8
    19e2:	fe cf       	rjmp	.-4      	; 0x19e0 <.L121>
    19e4:	e0 93 50 50 	sts	0x5050, r30	; 0x805050 <__stack+0xf51>
    19e8:	40 93 51 50 	sts	0x5051, r20	; 0x805051 <__stack+0xf52>
    19ec:	20 93 54 50 	sts	0x5054, r18	; 0x805054 <__stack+0xf55>
    19f0:	30 93 55 50 	sts	0x5055, r19	; 0x805055 <__stack+0xf56>

000019f4 <.L120>:
    19f4:	31 96       	adiw	r30, 0x01	; 1
    19f6:	eb cf       	rjmp	.-42     	; 0x19ce <.L119>

000019f8 <vga_drawFastVLine>:
    19f8:	fc 01       	movw	r30, r24
    19fa:	14 16       	cp	r1, r20
    19fc:	15 06       	cpc	r1, r21
    19fe:	04 f5       	brge	.+64     	; 0x1a40 <.L125>
    1a00:	e0 38       	cpi	r30, 0x80	; 128
    1a02:	82 e0       	ldi	r24, 0x02	; 2
    1a04:	f8 07       	cpc	r31, r24
    1a06:	e0 f4       	brcc	.+56     	; 0x1a40 <.L125>

00001a08 <.L127>:
    1a08:	40 99       	sbic	0x08, 0	; 8
    1a0a:	fe cf       	rjmp	.-4      	; 0x1a08 <.L127>
    1a0c:	e0 93 50 50 	sts	0x5050, r30	; 0x805050 <__stack+0xf51>
    1a10:	f0 93 51 50 	sts	0x5051, r31	; 0x805051 <__stack+0xf52>
    1a14:	cb 01       	movw	r24, r22
    1a16:	46 0f       	add	r20, r22
    1a18:	57 1f       	adc	r21, r23

00001a1a <.L130>:
    1a1a:	80 3e       	cpi	r24, 0xE0	; 224
    1a1c:	61 e0       	ldi	r22, 0x01	; 1
    1a1e:	96 07       	cpc	r25, r22
    1a20:	58 f4       	brcc	.+22     	; 0x1a38 <.L128>
    1a22:	69 2f       	mov	r22, r25

00001a24 <.L129>:
    1a24:	40 99       	sbic	0x08, 0	; 8
    1a26:	fe cf       	rjmp	.-4      	; 0x1a24 <.L129>
    1a28:	80 93 52 50 	sts	0x5052, r24	; 0x805052 <__stack+0xf53>
    1a2c:	60 93 53 50 	sts	0x5053, r22	; 0x805053 <__stack+0xf54>
    1a30:	20 93 54 50 	sts	0x5054, r18	; 0x805054 <__stack+0xf55>
    1a34:	30 93 55 50 	sts	0x5055, r19	; 0x805055 <__stack+0xf56>

00001a38 <.L128>:
    1a38:	01 96       	adiw	r24, 0x01	; 1
    1a3a:	84 17       	cp	r24, r20
    1a3c:	95 07       	cpc	r25, r21
    1a3e:	69 f7       	brne	.-38     	; 0x1a1a <.L130>

00001a40 <.L125>:
    1a40:	08 95       	ret

00001a42 <vga_drawRect>:
    1a42:	af 92       	push	r10
    1a44:	bf 92       	push	r11
    1a46:	cf 92       	push	r12
    1a48:	df 92       	push	r13
    1a4a:	ef 92       	push	r14
    1a4c:	ff 92       	push	r15
    1a4e:	0f 93       	push	r16
    1a50:	1f 93       	push	r17
    1a52:	cf 93       	push	r28
    1a54:	df 93       	push	r29
    1a56:	5c 01       	movw	r10, r24
    1a58:	7b 01       	movw	r14, r22
    1a5a:	ea 01       	movw	r28, r20
    1a5c:	69 01       	movw	r12, r18
    1a5e:	14 16       	cp	r1, r20
    1a60:	15 06       	cpc	r1, r21
    1a62:	4c f5       	brge	.+82     	; 0x1ab6 <.L134>
    1a64:	12 16       	cp	r1, r18
    1a66:	13 06       	cpc	r1, r19
    1a68:	34 f5       	brge	.+76     	; 0x1ab6 <.L134>
    1a6a:	98 01       	movw	r18, r16
    1a6c:	0e 94 d5 0c 	call	0x19aa	; 0x19aa <vga_drawFastHLine>
    1a70:	b6 01       	movw	r22, r12
    1a72:	6e 0d       	add	r22, r14
    1a74:	7f 1d       	adc	r23, r15
    1a76:	61 50       	subi	r22, 0x01	; 1
    1a78:	71 09       	sbc	r23, r1
    1a7a:	98 01       	movw	r18, r16
    1a7c:	ae 01       	movw	r20, r28
    1a7e:	c5 01       	movw	r24, r10
    1a80:	0e 94 d5 0c 	call	0x19aa	; 0x19aa <vga_drawFastHLine>
    1a84:	98 01       	movw	r18, r16
    1a86:	a6 01       	movw	r20, r12
    1a88:	b7 01       	movw	r22, r14
    1a8a:	c5 01       	movw	r24, r10
    1a8c:	0e 94 fc 0c 	call	0x19f8	; 0x19f8 <vga_drawFastVLine>
    1a90:	ca 0d       	add	r28, r10
    1a92:	db 1d       	adc	r29, r11
    1a94:	98 01       	movw	r18, r16
    1a96:	a6 01       	movw	r20, r12
    1a98:	b7 01       	movw	r22, r14
    1a9a:	ce 01       	movw	r24, r28
    1a9c:	01 97       	sbiw	r24, 0x01	; 1
    1a9e:	df 91       	pop	r29
    1aa0:	cf 91       	pop	r28
    1aa2:	1f 91       	pop	r17
    1aa4:	0f 91       	pop	r16
    1aa6:	ff 90       	pop	r15
    1aa8:	ef 90       	pop	r14
    1aaa:	df 90       	pop	r13
    1aac:	cf 90       	pop	r12
    1aae:	bf 90       	pop	r11
    1ab0:	af 90       	pop	r10
    1ab2:	0c 94 fc 0c 	jmp	0x19f8	; 0x19f8 <vga_drawFastVLine>

00001ab6 <.L134>:
    1ab6:	df 91       	pop	r29
    1ab8:	cf 91       	pop	r28
    1aba:	1f 91       	pop	r17
    1abc:	0f 91       	pop	r16
    1abe:	ff 90       	pop	r15
    1ac0:	ef 90       	pop	r14
    1ac2:	df 90       	pop	r13
    1ac4:	cf 90       	pop	r12
    1ac6:	bf 90       	pop	r11
    1ac8:	af 90       	pop	r10
    1aca:	08 95       	ret

00001acc <vga_fillCircle>:
    1acc:	2f 92       	push	r2
    1ace:	3f 92       	push	r3
    1ad0:	4f 92       	push	r4
    1ad2:	5f 92       	push	r5
    1ad4:	6f 92       	push	r6
    1ad6:	7f 92       	push	r7
    1ad8:	8f 92       	push	r8
    1ada:	9f 92       	push	r9
    1adc:	af 92       	push	r10
    1ade:	bf 92       	push	r11
    1ae0:	cf 92       	push	r12
    1ae2:	df 92       	push	r13
    1ae4:	ef 92       	push	r14
    1ae6:	ff 92       	push	r15
    1ae8:	0f 93       	push	r16
    1aea:	1f 93       	push	r17
    1aec:	cf 93       	push	r28
    1aee:	df 93       	push	r29
    1af0:	00 d0       	rcall	.+0      	; 0x1af2 <L0>

00001af2 <L0>:
    1af2:	00 d0       	rcall	.+0      	; 0x1af4 <L0>

00001af4 <L0>:
    1af4:	cd b7       	in	r28, 0x3d	; 61
    1af6:	de b7       	in	r29, 0x3e	; 62
    1af8:	3c 01       	movw	r6, r24
    1afa:	5b 01       	movw	r10, r22
    1afc:	4b 83       	std	Y+3, r20	; 0x03
    1afe:	5c 83       	std	Y+4, r21	; 0x04
    1b00:	49 01       	movw	r8, r18
    1b02:	2a 01       	movw	r4, r20
    1b04:	44 0c       	add	r4, r4
    1b06:	55 1c       	adc	r5, r5
    1b08:	a2 01       	movw	r20, r4
    1b0a:	4f 5f       	subi	r20, 0xFF	; 255
    1b0c:	5f 4f       	sbci	r21, 0xFF	; 255
    1b0e:	c3 01       	movw	r24, r6
    1b10:	eb 81       	ldd	r30, Y+3	; 0x03
    1b12:	fc 81       	ldd	r31, Y+4	; 0x04
    1b14:	8e 1b       	sub	r24, r30
    1b16:	9f 0b       	sbc	r25, r31
    1b18:	0e 94 d5 0c 	call	0x19aa	; 0x19aa <vga_drawFastHLine>
    1b1c:	01 e0       	ldi	r16, 0x01	; 1
    1b1e:	10 e0       	ldi	r17, 0x00	; 0
    1b20:	8b 81       	ldd	r24, Y+3	; 0x03
    1b22:	9c 81       	ldd	r25, Y+4	; 0x04
    1b24:	08 1b       	sub	r16, r24
    1b26:	19 0b       	sbc	r17, r25
    1b28:	51 94       	neg	r5
    1b2a:	41 94       	neg	r4
    1b2c:	51 08       	sbc	r5, r1
    1b2e:	e1 2c       	mov	r14, r1
    1b30:	f1 2c       	mov	r15, r1
    1b32:	67 01       	movw	r12, r14
    1b34:	c3 94       	inc	r12

00001b36 <.L137>:
    1b36:	8b 81       	ldd	r24, Y+3	; 0x03
    1b38:	9c 81       	ldd	r25, Y+4	; 0x04
    1b3a:	e8 16       	cp	r14, r24
    1b3c:	f9 06       	cpc	r15, r25
    1b3e:	bc f0       	brlt	.+46     	; 0x1b6e <.L139>
    1b40:	0f 90       	pop	r0
    1b42:	0f 90       	pop	r0
    1b44:	0f 90       	pop	r0
    1b46:	0f 90       	pop	r0
    1b48:	df 91       	pop	r29
    1b4a:	cf 91       	pop	r28
    1b4c:	1f 91       	pop	r17
    1b4e:	0f 91       	pop	r16
    1b50:	ff 90       	pop	r15
    1b52:	ef 90       	pop	r14
    1b54:	df 90       	pop	r13
    1b56:	cf 90       	pop	r12
    1b58:	bf 90       	pop	r11
    1b5a:	af 90       	pop	r10
    1b5c:	9f 90       	pop	r9
    1b5e:	8f 90       	pop	r8
    1b60:	7f 90       	pop	r7
    1b62:	6f 90       	pop	r6
    1b64:	5f 90       	pop	r5
    1b66:	4f 90       	pop	r4
    1b68:	3f 90       	pop	r3
    1b6a:	2f 90       	pop	r2
    1b6c:	08 95       	ret

00001b6e <.L139>:
    1b6e:	17 fd       	sbrc	r17, 7
    1b70:	0a c0       	rjmp	.+20     	; 0x1b86 <.L138>
    1b72:	eb 81       	ldd	r30, Y+3	; 0x03
    1b74:	fc 81       	ldd	r31, Y+4	; 0x04
    1b76:	31 97       	sbiw	r30, 0x01	; 1
    1b78:	eb 83       	std	Y+3, r30	; 0x03
    1b7a:	fc 83       	std	Y+4, r31	; 0x04
    1b7c:	f2 e0       	ldi	r31, 0x02	; 2
    1b7e:	4f 0e       	add	r4, r31
    1b80:	51 1c       	adc	r5, r1
    1b82:	04 0d       	add	r16, r4
    1b84:	15 1d       	adc	r17, r5

00001b86 <.L138>:
    1b86:	8f ef       	ldi	r24, 0xFF	; 255
    1b88:	e8 1a       	sub	r14, r24
    1b8a:	f8 0a       	sbc	r15, r24
    1b8c:	92 e0       	ldi	r25, 0x02	; 2
    1b8e:	c9 0e       	add	r12, r25
    1b90:	d1 1c       	adc	r13, r1
    1b92:	0c 0d       	add	r16, r12
    1b94:	1d 1d       	adc	r17, r13
    1b96:	13 01       	movw	r2, r6
    1b98:	2e 18       	sub	r2, r14
    1b9a:	3f 08       	sbc	r3, r15
    1b9c:	94 01       	movw	r18, r8
    1b9e:	a6 01       	movw	r20, r12
    1ba0:	6b 81       	ldd	r22, Y+3	; 0x03
    1ba2:	7c 81       	ldd	r23, Y+4	; 0x04
    1ba4:	6a 0d       	add	r22, r10
    1ba6:	7b 1d       	adc	r23, r11
    1ba8:	c1 01       	movw	r24, r2
    1baa:	0e 94 d5 0c 	call	0x19aa	; 0x19aa <vga_drawFastHLine>
    1bae:	94 01       	movw	r18, r8
    1bb0:	a6 01       	movw	r20, r12
    1bb2:	b5 01       	movw	r22, r10
    1bb4:	eb 81       	ldd	r30, Y+3	; 0x03
    1bb6:	fc 81       	ldd	r31, Y+4	; 0x04
    1bb8:	6e 1b       	sub	r22, r30
    1bba:	7f 0b       	sbc	r23, r31
    1bbc:	c1 01       	movw	r24, r2
    1bbe:	0e 94 d5 0c 	call	0x19aa	; 0x19aa <vga_drawFastHLine>
    1bc2:	2b 80       	ldd	r2, Y+3	; 0x03
    1bc4:	3c 80       	ldd	r3, Y+4	; 0x04
    1bc6:	22 0c       	add	r2, r2
    1bc8:	33 1c       	adc	r3, r3
    1bca:	ff ef       	ldi	r31, 0xFF	; 255
    1bcc:	2f 1a       	sub	r2, r31
    1bce:	3f 0a       	sbc	r3, r31
    1bd0:	b5 01       	movw	r22, r10
    1bd2:	6e 0d       	add	r22, r14
    1bd4:	7f 1d       	adc	r23, r15
    1bd6:	94 01       	movw	r18, r8
    1bd8:	a1 01       	movw	r20, r2
    1bda:	c3 01       	movw	r24, r6
    1bdc:	eb 81       	ldd	r30, Y+3	; 0x03
    1bde:	fc 81       	ldd	r31, Y+4	; 0x04
    1be0:	8e 1b       	sub	r24, r30
    1be2:	9f 0b       	sbc	r25, r31
    1be4:	89 83       	std	Y+1, r24	; 0x01
    1be6:	9a 83       	std	Y+2, r25	; 0x02
    1be8:	0e 94 d5 0c 	call	0x19aa	; 0x19aa <vga_drawFastHLine>
    1bec:	b5 01       	movw	r22, r10
    1bee:	6e 19       	sub	r22, r14
    1bf0:	7f 09       	sbc	r23, r15
    1bf2:	94 01       	movw	r18, r8
    1bf4:	a1 01       	movw	r20, r2
    1bf6:	89 81       	ldd	r24, Y+1	; 0x01
    1bf8:	9a 81       	ldd	r25, Y+2	; 0x02
    1bfa:	0e 94 d5 0c 	call	0x19aa	; 0x19aa <vga_drawFastHLine>
    1bfe:	9b cf       	rjmp	.-202    	; 0x1b36 <.L137>

00001c00 <vga_drawLine>:
    1c00:	2f 92       	push	r2
    1c02:	3f 92       	push	r3
    1c04:	4f 92       	push	r4
    1c06:	5f 92       	push	r5
    1c08:	6f 92       	push	r6
    1c0a:	7f 92       	push	r7
    1c0c:	8f 92       	push	r8
    1c0e:	9f 92       	push	r9
    1c10:	af 92       	push	r10
    1c12:	bf 92       	push	r11
    1c14:	cf 92       	push	r12
    1c16:	df 92       	push	r13
    1c18:	ef 92       	push	r14
    1c1a:	ff 92       	push	r15
    1c1c:	0f 93       	push	r16
    1c1e:	1f 93       	push	r17
    1c20:	cf 93       	push	r28
    1c22:	df 93       	push	r29
    1c24:	00 d0       	rcall	.+0      	; 0x1c26 <L0>

00001c26 <L0>:
    1c26:	00 d0       	rcall	.+0      	; 0x1c28 <L0>

00001c28 <L0>:
    1c28:	cd b7       	in	r28, 0x3d	; 61
    1c2a:	de b7       	in	r29, 0x3e	; 62
    1c2c:	6b 83       	std	Y+3, r22	; 0x03
    1c2e:	7c 83       	std	Y+4, r23	; 0x04
    1c30:	6a 01       	movw	r12, r20
    1c32:	79 01       	movw	r14, r18
    1c34:	58 01       	movw	r10, r16
    1c36:	84 17       	cp	r24, r20
    1c38:	95 07       	cpc	r25, r21
    1c3a:	51 f5       	brne	.+84     	; 0x1c90 <.L141>
    1c3c:	a9 01       	movw	r20, r18
    1c3e:	2b 81       	ldd	r18, Y+3	; 0x03
    1c40:	3c 81       	ldd	r19, Y+4	; 0x04
    1c42:	42 1b       	sub	r20, r18
    1c44:	53 0b       	sbc	r21, r19
    1c46:	1a f4       	brpl	.+6      	; 0x1c4e <.L142>
    1c48:	a9 01       	movw	r20, r18
    1c4a:	4e 19       	sub	r20, r14
    1c4c:	5f 09       	sbc	r21, r15

00001c4e <.L142>:
    1c4e:	4f 5f       	subi	r20, 0xFF	; 255
    1c50:	5f 4f       	sbci	r21, 0xFF	; 255
    1c52:	6b 81       	ldd	r22, Y+3	; 0x03
    1c54:	7c 81       	ldd	r23, Y+4	; 0x04
    1c56:	e6 16       	cp	r14, r22
    1c58:	f7 06       	cpc	r15, r23
    1c5a:	0c f4       	brge	.+2      	; 0x1c5e <.L143>
    1c5c:	b7 01       	movw	r22, r14

00001c5e <.L143>:
    1c5e:	95 01       	movw	r18, r10
    1c60:	0f 90       	pop	r0
    1c62:	0f 90       	pop	r0
    1c64:	0f 90       	pop	r0
    1c66:	0f 90       	pop	r0
    1c68:	df 91       	pop	r29
    1c6a:	cf 91       	pop	r28
    1c6c:	1f 91       	pop	r17
    1c6e:	0f 91       	pop	r16
    1c70:	ff 90       	pop	r15
    1c72:	ef 90       	pop	r14
    1c74:	df 90       	pop	r13
    1c76:	cf 90       	pop	r12
    1c78:	bf 90       	pop	r11
    1c7a:	af 90       	pop	r10
    1c7c:	9f 90       	pop	r9
    1c7e:	8f 90       	pop	r8
    1c80:	7f 90       	pop	r7
    1c82:	6f 90       	pop	r6
    1c84:	5f 90       	pop	r5
    1c86:	4f 90       	pop	r4
    1c88:	3f 90       	pop	r3
    1c8a:	2f 90       	pop	r2
    1c8c:	0c 94 fc 0c 	jmp	0x19f8	; 0x19f8 <vga_drawFastVLine>

00001c90 <.L141>:
    1c90:	4a 01       	movw	r8, r20
    1c92:	88 1a       	sub	r8, r24
    1c94:	99 0a       	sbc	r9, r25
    1c96:	1a f4       	brpl	.+6      	; 0x1c9e <.L144>
    1c98:	4c 01       	movw	r8, r24
    1c9a:	84 1a       	sub	r8, r20
    1c9c:	95 0a       	sbc	r9, r21

00001c9e <.L144>:
    1c9e:	2b 81       	ldd	r18, Y+3	; 0x03
    1ca0:	3c 81       	ldd	r19, Y+4	; 0x04
    1ca2:	2e 15       	cp	r18, r14
    1ca4:	3f 05       	cpc	r19, r15
    1ca6:	11 f5       	brne	.+68     	; 0x1cec <.L145>
    1ca8:	a4 01       	movw	r20, r8
    1caa:	4f 5f       	subi	r20, 0xFF	; 255
    1cac:	5f 4f       	sbci	r21, 0xFF	; 255
    1cae:	c8 16       	cp	r12, r24
    1cb0:	d9 06       	cpc	r13, r25
    1cb2:	0c f4       	brge	.+2      	; 0x1cb6 <.L146>
    1cb4:	c6 01       	movw	r24, r12

00001cb6 <.L146>:
    1cb6:	95 01       	movw	r18, r10
    1cb8:	6b 81       	ldd	r22, Y+3	; 0x03
    1cba:	7c 81       	ldd	r23, Y+4	; 0x04
    1cbc:	0f 90       	pop	r0
    1cbe:	0f 90       	pop	r0
    1cc0:	0f 90       	pop	r0
    1cc2:	0f 90       	pop	r0
    1cc4:	df 91       	pop	r29
    1cc6:	cf 91       	pop	r28
    1cc8:	1f 91       	pop	r17
    1cca:	0f 91       	pop	r16
    1ccc:	ff 90       	pop	r15
    1cce:	ef 90       	pop	r14
    1cd0:	df 90       	pop	r13
    1cd2:	cf 90       	pop	r12
    1cd4:	bf 90       	pop	r11
    1cd6:	af 90       	pop	r10
    1cd8:	9f 90       	pop	r9
    1cda:	8f 90       	pop	r8
    1cdc:	7f 90       	pop	r7
    1cde:	6f 90       	pop	r6
    1ce0:	5f 90       	pop	r5
    1ce2:	4f 90       	pop	r4
    1ce4:	3f 90       	pop	r3
    1ce6:	2f 90       	pop	r2
    1ce8:	0c 94 d5 0c 	jmp	0x19aa	; 0x19aa <vga_drawFastHLine>

00001cec <.L145>:
    1cec:	37 01       	movw	r6, r14
    1cee:	2b 81       	ldd	r18, Y+3	; 0x03
    1cf0:	3c 81       	ldd	r19, Y+4	; 0x04
    1cf2:	62 1a       	sub	r6, r18
    1cf4:	73 0a       	sbc	r7, r19
    1cf6:	1a f4       	brpl	.+6      	; 0x1cfe <.L147>
    1cf8:	39 01       	movw	r6, r18
    1cfa:	6e 18       	sub	r6, r14
    1cfc:	7f 08       	sbc	r7, r15

00001cfe <.L147>:
    1cfe:	86 14       	cp	r8, r6
    1d00:	97 04       	cpc	r9, r7
    1d02:	5c f0       	brlt	.+22     	; 0x1d1a <.L148>
    1d04:	3e 2d       	mov	r19, r14
    1d06:	2f 2d       	mov	r18, r15
    1d08:	76 01       	movw	r14, r12
    1d0a:	c3 2e       	mov	r12, r19
    1d0c:	d2 2e       	mov	r13, r18
    1d0e:	3b 81       	ldd	r19, Y+3	; 0x03
    1d10:	2c 81       	ldd	r18, Y+4	; 0x04
    1d12:	8b 83       	std	Y+3, r24	; 0x03
    1d14:	9c 83       	std	Y+4, r25	; 0x04
    1d16:	83 2f       	mov	r24, r19
    1d18:	92 2f       	mov	r25, r18

00001d1a <.L148>:
    1d1a:	2b 81       	ldd	r18, Y+3	; 0x03
    1d1c:	3c 81       	ldd	r19, Y+4	; 0x04
    1d1e:	e2 16       	cp	r14, r18
    1d20:	f3 06       	cpc	r15, r19
    1d22:	5c f0       	brlt	.+22     	; 0x1d3a <.L149>
    1d24:	3c 2d       	mov	r19, r12
    1d26:	2d 2d       	mov	r18, r13
    1d28:	6c 01       	movw	r12, r24
    1d2a:	83 2f       	mov	r24, r19
    1d2c:	92 2f       	mov	r25, r18
    1d2e:	3e 2d       	mov	r19, r14
    1d30:	2f 2d       	mov	r18, r15
    1d32:	eb 80       	ldd	r14, Y+3	; 0x03
    1d34:	fc 80       	ldd	r15, Y+4	; 0x04
    1d36:	3b 83       	std	Y+3, r19	; 0x03
    1d38:	2c 83       	std	Y+4, r18	; 0x04

00001d3a <.L149>:
    1d3a:	4b 80       	ldd	r4, Y+3	; 0x03
    1d3c:	5c 80       	ldd	r5, Y+4	; 0x04
    1d3e:	4e 18       	sub	r4, r14
    1d40:	5f 08       	sbc	r5, r15
    1d42:	1c 01       	movw	r2, r24
    1d44:	2c 18       	sub	r2, r12
    1d46:	3d 08       	sbc	r3, r13
    1d48:	1a f4       	brpl	.+6      	; 0x1d50 <.L150>
    1d4a:	16 01       	movw	r2, r12
    1d4c:	28 1a       	sub	r2, r24
    1d4e:	39 0a       	sbc	r3, r25

00001d50 <.L150>:
    1d50:	82 01       	movw	r16, r4
    1d52:	57 fe       	sbrs	r5, 7
    1d54:	02 c0       	rjmp	.+4      	; 0x1d5a <.L151>
    1d56:	0f 5f       	subi	r16, 0xFF	; 255
    1d58:	1f 4f       	sbci	r17, 0xFF	; 255

00001d5a <.L151>:
    1d5a:	15 95       	asr	r17
    1d5c:	07 95       	ror	r16
    1d5e:	c8 16       	cp	r12, r24
    1d60:	d9 06       	cpc	r13, r25
    1d62:	bc f1       	brlt	.+110    	; 0x1dd2 <.L152>
    1d64:	8f ef       	ldi	r24, 0xFF	; 255
    1d66:	9f ef       	ldi	r25, 0xFF	; 255

00001d68 <.L160>:
    1d68:	89 83       	std	Y+1, r24	; 0x01
    1d6a:	9a 83       	std	Y+2, r25	; 0x02
    1d6c:	16 c0       	rjmp	.+44     	; 0x1d9a <.L157>

00001d6e <.L158>:
    1d6e:	a5 01       	movw	r20, r10
    1d70:	b7 01       	movw	r22, r14
    1d72:	c6 01       	movw	r24, r12
    1d74:	86 14       	cp	r8, r6
    1d76:	97 04       	cpc	r9, r7
    1d78:	14 f0       	brlt	.+4      	; 0x1d7e <.L159>
    1d7a:	b6 01       	movw	r22, r12
    1d7c:	c7 01       	movw	r24, r14

00001d7e <.L159>:
    1d7e:	0e 94 93 09 	call	0x1326	; 0x1326 <vga_pixel_fast>
    1d82:	02 19       	sub	r16, r2
    1d84:	13 09       	sbc	r17, r3
    1d86:	32 f4       	brpl	.+12     	; 0x1d94 <.L156>
    1d88:	29 81       	ldd	r18, Y+1	; 0x01
    1d8a:	3a 81       	ldd	r19, Y+2	; 0x02
    1d8c:	c2 0e       	add	r12, r18
    1d8e:	d3 1e       	adc	r13, r19
    1d90:	04 0d       	add	r16, r4
    1d92:	15 1d       	adc	r17, r5

00001d94 <.L156>:
    1d94:	3f ef       	ldi	r19, 0xFF	; 255
    1d96:	e3 1a       	sub	r14, r19
    1d98:	f3 0a       	sbc	r15, r19

00001d9a <.L157>:
    1d9a:	2b 81       	ldd	r18, Y+3	; 0x03
    1d9c:	3c 81       	ldd	r19, Y+4	; 0x04
    1d9e:	2e 15       	cp	r18, r14
    1da0:	3f 05       	cpc	r19, r15
    1da2:	2c f7       	brge	.-54     	; 0x1d6e <.L158>
    1da4:	0f 90       	pop	r0
    1da6:	0f 90       	pop	r0
    1da8:	0f 90       	pop	r0
    1daa:	0f 90       	pop	r0
    1dac:	df 91       	pop	r29
    1dae:	cf 91       	pop	r28
    1db0:	1f 91       	pop	r17
    1db2:	0f 91       	pop	r16
    1db4:	ff 90       	pop	r15
    1db6:	ef 90       	pop	r14
    1db8:	df 90       	pop	r13
    1dba:	cf 90       	pop	r12
    1dbc:	bf 90       	pop	r11
    1dbe:	af 90       	pop	r10
    1dc0:	9f 90       	pop	r9
    1dc2:	8f 90       	pop	r8
    1dc4:	7f 90       	pop	r7
    1dc6:	6f 90       	pop	r6
    1dc8:	5f 90       	pop	r5
    1dca:	4f 90       	pop	r4
    1dcc:	3f 90       	pop	r3
    1dce:	2f 90       	pop	r2
    1dd0:	08 95       	ret

00001dd2 <.L152>:
    1dd2:	81 e0       	ldi	r24, 0x01	; 1
    1dd4:	90 e0       	ldi	r25, 0x00	; 0
    1dd6:	c8 cf       	rjmp	.-112    	; 0x1d68 <.L160>

00001dd8 <vga_printCenteredX>:
    1dd8:	8f 92       	push	r8
    1dda:	9f 92       	push	r9
    1ddc:	af 92       	push	r10
    1dde:	bf 92       	push	r11
    1de0:	cf 92       	push	r12
    1de2:	df 92       	push	r13
    1de4:	ef 92       	push	r14
    1de6:	ff 92       	push	r15
    1de8:	0f 93       	push	r16
    1dea:	1f 93       	push	r17
    1dec:	cf 93       	push	r28
    1dee:	df 93       	push	r29
    1df0:	00 d0       	rcall	.+0      	; 0x1df2 <L0>

00001df2 <L0>:
    1df2:	00 d0       	rcall	.+0      	; 0x1df4 <L0>

00001df4 <L0>:
    1df4:	0f 92       	push	r0
    1df6:	cd b7       	in	r28, 0x3d	; 61
    1df8:	de b7       	in	r29, 0x3e	; 62
    1dfa:	d9 01       	movw	r26, r18
    1dfc:	0c 83       	std	Y+4, r16	; 0x04
    1dfe:	1d 83       	std	Y+5, r17	; 0x05
    1e00:	87 01       	movw	r16, r14
    1e02:	fc 01       	movw	r30, r24

00001e04 <.L01>:
    1e04:	01 90       	ld	r0, Z+
    1e06:	00 20       	and	r0, r0
    1e08:	e9 f7       	brne	.-6      	; 0x1e04 <.L01>
    1e0a:	31 97       	sbiw	r30, 0x01	; 1
    1e0c:	4f 01       	movw	r8, r30
    1e0e:	88 1a       	sub	r8, r24
    1e10:	99 0a       	sbc	r9, r25
    1e12:	8e 17       	cp	r24, r30
    1e14:	9f 07       	cpc	r25, r31
    1e16:	81 f1       	breq	.+96     	; 0x1e78 <.L161>
    1e18:	32 e0       	ldi	r19, 0x02	; 2
    1e1a:	d3 2e       	mov	r13, r19
    1e1c:	cd 10       	cpse	r12, r13
    1e1e:	3e c0       	rjmp	.+124    	; 0x1e9c <.L163>
    1e20:	5c 01       	movw	r10, r24
    1e22:	88 0e       	add	r8, r24
    1e24:	99 1e       	adc	r9, r25
    1e26:	e1 2c       	mov	r14, r1
    1e28:	f1 2c       	mov	r15, r1

00001e2a <.L165>:
    1e2a:	f5 01       	movw	r30, r10
    1e2c:	d1 90       	ld	r13, Z+
    1e2e:	5f 01       	movw	r10, r30
    1e30:	d9 82       	std	Y+1, r13	; 0x01
    1e32:	2d 2d       	mov	r18, r13
    1e34:	20 32       	cpi	r18, 0x20	; 32
    1e36:	10 f4       	brcc	.+4      	; 0x1e3c <.L164>
    1e38:	30 e2       	ldi	r19, 0x20	; 32
    1e3a:	39 83       	std	Y+1, r19	; 0x01

00001e3c <.L164>:
    1e3c:	29 81       	ldd	r18, Y+1	; 0x01
    1e3e:	20 52       	subi	r18, 0x20	; 32
    1e40:	33 0b       	sbc	r19, r19
    1e42:	f9 01       	movw	r30, r18
    1e44:	e4 57       	subi	r30, 0x74	; 116
    1e46:	f8 4f       	sbci	r31, 0xF8	; 248
    1e48:	e4 91       	lpm	r30, Z
    1e4a:	ee 0e       	add	r14, r30
    1e4c:	f1 1c       	adc	r15, r1
    1e4e:	8a 14       	cp	r8, r10
    1e50:	9b 04       	cpc	r9, r11
    1e52:	59 f7       	brne	.-42     	; 0x1e2a <.L165>
    1e54:	31 e0       	ldi	r19, 0x01	; 1
    1e56:	e3 1a       	sub	r14, r19
    1e58:	f1 08       	sbc	r15, r1

00001e5a <.L166>:
    1e5a:	fa 01       	movw	r30, r20
    1e5c:	e6 1b       	sub	r30, r22
    1e5e:	f7 0b       	sbc	r31, r23
    1e60:	ee 19       	sub	r30, r14
    1e62:	ff 09       	sbc	r31, r15
    1e64:	f6 95       	lsr	r31
    1e66:	e7 95       	ror	r30
    1e68:	6e 0f       	add	r22, r30
    1e6a:	7f 1f       	adc	r23, r31
    1e6c:	ec 2c       	mov	r14, r12
    1e6e:	2c 81       	ldd	r18, Y+4	; 0x04
    1e70:	3d 81       	ldd	r19, Y+5	; 0x05
    1e72:	ad 01       	movw	r20, r26
    1e74:	0e 94 95 0c 	call	0x192a	; 0x192a <vga_printAt>

00001e78 <.L161>:
    1e78:	0f 90       	pop	r0
    1e7a:	0f 90       	pop	r0
    1e7c:	0f 90       	pop	r0
    1e7e:	0f 90       	pop	r0
    1e80:	0f 90       	pop	r0
    1e82:	df 91       	pop	r29
    1e84:	cf 91       	pop	r28
    1e86:	1f 91       	pop	r17
    1e88:	0f 91       	pop	r16
    1e8a:	ff 90       	pop	r15
    1e8c:	ef 90       	pop	r14
    1e8e:	df 90       	pop	r13
    1e90:	cf 90       	pop	r12
    1e92:	bf 90       	pop	r11
    1e94:	af 90       	pop	r10
    1e96:	9f 90       	pop	r9
    1e98:	8f 90       	pop	r8
    1e9a:	08 95       	ret

00001e9c <.L163>:
    1e9c:	c8 9c       	mul	r12, r8
    1e9e:	f0 01       	movw	r30, r0
    1ea0:	c9 9c       	mul	r12, r9
    1ea2:	f0 0d       	add	r31, r0
    1ea4:	11 24       	eor	r1, r1
    1ea6:	36 e0       	ldi	r19, 0x06	; 6
    1ea8:	3e 9f       	mul	r19, r30
    1eaa:	70 01       	movw	r14, r0
    1eac:	3f 9f       	mul	r19, r31
    1eae:	f0 0c       	add	r15, r0
    1eb0:	11 24       	eor	r1, r1
    1eb2:	e1 e0       	ldi	r30, 0x01	; 1
    1eb4:	ee 1a       	sub	r14, r30
    1eb6:	f1 08       	sbc	r15, r1
    1eb8:	d0 cf       	rjmp	.-96     	; 0x1e5a <.L166>

00001eba <vga_FillTriangle>:
    1eba:	2f 92       	push	r2
    1ebc:	3f 92       	push	r3
    1ebe:	4f 92       	push	r4
    1ec0:	5f 92       	push	r5
    1ec2:	6f 92       	push	r6
    1ec4:	7f 92       	push	r7
    1ec6:	8f 92       	push	r8
    1ec8:	9f 92       	push	r9
    1eca:	af 92       	push	r10
    1ecc:	bf 92       	push	r11
    1ece:	cf 92       	push	r12
    1ed0:	df 92       	push	r13
    1ed2:	ef 92       	push	r14
    1ed4:	ff 92       	push	r15
    1ed6:	0f 93       	push	r16
    1ed8:	1f 93       	push	r17
    1eda:	cf 93       	push	r28
    1edc:	df 93       	push	r29
    1ede:	cd b7       	in	r28, 0x3d	; 61
    1ee0:	de b7       	in	r29, 0x3e	; 62
    1ee2:	a5 97       	sbiw	r28, 0x25	; 37
    1ee4:	0f b6       	in	r0, 0x3f	; 63
    1ee6:	f8 94       	cli
    1ee8:	de bf       	out	0x3e, r29	; 62
    1eea:	0f be       	out	0x3f, r0	; 63
    1eec:	cd bf       	out	0x3d, r28	; 61
    1eee:	ce 8e       	std	Y+30, r12	; 0x1e
    1ef0:	df 8e       	std	Y+31, r13	; 0x1f
    1ef2:	3b 01       	movw	r6, r22
    1ef4:	89 83       	std	Y+1, r24	; 0x01
    1ef6:	9a 83       	std	Y+2, r25	; 0x02
    1ef8:	19 01       	movw	r2, r18
    1efa:	4a 01       	movw	r8, r20
    1efc:	f7 01       	movw	r30, r14
    1efe:	28 01       	movw	r4, r16
    1f00:	48 17       	cp	r20, r24
    1f02:	59 07       	cpc	r21, r25
    1f04:	0c f0       	brlt	.+2      	; 0x1f08 <L0+0x2>

00001f06 <L0>:
    1f06:	1d c1       	rjmp	.+570    	; 0x2142 <.L172>
    1f08:	08 17       	cp	r16, r24
    1f0a:	19 07       	cpc	r17, r25
    1f0c:	34 f4       	brge	.+12     	; 0x1f1a <.L173>

00001f0e <.L185>:
    1f0e:	49 80       	ldd	r4, Y+1	; 0x01
    1f10:	5a 80       	ldd	r5, Y+2	; 0x02
    1f12:	09 83       	std	Y+1, r16	; 0x01
    1f14:	1a 83       	std	Y+2, r17	; 0x02
    1f16:	f3 01       	movw	r30, r6
    1f18:	37 01       	movw	r6, r14

00001f1a <.L173>:
    1f1a:	29 81       	ldd	r18, Y+1	; 0x01
    1f1c:	3a 81       	ldd	r19, Y+2	; 0x02
    1f1e:	28 15       	cp	r18, r8
    1f20:	39 05       	cpc	r19, r9
    1f22:	5c f0       	brlt	.+22     	; 0x1f3a <.L174>
    1f24:	99 81       	ldd	r25, Y+1	; 0x01
    1f26:	8a 81       	ldd	r24, Y+2	; 0x02
    1f28:	89 82       	std	Y+1, r8	; 0x01
    1f2a:	9a 82       	std	Y+2, r9	; 0x02
    1f2c:	89 2e       	mov	r8, r25
    1f2e:	98 2e       	mov	r9, r24
    1f30:	96 2d       	mov	r25, r6
    1f32:	87 2d       	mov	r24, r7
    1f34:	31 01       	movw	r6, r2
    1f36:	29 2e       	mov	r2, r25
    1f38:	38 2e       	mov	r3, r24

00001f3a <.L174>:
    1f3a:	c2 01       	movw	r24, r4
    1f3c:	49 81       	ldd	r20, Y+1	; 0x01
    1f3e:	5a 81       	ldd	r21, Y+2	; 0x02
    1f40:	84 1b       	sub	r24, r20
    1f42:	95 0b       	sbc	r25, r21
    1f44:	44 16       	cp	r4, r20
    1f46:	55 06       	cpc	r5, r21
    1f48:	09 f0       	breq	.+2      	; 0x1f4c <.L171>

00001f4a <L0>:
    1f4a:	c2 c0       	rjmp	.+388    	; 0x20d0 <.L186>

00001f4c <.L171>:
    1f4c:	a5 96       	adiw	r28, 0x25	; 37
    1f4e:	0f b6       	in	r0, 0x3f	; 63
    1f50:	f8 94       	cli
    1f52:	de bf       	out	0x3e, r29	; 62
    1f54:	0f be       	out	0x3f, r0	; 63
    1f56:	cd bf       	out	0x3d, r28	; 61
    1f58:	df 91       	pop	r29
    1f5a:	cf 91       	pop	r28
    1f5c:	1f 91       	pop	r17
    1f5e:	0f 91       	pop	r16
    1f60:	ff 90       	pop	r15
    1f62:	ef 90       	pop	r14
    1f64:	df 90       	pop	r13
    1f66:	cf 90       	pop	r12
    1f68:	bf 90       	pop	r11
    1f6a:	af 90       	pop	r10
    1f6c:	9f 90       	pop	r9
    1f6e:	8f 90       	pop	r8
    1f70:	7f 90       	pop	r7
    1f72:	6f 90       	pop	r6
    1f74:	5f 90       	pop	r5
    1f76:	4f 90       	pop	r4
    1f78:	3f 90       	pop	r3
    1f7a:	2f 90       	pop	r2
    1f7c:	08 95       	ret

00001f7e <.L183>:
    1f7e:	80 16       	cp	r8, r16
    1f80:	91 06       	cpc	r9, r17
    1f82:	0c f4       	brge	.+2      	; 0x1f86 <L0+0x2>

00001f84 <L0>:
    1f84:	8d c0       	rjmp	.+282    	; 0x20a0 <.L176>
    1f86:	89 81       	ldd	r24, Y+1	; 0x01
    1f88:	9a 81       	ldd	r25, Y+2	; 0x02
    1f8a:	88 15       	cp	r24, r8
    1f8c:	99 05       	cpc	r25, r9
    1f8e:	09 f4       	brne	.+2      	; 0x1f92 <L0+0x2>

00001f90 <L0>:
    1f90:	87 c0       	rjmp	.+270    	; 0x20a0 <.L176>
    1f92:	a9 8c       	ldd	r10, Y+25	; 0x19
    1f94:	ba 8c       	ldd	r11, Y+26	; 0x1a
    1f96:	1c a2       	std	Y+36, r1	; 0x24

00001f98 <.L177>:
    1f98:	b6 01       	movw	r22, r12
    1f9a:	8d 2d       	mov	r24, r13
    1f9c:	88 0f       	add	r24, r24
    1f9e:	88 0b       	sbc	r24, r24
    1fa0:	98 2f       	mov	r25, r24
    1fa2:	0e 94 c9 33 	call	0x6792	; 0x6792 <__floatsisf>
    1fa6:	6b 83       	std	Y+3, r22	; 0x03
    1fa8:	7c 83       	std	Y+4, r23	; 0x04
    1faa:	8d 83       	std	Y+5, r24	; 0x05
    1fac:	9e 83       	std	Y+6, r25	; 0x06
    1fae:	69 85       	ldd	r22, Y+9	; 0x09
    1fb0:	7a 85       	ldd	r23, Y+10	; 0x0a
    1fb2:	8b 85       	ldd	r24, Y+11	; 0x0b
    1fb4:	9c 85       	ldd	r25, Y+12	; 0x0c
    1fb6:	0e 94 c9 33 	call	0x6792	; 0x6792 <__floatsisf>
    1fba:	9b 01       	movw	r18, r22
    1fbc:	ac 01       	movw	r20, r24
    1fbe:	6b 81       	ldd	r22, Y+3	; 0x03
    1fc0:	7c 81       	ldd	r23, Y+4	; 0x04
    1fc2:	8d 81       	ldd	r24, Y+5	; 0x05
    1fc4:	9e 81       	ldd	r25, Y+6	; 0x06
    1fc6:	0e 94 19 33 	call	0x6632	; 0x6632 <__divsf3>
    1fca:	68 a3       	std	Y+32, r22	; 0x20
    1fcc:	79 a3       	std	Y+33, r23	; 0x21
    1fce:	8a a3       	std	Y+34, r24	; 0x22
    1fd0:	9b a3       	std	Y+35, r25	; 0x23
    1fd2:	ac a1       	ldd	r26, Y+36	; 0x24
    1fd4:	8d 8d       	ldd	r24, Y+29	; 0x1d
    1fd6:	9d a1       	ldd	r25, Y+37	; 0x25
    1fd8:	a1 11       	cpse	r26, r1
    1fda:	02 c0       	rjmp	.+4      	; 0x1fe0 <.L179>
    1fdc:	8b 8d       	ldd	r24, Y+27	; 0x1b
    1fde:	9c 8d       	ldd	r25, Y+28	; 0x1c

00001fe0 <.L179>:
    1fe0:	b8 01       	movw	r22, r16
    1fe2:	68 1b       	sub	r22, r24
    1fe4:	79 0b       	sbc	r23, r25
    1fe6:	87 2f       	mov	r24, r23
    1fe8:	88 0f       	add	r24, r24
    1fea:	88 0b       	sbc	r24, r24
    1fec:	98 2f       	mov	r25, r24
    1fee:	0e 94 c9 33 	call	0x6792	; 0x6792 <__floatsisf>
    1ff2:	6b 83       	std	Y+3, r22	; 0x03
    1ff4:	7c 83       	std	Y+4, r23	; 0x04
    1ff6:	8d 83       	std	Y+5, r24	; 0x05
    1ff8:	9e 83       	std	Y+6, r25	; 0x06
    1ffa:	b5 01       	movw	r22, r10
    1ffc:	bb 0c       	add	r11, r11
    1ffe:	88 0b       	sbc	r24, r24
    2000:	98 2f       	mov	r25, r24
    2002:	0e 94 c9 33 	call	0x6792	; 0x6792 <__floatsisf>
    2006:	9b 01       	movw	r18, r22
    2008:	ac 01       	movw	r20, r24
    200a:	6b 81       	ldd	r22, Y+3	; 0x03
    200c:	7c 81       	ldd	r23, Y+4	; 0x04
    200e:	8d 81       	ldd	r24, Y+5	; 0x05
    2010:	9e 81       	ldd	r25, Y+6	; 0x06
    2012:	0e 94 19 33 	call	0x6632	; 0x6632 <__divsf3>
    2016:	6b 83       	std	Y+3, r22	; 0x03
    2018:	7c 83       	std	Y+4, r23	; 0x04
    201a:	8d 83       	std	Y+5, r24	; 0x05
    201c:	9e 83       	std	Y+6, r25	; 0x06
    201e:	6d 85       	ldd	r22, Y+13	; 0x0d
    2020:	7e 85       	ldd	r23, Y+14	; 0x0e
    2022:	8f 85       	ldd	r24, Y+15	; 0x0f
    2024:	98 89       	ldd	r25, Y+16	; 0x10
    2026:	0e 94 c9 33 	call	0x6792	; 0x6792 <__floatsisf>
    202a:	28 a1       	ldd	r18, Y+32	; 0x20
    202c:	39 a1       	ldd	r19, Y+33	; 0x21
    202e:	4a a1       	ldd	r20, Y+34	; 0x22
    2030:	5b a1       	ldd	r21, Y+35	; 0x23
    2032:	0e 94 cc 34 	call	0x6998	; 0x6998 <__mulsf3>
    2036:	0e 94 8b 33 	call	0x6716	; 0x6716 <__fixsfsi>
    203a:	73 01       	movw	r14, r6
    203c:	e6 0e       	add	r14, r22
    203e:	f7 1e       	adc	r15, r23
    2040:	bc a1       	ldd	r27, Y+36	; 0x24
    2042:	b1 15       	cp	r27, r1
    2044:	a9 f1       	breq	.+106    	; 0x20b0 <.L180>
    2046:	6d 89       	ldd	r22, Y+21	; 0x15
    2048:	7e 89       	ldd	r23, Y+22	; 0x16
    204a:	8f 89       	ldd	r24, Y+23	; 0x17
    204c:	98 8d       	ldd	r25, Y+24	; 0x18
    204e:	0e 94 c9 33 	call	0x6792	; 0x6792 <__floatsisf>
    2052:	2b 81       	ldd	r18, Y+3	; 0x03
    2054:	3c 81       	ldd	r19, Y+4	; 0x04
    2056:	4d 81       	ldd	r20, Y+5	; 0x05
    2058:	5e 81       	ldd	r21, Y+6	; 0x06
    205a:	0e 94 cc 34 	call	0x6998	; 0x6998 <__mulsf3>
    205e:	0e 94 8b 33 	call	0x6716	; 0x6716 <__fixsfsi>
    2062:	c1 01       	movw	r24, r2

00002064 <.L192>:
    2064:	86 0f       	add	r24, r22
    2066:	97 1f       	adc	r25, r23
    2068:	8e 15       	cp	r24, r14
    206a:	9f 05       	cpc	r25, r15
    206c:	2c f0       	brlt	.+10     	; 0x2078 <.L182>
    206e:	38 2f       	mov	r19, r24
    2070:	29 2f       	mov	r18, r25
    2072:	c7 01       	movw	r24, r14
    2074:	e3 2e       	mov	r14, r19
    2076:	f2 2e       	mov	r15, r18

00002078 <.L182>:
    2078:	e8 1a       	sub	r14, r24
    207a:	f9 0a       	sbc	r15, r25
    207c:	a7 01       	movw	r20, r14
    207e:	4f 5f       	subi	r20, 0xFF	; 255
    2080:	5f 4f       	sbci	r21, 0xFF	; 255
    2082:	2e 8d       	ldd	r18, Y+30	; 0x1e
    2084:	3f 8d       	ldd	r19, Y+31	; 0x1f
    2086:	b8 01       	movw	r22, r16
    2088:	0e 94 d5 0c 	call	0x19aa	; 0x19aa <vga_drawFastHLine>

0000208c <.L178>:
    208c:	0f 5f       	subi	r16, 0xFF	; 255
    208e:	1f 4f       	sbci	r17, 0xFF	; 255
    2090:	2f ef       	ldi	r18, 0xFF	; 255
    2092:	c2 1a       	sub	r12, r18
    2094:	d2 0a       	sbc	r13, r18

00002096 <.L175>:
    2096:	40 16       	cp	r4, r16
    2098:	51 06       	cpc	r5, r17
    209a:	0c f0       	brlt	.+2      	; 0x209e <L0+0x2>

0000209c <L0>:
    209c:	70 cf       	rjmp	.-288    	; 0x1f7e <.L183>
    209e:	56 cf       	rjmp	.-340    	; 0x1f4c <.L171>

000020a0 <.L176>:
    20a0:	af 80       	ldd	r10, Y+7	; 0x07
    20a2:	b8 84       	ldd	r11, Y+8	; 0x08
    20a4:	a1 14       	cp	r10, r1
    20a6:	b1 04       	cpc	r11, r1
    20a8:	89 f3       	breq	.-30     	; 0x208c <.L178>
    20aa:	91 e0       	ldi	r25, 0x01	; 1
    20ac:	9c a3       	std	Y+36, r25	; 0x24
    20ae:	74 cf       	rjmp	.-280    	; 0x1f98 <.L177>

000020b0 <.L180>:
    20b0:	69 89       	ldd	r22, Y+17	; 0x11
    20b2:	7a 89       	ldd	r23, Y+18	; 0x12
    20b4:	8b 89       	ldd	r24, Y+19	; 0x13
    20b6:	9c 89       	ldd	r25, Y+20	; 0x14
    20b8:	0e 94 c9 33 	call	0x6792	; 0x6792 <__floatsisf>
    20bc:	2b 81       	ldd	r18, Y+3	; 0x03
    20be:	3c 81       	ldd	r19, Y+4	; 0x04
    20c0:	4d 81       	ldd	r20, Y+5	; 0x05
    20c2:	5e 81       	ldd	r21, Y+6	; 0x06
    20c4:	0e 94 cc 34 	call	0x6998	; 0x6998 <__mulsf3>
    20c8:	0e 94 8b 33 	call	0x6716	; 0x6716 <__fixsfsi>
    20cc:	c3 01       	movw	r24, r6
    20ce:	ca cf       	rjmp	.-108    	; 0x2064 <.L192>

000020d0 <.L186>:
    20d0:	09 81       	ldd	r16, Y+1	; 0x01
    20d2:	1a 81       	ldd	r17, Y+2	; 0x02
    20d4:	c1 2c       	mov	r12, r1
    20d6:	d1 2c       	mov	r13, r1
    20d8:	9c 01       	movw	r18, r24
    20da:	99 0f       	add	r25, r25
    20dc:	44 0b       	sbc	r20, r20
    20de:	89 87       	std	Y+9, r24	; 0x09
    20e0:	3a 87       	std	Y+10, r19	; 0x0a
    20e2:	4b 87       	std	Y+11, r20	; 0x0b
    20e4:	4c 87       	std	Y+12, r20	; 0x0c
    20e6:	cf 01       	movw	r24, r30
    20e8:	86 19       	sub	r24, r6
    20ea:	97 09       	sbc	r25, r7
    20ec:	9c 01       	movw	r18, r24
    20ee:	99 0f       	add	r25, r25
    20f0:	44 0b       	sbc	r20, r20
    20f2:	8d 87       	std	Y+13, r24	; 0x0d
    20f4:	3e 87       	std	Y+14, r19	; 0x0e
    20f6:	4f 87       	std	Y+15, r20	; 0x0f
    20f8:	48 8b       	std	Y+16, r20	; 0x10
    20fa:	c1 01       	movw	r24, r2
    20fc:	86 19       	sub	r24, r6
    20fe:	97 09       	sbc	r25, r7
    2100:	9c 01       	movw	r18, r24
    2102:	99 0f       	add	r25, r25
    2104:	44 0b       	sbc	r20, r20
    2106:	89 8b       	std	Y+17, r24	; 0x11
    2108:	3a 8b       	std	Y+18, r19	; 0x12
    210a:	4b 8b       	std	Y+19, r20	; 0x13
    210c:	4c 8b       	std	Y+20, r20	; 0x14
    210e:	e2 19       	sub	r30, r2
    2110:	f3 09       	sbc	r31, r3
    2112:	cf 01       	movw	r24, r30
    2114:	ff 0f       	add	r31, r31
    2116:	aa 0b       	sbc	r26, r26
    2118:	ed 8b       	std	Y+21, r30	; 0x15
    211a:	9e 8b       	std	Y+22, r25	; 0x16
    211c:	af 8b       	std	Y+23, r26	; 0x17
    211e:	a8 8f       	std	Y+24, r26	; 0x18
    2120:	99 81       	ldd	r25, Y+1	; 0x01
    2122:	9b 8f       	std	Y+27, r25	; 0x1b
    2124:	aa 81       	ldd	r26, Y+2	; 0x02
    2126:	ac 8f       	std	Y+28, r26	; 0x1c
    2128:	8d 8e       	std	Y+29, r8	; 0x1d
    212a:	9d a2       	std	Y+37, r9	; 0x25
    212c:	92 01       	movw	r18, r4
    212e:	28 19       	sub	r18, r8
    2130:	39 09       	sbc	r19, r9
    2132:	2f 83       	std	Y+7, r18	; 0x07
    2134:	38 87       	std	Y+8, r19	; 0x08
    2136:	a4 01       	movw	r20, r8
    2138:	40 1b       	sub	r20, r16
    213a:	51 0b       	sbc	r21, r17
    213c:	49 8f       	std	Y+25, r20	; 0x19
    213e:	5a 8f       	std	Y+26, r21	; 0x1a
    2140:	aa cf       	rjmp	.-172    	; 0x2096 <.L175>

00002142 <.L172>:
    2142:	04 17       	cp	r16, r20
    2144:	15 07       	cpc	r17, r21
    2146:	0c f0       	brlt	.+2      	; 0x214a <L0+0x2>

00002148 <L0>:
    2148:	f8 ce       	rjmp	.-528    	; 0x1f3a <.L174>
    214a:	4c 01       	movw	r8, r24
    214c:	49 83       	std	Y+1, r20	; 0x01
    214e:	5a 83       	std	Y+2, r21	; 0x02
    2150:	39 01       	movw	r6, r18
    2152:	1b 01       	movw	r2, r22
    2154:	dc ce       	rjmp	.-584    	; 0x1f0e <.L185>

00002156 <vga_write>:
    2156:	8d 30       	cpi	r24, 0x0D	; 13
    2158:	49 f1       	breq	.+82     	; 0x21ac <.L194>
    215a:	20 91 af 04 	lds	r18, 0x04AF	; 0x8004af <textfont>
    215e:	22 30       	cpi	r18, 0x02	; 2
    2160:	41 f5       	brne	.+80     	; 0x21b2 <.L195>
    2162:	48 2f       	mov	r20, r24
    2164:	40 52       	subi	r20, 0x20	; 32
    2166:	55 0b       	sbc	r21, r21
    2168:	fa 01       	movw	r30, r20
    216a:	e4 57       	subi	r30, 0x74	; 116
    216c:	f8 4f       	sbci	r31, 0xF8	; 248
    216e:	44 91       	lpm	r20, Z
    2170:	50 e0       	ldi	r21, 0x00	; 0
    2172:	4a 5f       	subi	r20, 0xFA	; 250
    2174:	5f 4f       	sbci	r21, 0xFF	; 255
    2176:	48 7f       	andi	r20, 0xF8	; 248
    2178:	51 70       	andi	r21, 0x01	; 1
    217a:	60 e1       	ldi	r22, 0x10	; 16
    217c:	70 e0       	ldi	r23, 0x00	; 0

0000217e <.L196>:
    217e:	90 91 ae 04 	lds	r25, 0x04AE	; 0x8004ae <textsize>
    2182:	96 9f       	mul	r25, r22
    2184:	d0 01       	movw	r26, r0
    2186:	97 9f       	mul	r25, r23
    2188:	b0 0d       	add	r27, r0
    218a:	11 24       	eor	r1, r1
    218c:	60 91 b6 04 	lds	r22, 0x04B6	; 0x8004b6 <cursor_y>
    2190:	70 91 b7 04 	lds	r23, 0x04B7	; 0x8004b7 <cursor_y+0x1>
    2194:	8a 30       	cpi	r24, 0x0A	; 10
    2196:	b9 f4       	brne	.+46     	; 0x21c6 <.L197>
    2198:	6a 0f       	add	r22, r26
    219a:	7b 1f       	adc	r23, r27
    219c:	60 93 b6 04 	sts	0x04B6, r22	; 0x8004b6 <cursor_y>
    21a0:	70 93 b7 04 	sts	0x04B7, r23	; 0x8004b7 <cursor_y+0x1>
    21a4:	10 92 b8 04 	sts	0x04B8, r1	; 0x8004b8 <cursor_x>
    21a8:	10 92 b9 04 	sts	0x04B9, r1	; 0x8004b9 <cursor_x+0x1>

000021ac <.L194>:
    21ac:	81 e0       	ldi	r24, 0x01	; 1
    21ae:	90 e0       	ldi	r25, 0x00	; 0
    21b0:	08 95       	ret

000021b2 <.L195>:
    21b2:	60 e0       	ldi	r22, 0x00	; 0
    21b4:	70 e0       	ldi	r23, 0x00	; 0
    21b6:	ab 01       	movw	r20, r22
    21b8:	21 30       	cpi	r18, 0x01	; 1
    21ba:	09 f7       	brne	.-62     	; 0x217e <.L196>
    21bc:	68 e0       	ldi	r22, 0x08	; 8
    21be:	70 e0       	ldi	r23, 0x00	; 0
    21c0:	46 e0       	ldi	r20, 0x06	; 6
    21c2:	50 e0       	ldi	r21, 0x00	; 0
    21c4:	dc cf       	rjmp	.-72     	; 0x217e <.L196>

000021c6 <.L197>:
    21c6:	30 91 00 01 	lds	r19, 0x0100	; 0x800100 <__DATA_REGION_ORIGIN__>
    21ca:	31 15       	cp	r19, r1
    21cc:	c1 f0       	breq	.+48     	; 0x21fe <.L198>
    21ce:	94 9f       	mul	r25, r20
    21d0:	f0 01       	movw	r30, r0
    21d2:	95 9f       	mul	r25, r21
    21d4:	f0 0d       	add	r31, r0
    21d6:	11 24       	eor	r1, r1
    21d8:	40 91 b8 04 	lds	r20, 0x04B8	; 0x8004b8 <cursor_x>
    21dc:	50 91 b9 04 	lds	r21, 0x04B9	; 0x8004b9 <cursor_x+0x1>
    21e0:	4e 0f       	add	r20, r30
    21e2:	5f 1f       	adc	r21, r31
    21e4:	40 38       	cpi	r20, 0x80	; 128
    21e6:	52 40       	sbci	r21, 0x02	; 2
    21e8:	50 f0       	brcs	.+20     	; 0x21fe <.L198>
    21ea:	6a 0f       	add	r22, r26
    21ec:	7b 1f       	adc	r23, r27
    21ee:	60 93 b6 04 	sts	0x04B6, r22	; 0x8004b6 <cursor_y>
    21f2:	70 93 b7 04 	sts	0x04B7, r23	; 0x8004b7 <cursor_y+0x1>
    21f6:	10 92 b8 04 	sts	0x04B8, r1	; 0x8004b8 <cursor_x>
    21fa:	10 92 b9 04 	sts	0x04B9, r1	; 0x8004b9 <cursor_x+0x1>

000021fe <.L198>:
    21fe:	30 e0       	ldi	r19, 0x00	; 0
    2200:	40 91 b6 04 	lds	r20, 0x04B6	; 0x8004b6 <cursor_y>
    2204:	50 91 b7 04 	lds	r21, 0x04B7	; 0x8004b7 <cursor_y+0x1>
    2208:	60 91 b8 04 	lds	r22, 0x04B8	; 0x8004b8 <cursor_x>
    220c:	70 91 b9 04 	lds	r23, 0x04B9	; 0x8004b9 <cursor_x+0x1>
    2210:	90 e0       	ldi	r25, 0x00	; 0
    2212:	0e 94 10 0b 	call	0x1620	; 0x1620 <vga_drawChar>
    2216:	20 91 b8 04 	lds	r18, 0x04B8	; 0x8004b8 <cursor_x>
    221a:	30 91 b9 04 	lds	r19, 0x04B9	; 0x8004b9 <cursor_x+0x1>
    221e:	28 0f       	add	r18, r24
    2220:	39 1f       	adc	r19, r25
    2222:	20 93 b8 04 	sts	0x04B8, r18	; 0x8004b8 <cursor_x>
    2226:	30 93 b9 04 	sts	0x04B9, r19	; 0x8004b9 <cursor_x+0x1>
    222a:	c0 cf       	rjmp	.-128    	; 0x21ac <.L194>

0000222c <vga_Print>:
    222c:	cf 93       	push	r28
    222e:	df 93       	push	r29
    2230:	ec 01       	movw	r28, r24

00002232 <.L207>:
    2232:	88 81       	ld	r24, Y
    2234:	81 11       	cpse	r24, r1
    2236:	03 c0       	rjmp	.+6      	; 0x223e <.L208>
    2238:	df 91       	pop	r29
    223a:	cf 91       	pop	r28
    223c:	08 95       	ret

0000223e <.L208>:
    223e:	21 96       	adiw	r28, 0x01	; 1
    2240:	0e 94 ab 10 	call	0x2156	; 0x2156 <vga_write>
    2244:	f6 cf       	rjmp	.-20     	; 0x2232 <.L207>

00002246 <vga_Print_int16>:
    2246:	ff 92       	push	r15
    2248:	0f 93       	push	r16
    224a:	1f 93       	push	r17
    224c:	cf 93       	push	r28
    224e:	df 93       	push	r29
    2250:	cd b7       	in	r28, 0x3d	; 61
    2252:	de b7       	in	r29, 0x3e	; 62
    2254:	29 97       	sbiw	r28, 0x09	; 9
    2256:	0f b6       	in	r0, 0x3f	; 63
    2258:	f8 94       	cli
    225a:	de bf       	out	0x3e, r29	; 62
    225c:	0f be       	out	0x3f, r0	; 63
    225e:	cd bf       	out	0x3d, r28	; 61
    2260:	8c 01       	movw	r16, r24
    2262:	00 97       	sbiw	r24, 0x00	; 0
    2264:	34 f5       	brge	.+76     	; 0x22b2 <.L210>
    2266:	8f e6       	ldi	r24, 0x6F	; 111
    2268:	92 e0       	ldi	r25, 0x02	; 2
    226a:	0e 94 16 11 	call	0x222c	; 0x222c <vga_Print>
    226e:	11 95       	neg	r17
    2270:	01 95       	neg	r16
    2272:	11 09       	sbc	r17, r1

00002274 <.L212>:
    2274:	f1 2c       	mov	r15, r1
    2276:	2a e0       	ldi	r18, 0x0A	; 10
    2278:	30 e0       	ldi	r19, 0x00	; 0

0000227a <.L211>:
    227a:	c8 01       	movw	r24, r16
    227c:	b9 01       	movw	r22, r18
    227e:	0e 94 e3 31 	call	0x63c6	; 0x63c6 <__divmodhi4>
    2282:	fe 01       	movw	r30, r28
    2284:	31 96       	adiw	r30, 0x01	; 1
    2286:	ef 0d       	add	r30, r15
    2288:	f1 1d       	adc	r31, r1
    228a:	f3 94       	inc	r15
    228c:	80 5d       	subi	r24, 0xD0	; 208
    228e:	80 83       	st	Z, r24
    2290:	8b 01       	movw	r16, r22
    2292:	67 2b       	or	r22, r23
    2294:	91 f7       	brne	.-28     	; 0x227a <.L211>

00002296 <.L213>:
    2296:	f1 10       	cpse	r15, r1
    2298:	1c c0       	rjmp	.+56     	; 0x22d2 <.L214>
    229a:	29 96       	adiw	r28, 0x09	; 9
    229c:	0f b6       	in	r0, 0x3f	; 63
    229e:	f8 94       	cli
    22a0:	de bf       	out	0x3e, r29	; 62
    22a2:	0f be       	out	0x3f, r0	; 63
    22a4:	cd bf       	out	0x3d, r28	; 61
    22a6:	df 91       	pop	r29
    22a8:	cf 91       	pop	r28
    22aa:	1f 91       	pop	r17
    22ac:	0f 91       	pop	r16
    22ae:	ff 90       	pop	r15
    22b0:	08 95       	ret

000022b2 <.L210>:
    22b2:	01 f7       	brne	.-64     	; 0x2274 <.L212>
    22b4:	85 ef       	ldi	r24, 0xF5	; 245
    22b6:	93 e0       	ldi	r25, 0x03	; 3
    22b8:	29 96       	adiw	r28, 0x09	; 9
    22ba:	0f b6       	in	r0, 0x3f	; 63
    22bc:	f8 94       	cli
    22be:	de bf       	out	0x3e, r29	; 62
    22c0:	0f be       	out	0x3f, r0	; 63
    22c2:	cd bf       	out	0x3d, r28	; 61
    22c4:	df 91       	pop	r29
    22c6:	cf 91       	pop	r28
    22c8:	1f 91       	pop	r17
    22ca:	0f 91       	pop	r16
    22cc:	ff 90       	pop	r15
    22ce:	0c 94 16 11 	jmp	0x222c	; 0x222c <vga_Print>

000022d2 <.L214>:
    22d2:	fa 94       	dec	r15
    22d4:	fe 01       	movw	r30, r28
    22d6:	31 96       	adiw	r30, 0x01	; 1
    22d8:	ef 0d       	add	r30, r15
    22da:	f1 1d       	adc	r31, r1
    22dc:	80 81       	ld	r24, Z
    22de:	88 87       	std	Y+8, r24	; 0x08
    22e0:	19 86       	std	Y+9, r1	; 0x09
    22e2:	ce 01       	movw	r24, r28
    22e4:	08 96       	adiw	r24, 0x08	; 8
    22e6:	0e 94 16 11 	call	0x222c	; 0x222c <vga_Print>
    22ea:	d5 cf       	rjmp	.-86     	; 0x2296 <.L213>

000022ec <vga_print_int>:
    22ec:	cf 92       	push	r12
    22ee:	df 92       	push	r13
    22f0:	ef 92       	push	r14
    22f2:	ff 92       	push	r15
    22f4:	1f 93       	push	r17
    22f6:	cf 93       	push	r28
    22f8:	df 93       	push	r29
    22fa:	cd b7       	in	r28, 0x3d	; 61
    22fc:	de b7       	in	r29, 0x3e	; 62
    22fe:	2e 97       	sbiw	r28, 0x0e	; 14
    2300:	0f b6       	in	r0, 0x3f	; 63
    2302:	f8 94       	cli
    2304:	de bf       	out	0x3e, r29	; 62
    2306:	0f be       	out	0x3f, r0	; 63
    2308:	cd bf       	out	0x3d, r28	; 61
    230a:	6b 01       	movw	r12, r22
    230c:	7c 01       	movw	r14, r24
    230e:	c1 14       	cp	r12, r1
    2310:	d1 04       	cpc	r13, r1
    2312:	e1 04       	cpc	r14, r1
    2314:	f1 04       	cpc	r15, r1
    2316:	89 f4       	brne	.+34     	; 0x233a <.L217>
    2318:	85 ef       	ldi	r24, 0xF5	; 245
    231a:	93 e0       	ldi	r25, 0x03	; 3
    231c:	2e 96       	adiw	r28, 0x0e	; 14
    231e:	0f b6       	in	r0, 0x3f	; 63
    2320:	f8 94       	cli
    2322:	de bf       	out	0x3e, r29	; 62
    2324:	0f be       	out	0x3f, r0	; 63
    2326:	cd bf       	out	0x3d, r28	; 61
    2328:	df 91       	pop	r29
    232a:	cf 91       	pop	r28
    232c:	1f 91       	pop	r17
    232e:	ff 90       	pop	r15
    2330:	ef 90       	pop	r14
    2332:	df 90       	pop	r13
    2334:	cf 90       	pop	r12
    2336:	0c 94 16 11 	jmp	0x222c	; 0x222c <vga_Print>

0000233a <.L217>:
    233a:	64 f4       	brge	.+24     	; 0x2354 <.L218>
    233c:	8f e6       	ldi	r24, 0x6F	; 111
    233e:	92 e0       	ldi	r25, 0x02	; 2
    2340:	0e 94 16 11 	call	0x222c	; 0x222c <vga_Print>
    2344:	f0 94       	com	r15
    2346:	e0 94       	com	r14
    2348:	d0 94       	com	r13
    234a:	c0 94       	com	r12
    234c:	c1 1c       	adc	r12, r1
    234e:	d1 1c       	adc	r13, r1
    2350:	e1 1c       	adc	r14, r1
    2352:	f1 1c       	adc	r15, r1

00002354 <.L218>:
    2354:	10 e0       	ldi	r17, 0x00	; 0

00002356 <.L219>:
    2356:	b6 01       	movw	r22, r12
    2358:	c7 01       	movw	r24, r14
    235a:	2a e0       	ldi	r18, 0x0A	; 10
    235c:	30 e0       	ldi	r19, 0x00	; 0
    235e:	40 e0       	ldi	r20, 0x00	; 0
    2360:	50 e0       	ldi	r21, 0x00	; 0
    2362:	0e 94 19 32 	call	0x6432	; 0x6432 <__divmodsi4>
    2366:	fe 01       	movw	r30, r28
    2368:	31 96       	adiw	r30, 0x01	; 1
    236a:	e1 0f       	add	r30, r17
    236c:	f1 1d       	adc	r31, r1
    236e:	1f 5f       	subi	r17, 0xFF	; 255
    2370:	60 5d       	subi	r22, 0xD0	; 208
    2372:	60 83       	st	Z, r22
    2374:	69 01       	movw	r12, r18
    2376:	7a 01       	movw	r14, r20
    2378:	c1 14       	cp	r12, r1
    237a:	d1 04       	cpc	r13, r1
    237c:	e1 04       	cpc	r14, r1
    237e:	f1 04       	cpc	r15, r1
    2380:	51 f7       	brne	.-44     	; 0x2356 <.L219>

00002382 <.L220>:
    2382:	11 11       	cpse	r17, r1
    2384:	0e c0       	rjmp	.+28     	; 0x23a2 <.L221>
    2386:	2e 96       	adiw	r28, 0x0e	; 14
    2388:	0f b6       	in	r0, 0x3f	; 63
    238a:	f8 94       	cli
    238c:	de bf       	out	0x3e, r29	; 62
    238e:	0f be       	out	0x3f, r0	; 63
    2390:	cd bf       	out	0x3d, r28	; 61
    2392:	df 91       	pop	r29
    2394:	cf 91       	pop	r28
    2396:	1f 91       	pop	r17
    2398:	ff 90       	pop	r15
    239a:	ef 90       	pop	r14
    239c:	df 90       	pop	r13
    239e:	cf 90       	pop	r12
    23a0:	08 95       	ret

000023a2 <.L221>:
    23a2:	11 50       	subi	r17, 0x01	; 1
    23a4:	fe 01       	movw	r30, r28
    23a6:	31 96       	adiw	r30, 0x01	; 1
    23a8:	e1 0f       	add	r30, r17
    23aa:	f1 1d       	adc	r31, r1
    23ac:	80 81       	ld	r24, Z
    23ae:	8d 87       	std	Y+13, r24	; 0x0d
    23b0:	1e 86       	std	Y+14, r1	; 0x0e
    23b2:	ce 01       	movw	r24, r28
    23b4:	0d 96       	adiw	r24, 0x0d	; 13
    23b6:	0e 94 16 11 	call	0x222c	; 0x222c <vga_Print>
    23ba:	e3 cf       	rjmp	.-58     	; 0x2382 <.L220>

000023bc <vga_print_float>:
    23bc:	cf 92       	push	r12
    23be:	df 92       	push	r13
    23c0:	ef 92       	push	r14
    23c2:	ff 92       	push	r15
    23c4:	cf 93       	push	r28
    23c6:	df 93       	push	r29
    23c8:	00 d0       	rcall	.+0      	; 0x23ca <L0>

000023ca <L0>:
    23ca:	00 d0       	rcall	.+0      	; 0x23cc <L0>

000023cc <L0>:
    23cc:	00 d0       	rcall	.+0      	; 0x23ce <L0>

000023ce <L0>:
    23ce:	cd b7       	in	r28, 0x3d	; 61
    23d0:	de b7       	in	r29, 0x3e	; 62
    23d2:	6b 01       	movw	r12, r22
    23d4:	7c 01       	movw	r14, r24
    23d6:	4d 83       	std	Y+5, r20	; 0x05
    23d8:	40 e0       	ldi	r20, 0x00	; 0
    23da:	50 e0       	ldi	r21, 0x00	; 0
    23dc:	9a 01       	movw	r18, r20
    23de:	0e 94 14 33 	call	0x6628	; 0x6628 <__cmpsf2>
    23e2:	87 ff       	sbrs	r24, 7
    23e4:	08 c0       	rjmp	.+16     	; 0x23f6 <.L224>
    23e6:	8f e6       	ldi	r24, 0x6F	; 111
    23e8:	92 e0       	ldi	r25, 0x02	; 2
    23ea:	0e 94 16 11 	call	0x222c	; 0x222c <vga_Print>
    23ee:	f7 fa       	bst	r15, 7
    23f0:	f0 94       	com	r15
    23f2:	f7 f8       	bld	r15, 7
    23f4:	f0 94       	com	r15

000023f6 <.L224>:
    23f6:	b6 01       	movw	r22, r12
    23f8:	c7 01       	movw	r24, r14
    23fa:	0e 94 92 33 	call	0x6724	; 0x6724 <__fixunssfsi>
    23fe:	69 83       	std	Y+1, r22	; 0x01
    2400:	7a 83       	std	Y+2, r23	; 0x02
    2402:	8b 83       	std	Y+3, r24	; 0x03
    2404:	9c 83       	std	Y+4, r25	; 0x04
    2406:	0e 94 76 11 	call	0x22ec	; 0x22ec <vga_print_int>
    240a:	2d 81       	ldd	r18, Y+5	; 0x05
    240c:	21 15       	cp	r18, r1
    240e:	e1 f1       	breq	.+120    	; 0x2488 <.L223>
    2410:	83 e0       	ldi	r24, 0x03	; 3
    2412:	93 e0       	ldi	r25, 0x03	; 3
    2414:	0e 94 16 11 	call	0x222c	; 0x222c <vga_Print>
    2418:	69 81       	ldd	r22, Y+1	; 0x01
    241a:	7a 81       	ldd	r23, Y+2	; 0x02
    241c:	8b 81       	ldd	r24, Y+3	; 0x03
    241e:	9c 81       	ldd	r25, Y+4	; 0x04
    2420:	0e 94 c7 33 	call	0x678e	; 0x678e <__floatunsisf>
    2424:	9b 01       	movw	r18, r22
    2426:	ac 01       	movw	r20, r24
    2428:	b6 01       	movw	r22, r12
    242a:	c7 01       	movw	r24, r14
    242c:	0e 94 a7 32 	call	0x654e	; 0x654e <__subsf3>
    2430:	e6 2f       	mov	r30, r22
    2432:	1e 82       	std	Y+6, r1	; 0x06

00002434 <.L227>:
    2434:	20 e0       	ldi	r18, 0x00	; 0
    2436:	30 e0       	ldi	r19, 0x00	; 0
    2438:	40 e2       	ldi	r20, 0x20	; 32
    243a:	51 e4       	ldi	r21, 0x41	; 65
    243c:	ce 2e       	mov	r12, r30
    243e:	d7 2e       	mov	r13, r23
    2440:	b6 01       	movw	r22, r12
    2442:	0e 94 cc 34 	call	0x6998	; 0x6998 <__mulsf3>
    2446:	69 83       	std	Y+1, r22	; 0x01
    2448:	7a 83       	std	Y+2, r23	; 0x02
    244a:	8b 83       	std	Y+3, r24	; 0x03
    244c:	9c 83       	std	Y+4, r25	; 0x04
    244e:	0e 94 92 33 	call	0x6724	; 0x6724 <__fixunssfsi>
    2452:	c6 2e       	mov	r12, r22
    2454:	d1 2c       	mov	r13, r1
    2456:	e1 2c       	mov	r14, r1
    2458:	f1 2c       	mov	r15, r1
    245a:	b6 01       	movw	r22, r12
    245c:	c7 01       	movw	r24, r14
    245e:	0e 94 76 11 	call	0x22ec	; 0x22ec <vga_print_int>
    2462:	b6 01       	movw	r22, r12
    2464:	c7 01       	movw	r24, r14
    2466:	0e 94 c7 33 	call	0x678e	; 0x678e <__floatunsisf>
    246a:	9b 01       	movw	r18, r22
    246c:	ac 01       	movw	r20, r24
    246e:	69 81       	ldd	r22, Y+1	; 0x01
    2470:	7a 81       	ldd	r23, Y+2	; 0x02
    2472:	8b 81       	ldd	r24, Y+3	; 0x03
    2474:	9c 81       	ldd	r25, Y+4	; 0x04
    2476:	0e 94 a7 32 	call	0x654e	; 0x654e <__subsf3>
    247a:	e6 2f       	mov	r30, r22
    247c:	3e 81       	ldd	r19, Y+6	; 0x06
    247e:	3f 5f       	subi	r19, 0xFF	; 255
    2480:	3e 83       	std	Y+6, r19	; 0x06
    2482:	2d 81       	ldd	r18, Y+5	; 0x05
    2484:	23 13       	cpse	r18, r19
    2486:	d6 cf       	rjmp	.-84     	; 0x2434 <.L227>

00002488 <.L223>:
    2488:	0f 90       	pop	r0
    248a:	0f 90       	pop	r0
    248c:	0f 90       	pop	r0
    248e:	0f 90       	pop	r0
    2490:	0f 90       	pop	r0
    2492:	0f 90       	pop	r0
    2494:	df 91       	pop	r29
    2496:	cf 91       	pop	r28
    2498:	ff 90       	pop	r15
    249a:	ef 90       	pop	r14
    249c:	df 90       	pop	r13
    249e:	cf 90       	pop	r12
    24a0:	08 95       	ret

000024a2 <vga_drawLine_Clipped>:
    24a2:	2f 92       	push	r2
    24a4:	3f 92       	push	r3
    24a6:	4f 92       	push	r4
    24a8:	5f 92       	push	r5
    24aa:	6f 92       	push	r6
    24ac:	7f 92       	push	r7
    24ae:	8f 92       	push	r8
    24b0:	9f 92       	push	r9
    24b2:	af 92       	push	r10
    24b4:	bf 92       	push	r11
    24b6:	cf 92       	push	r12
    24b8:	df 92       	push	r13
    24ba:	ef 92       	push	r14
    24bc:	ff 92       	push	r15
    24be:	0f 93       	push	r16
    24c0:	1f 93       	push	r17
    24c2:	cf 93       	push	r28
    24c4:	df 93       	push	r29
    24c6:	cd b7       	in	r28, 0x3d	; 61
    24c8:	de b7       	in	r29, 0x3e	; 62
    24ca:	28 97       	sbiw	r28, 0x08	; 8
    24cc:	0f b6       	in	r0, 0x3f	; 63
    24ce:	f8 94       	cli
    24d0:	de bf       	out	0x3e, r29	; 62
    24d2:	0f be       	out	0x3f, r0	; 63
    24d4:	cd bf       	out	0x3d, r28	; 61
    24d6:	fa 01       	movw	r30, r20
    24d8:	0b 83       	std	Y+3, r16	; 0x03
    24da:	1c 83       	std	Y+4, r17	; 0x04
    24dc:	37 01       	movw	r6, r14
    24de:	cf 82       	std	Y+7, r12	; 0x07
    24e0:	d8 86       	std	Y+8, r13	; 0x08
    24e2:	84 17       	cp	r24, r20
    24e4:	95 07       	cpc	r25, r21
    24e6:	e9 f5       	brne	.+122    	; 0x2562 <.L234>
    24e8:	56 2f       	mov	r21, r22
    24ea:	47 2f       	mov	r20, r23
    24ec:	26 17       	cp	r18, r22
    24ee:	37 07       	cpc	r19, r23
    24f0:	10 f4       	brcc	.+4      	; 0x24f6 <.L235>
    24f2:	52 2f       	mov	r21, r18
    24f4:	43 2f       	mov	r20, r19

000024f6 <.L235>:
    24f6:	e5 2f       	mov	r30, r21
    24f8:	f4 2f       	mov	r31, r20
    24fa:	e6 15       	cp	r30, r6
    24fc:	f7 05       	cpc	r31, r7
    24fe:	08 f4       	brcc	.+2      	; 0x2502 <.L236>
    2500:	f3 01       	movw	r30, r6

00002502 <.L236>:
    2502:	ab 01       	movw	r20, r22
    2504:	62 17       	cp	r22, r18
    2506:	73 07       	cpc	r23, r19
    2508:	08 f4       	brcc	.+2      	; 0x250c <.L237>
    250a:	a9 01       	movw	r20, r18

0000250c <.L237>:
    250c:	2f 81       	ldd	r18, Y+7	; 0x07
    250e:	38 85       	ldd	r19, Y+8	; 0x08
    2510:	24 17       	cp	r18, r20
    2512:	35 07       	cpc	r19, r21
    2514:	08 f4       	brcc	.+2      	; 0x2518 <.L238>
    2516:	a9 01       	movw	r20, r18

00002518 <.L238>:
    2518:	4e 17       	cp	r20, r30
    251a:	5f 07       	cpc	r21, r31
    251c:	0c f4       	brge	.+2      	; 0x2520 <L0+0x2>

0000251e <L0>:
    251e:	c0 c0       	rjmp	.+384    	; 0x26a0 <.L233>
    2520:	4e 1b       	sub	r20, r30
    2522:	5f 0b       	sbc	r21, r31
    2524:	4f 5f       	subi	r20, 0xFF	; 255
    2526:	5f 4f       	sbci	r21, 0xFF	; 255
    2528:	2b 81       	ldd	r18, Y+3	; 0x03
    252a:	3c 81       	ldd	r19, Y+4	; 0x04
    252c:	bf 01       	movw	r22, r30
    252e:	28 96       	adiw	r28, 0x08	; 8
    2530:	0f b6       	in	r0, 0x3f	; 63
    2532:	f8 94       	cli
    2534:	de bf       	out	0x3e, r29	; 62
    2536:	0f be       	out	0x3f, r0	; 63
    2538:	cd bf       	out	0x3d, r28	; 61
    253a:	df 91       	pop	r29
    253c:	cf 91       	pop	r28
    253e:	1f 91       	pop	r17
    2540:	0f 91       	pop	r16
    2542:	ff 90       	pop	r15
    2544:	ef 90       	pop	r14
    2546:	df 90       	pop	r13
    2548:	cf 90       	pop	r12
    254a:	bf 90       	pop	r11
    254c:	af 90       	pop	r10
    254e:	9f 90       	pop	r9
    2550:	8f 90       	pop	r8
    2552:	7f 90       	pop	r7
    2554:	6f 90       	pop	r6
    2556:	5f 90       	pop	r5
    2558:	4f 90       	pop	r4
    255a:	3f 90       	pop	r3
    255c:	2f 90       	pop	r2
    255e:	0c 94 fc 0c 	jmp	0x19f8	; 0x19f8 <vga_drawFastVLine>

00002562 <.L234>:
    2562:	62 17       	cp	r22, r18
    2564:	73 07       	cpc	r23, r19
    2566:	91 f5       	brne	.+100    	; 0x25cc <.L241>
    2568:	6e 15       	cp	r22, r14
    256a:	7f 05       	cpc	r23, r15
    256c:	08 f4       	brcc	.+2      	; 0x2570 <L0+0x2>

0000256e <L0>:
    256e:	98 c0       	rjmp	.+304    	; 0x26a0 <.L233>
    2570:	2f 81       	ldd	r18, Y+7	; 0x07
    2572:	38 85       	ldd	r19, Y+8	; 0x08
    2574:	26 17       	cp	r18, r22
    2576:	37 07       	cpc	r19, r23
    2578:	08 f4       	brcc	.+2      	; 0x257c <L0+0x2>

0000257a <L0>:
    257a:	92 c0       	rjmp	.+292    	; 0x26a0 <.L233>
    257c:	48 1b       	sub	r20, r24
    257e:	59 0b       	sbc	r21, r25
    2580:	1a f4       	brpl	.+6      	; 0x2588 <.L243>
    2582:	ac 01       	movw	r20, r24
    2584:	4e 1b       	sub	r20, r30
    2586:	5f 0b       	sbc	r21, r31

00002588 <.L243>:
    2588:	4f 5f       	subi	r20, 0xFF	; 255
    258a:	5f 4f       	sbci	r21, 0xFF	; 255
    258c:	e8 17       	cp	r30, r24
    258e:	f9 07       	cpc	r31, r25
    2590:	08 f4       	brcc	.+2      	; 0x2594 <.L244>
    2592:	cf 01       	movw	r24, r30

00002594 <.L244>:
    2594:	2b 81       	ldd	r18, Y+3	; 0x03
    2596:	3c 81       	ldd	r19, Y+4	; 0x04
    2598:	28 96       	adiw	r28, 0x08	; 8
    259a:	0f b6       	in	r0, 0x3f	; 63
    259c:	f8 94       	cli
    259e:	de bf       	out	0x3e, r29	; 62
    25a0:	0f be       	out	0x3f, r0	; 63
    25a2:	cd bf       	out	0x3d, r28	; 61
    25a4:	df 91       	pop	r29
    25a6:	cf 91       	pop	r28
    25a8:	1f 91       	pop	r17
    25aa:	0f 91       	pop	r16
    25ac:	ff 90       	pop	r15
    25ae:	ef 90       	pop	r14
    25b0:	df 90       	pop	r13
    25b2:	cf 90       	pop	r12
    25b4:	bf 90       	pop	r11
    25b6:	af 90       	pop	r10
    25b8:	9f 90       	pop	r9
    25ba:	8f 90       	pop	r8
    25bc:	7f 90       	pop	r7
    25be:	6f 90       	pop	r6
    25c0:	5f 90       	pop	r5
    25c2:	4f 90       	pop	r4
    25c4:	3f 90       	pop	r3
    25c6:	2f 90       	pop	r2
    25c8:	0c 94 d5 0c 	jmp	0x19aa	; 0x19aa <vga_drawFastHLine>

000025cc <.L241>:
    25cc:	ac 01       	movw	r20, r24
    25ce:	6b 01       	movw	r12, r22
    25d0:	7f 01       	movw	r14, r30
    25d2:	89 01       	movw	r16, r18
    25d4:	19 01       	movw	r2, r18
    25d6:	26 1a       	sub	r2, r22
    25d8:	37 0a       	sbc	r3, r23
    25da:	1a f4       	brpl	.+6      	; 0x25e2 <.L245>
    25dc:	1b 01       	movw	r2, r22
    25de:	22 1a       	sub	r2, r18
    25e0:	33 0a       	sbc	r3, r19

000025e2 <.L245>:
    25e2:	2f 01       	movw	r4, r30
    25e4:	48 1a       	sub	r4, r24
    25e6:	59 0a       	sbc	r5, r25
    25e8:	1a f4       	brpl	.+6      	; 0x25f0 <.L246>
    25ea:	2c 01       	movw	r4, r24
    25ec:	4e 1a       	sub	r4, r30
    25ee:	5f 0a       	sbc	r5, r31

000025f0 <.L246>:
    25f0:	42 14       	cp	r4, r2
    25f2:	53 04       	cpc	r5, r3
    25f4:	24 f0       	brlt	.+8      	; 0x25fe <.L247>
    25f6:	8f 01       	movw	r16, r30
    25f8:	79 01       	movw	r14, r18
    25fa:	6c 01       	movw	r12, r24
    25fc:	ab 01       	movw	r20, r22

000025fe <.L247>:
    25fe:	0c 15       	cp	r16, r12
    2600:	1d 05       	cpc	r17, r13
    2602:	54 f0       	brlt	.+20     	; 0x2618 <.L248>
    2604:	9e 2d       	mov	r25, r14
    2606:	8f 2d       	mov	r24, r15
    2608:	7a 01       	movw	r14, r20
    260a:	49 2f       	mov	r20, r25
    260c:	58 2f       	mov	r21, r24
    260e:	90 2f       	mov	r25, r16
    2610:	81 2f       	mov	r24, r17
    2612:	86 01       	movw	r16, r12
    2614:	c9 2e       	mov	r12, r25
    2616:	d8 2e       	mov	r13, r24

00002618 <.L248>:
    2618:	46 01       	movw	r8, r12
    261a:	80 1a       	sub	r8, r16
    261c:	91 0a       	sbc	r9, r17
    261e:	ca 01       	movw	r24, r20
    2620:	8e 19       	sub	r24, r14
    2622:	9f 09       	sbc	r25, r15
    2624:	89 83       	std	Y+1, r24	; 0x01
    2626:	9a 83       	std	Y+2, r25	; 0x02
    2628:	97 ff       	sbrs	r25, 7
    262a:	05 c0       	rjmp	.+10     	; 0x2636 <.L249>
    262c:	97 01       	movw	r18, r14
    262e:	24 1b       	sub	r18, r20
    2630:	35 0b       	sbc	r19, r21
    2632:	29 83       	std	Y+1, r18	; 0x01
    2634:	3a 83       	std	Y+2, r19	; 0x02

00002636 <.L249>:
    2636:	54 01       	movw	r10, r8
    2638:	97 fe       	sbrs	r9, 7
    263a:	03 c0       	rjmp	.+6      	; 0x2642 <.L250>
    263c:	3f ef       	ldi	r19, 0xFF	; 255
    263e:	a3 1a       	sub	r10, r19
    2640:	b3 0a       	sbc	r11, r19

00002642 <.L250>:
    2642:	b5 94       	asr	r11
    2644:	a7 94       	ror	r10
    2646:	8f ef       	ldi	r24, 0xFF	; 255
    2648:	9f ef       	ldi	r25, 0xFF	; 255
    264a:	e4 16       	cp	r14, r20
    264c:	f5 06       	cpc	r15, r21
    264e:	14 f4       	brge	.+4      	; 0x2654 <.L259>
    2650:	81 e0       	ldi	r24, 0x01	; 1
    2652:	90 e0       	ldi	r25, 0x00	; 0

00002654 <.L259>:
    2654:	8d 83       	std	Y+5, r24	; 0x05
    2656:	9e 83       	std	Y+6, r25	; 0x06
    2658:	20 c0       	rjmp	.+64     	; 0x269a <.L256>

0000265a <.L257>:
    265a:	c7 01       	movw	r24, r14
    265c:	b8 01       	movw	r22, r16
    265e:	42 14       	cp	r4, r2
    2660:	53 04       	cpc	r5, r3
    2662:	14 f0       	brlt	.+4      	; 0x2668 <.L253>
    2664:	c8 01       	movw	r24, r16
    2666:	b7 01       	movw	r22, r14

00002668 <.L253>:
    2668:	66 15       	cp	r22, r6
    266a:	77 05       	cpc	r23, r7
    266c:	48 f0       	brcs	.+18     	; 0x2680 <.L254>
    266e:	2f 81       	ldd	r18, Y+7	; 0x07
    2670:	38 85       	ldd	r19, Y+8	; 0x08
    2672:	26 17       	cp	r18, r22
    2674:	37 07       	cpc	r19, r23
    2676:	20 f0       	brcs	.+8      	; 0x2680 <.L254>
    2678:	4b 81       	ldd	r20, Y+3	; 0x03
    267a:	5c 81       	ldd	r21, Y+4	; 0x04
    267c:	0e 94 93 09 	call	0x1326	; 0x1326 <vga_pixel_fast>

00002680 <.L254>:
    2680:	89 81       	ldd	r24, Y+1	; 0x01
    2682:	9a 81       	ldd	r25, Y+2	; 0x02
    2684:	a8 1a       	sub	r10, r24
    2686:	b9 0a       	sbc	r11, r25
    2688:	32 f4       	brpl	.+12     	; 0x2696 <.L255>
    268a:	2d 81       	ldd	r18, Y+5	; 0x05
    268c:	3e 81       	ldd	r19, Y+6	; 0x06
    268e:	e2 0e       	add	r14, r18
    2690:	f3 1e       	adc	r15, r19
    2692:	a8 0c       	add	r10, r8
    2694:	b9 1c       	adc	r11, r9

00002696 <.L255>:
    2696:	0f 5f       	subi	r16, 0xFF	; 255
    2698:	1f 4f       	sbci	r17, 0xFF	; 255

0000269a <.L256>:
    269a:	c0 16       	cp	r12, r16
    269c:	d1 06       	cpc	r13, r17
    269e:	ec f6       	brge	.-70     	; 0x265a <.L257>

000026a0 <.L233>:
    26a0:	28 96       	adiw	r28, 0x08	; 8
    26a2:	0f b6       	in	r0, 0x3f	; 63
    26a4:	f8 94       	cli
    26a6:	de bf       	out	0x3e, r29	; 62
    26a8:	0f be       	out	0x3f, r0	; 63
    26aa:	cd bf       	out	0x3d, r28	; 61
    26ac:	df 91       	pop	r29
    26ae:	cf 91       	pop	r28
    26b0:	1f 91       	pop	r17
    26b2:	0f 91       	pop	r16
    26b4:	ff 90       	pop	r15
    26b6:	ef 90       	pop	r14
    26b8:	df 90       	pop	r13
    26ba:	cf 90       	pop	r12
    26bc:	bf 90       	pop	r11
    26be:	af 90       	pop	r10
    26c0:	9f 90       	pop	r9
    26c2:	8f 90       	pop	r8
    26c4:	7f 90       	pop	r7
    26c6:	6f 90       	pop	r6
    26c8:	5f 90       	pop	r5
    26ca:	4f 90       	pop	r4
    26cc:	3f 90       	pop	r3
    26ce:	2f 90       	pop	r2
    26d0:	08 95       	ret

000026d2 <append_str>:
    26d2:	db 01       	movw	r26, r22
    26d4:	fc 01       	movw	r30, r24

000026d6 <.L2>:
    26d6:	8c 91       	ld	r24, X
    26d8:	81 11       	cpse	r24, r1
    26da:	03 c0       	rjmp	.+6      	; 0x26e2 <.L3>
    26dc:	10 82       	st	Z, r1
    26de:	cf 01       	movw	r24, r30
    26e0:	08 95       	ret

000026e2 <.L3>:
    26e2:	11 96       	adiw	r26, 0x01	; 1
    26e4:	81 93       	st	Z+, r24
    26e6:	f7 cf       	rjmp	.-18     	; 0x26d6 <.L2>

000026e8 <get_system_status_code>:
    26e8:	80 91 5d 01 	lds	r24, 0x015D	; 0x80015d <is_running>
    26ec:	81 15       	cp	r24, r1
    26ee:	89 f0       	breq	.+34     	; 0x2712 <.L4>
    26f0:	95 b7       	in	r25, 0x35	; 53
    26f2:	80 91 5c 15 	lds	r24, 0x155C	; 0x80155c <trigger_mode>
    26f6:	82 30       	cpi	r24, 0x02	; 2
    26f8:	29 f4       	brne	.+10     	; 0x2704 <.L6>
    26fa:	80 91 5f 15 	lds	r24, 0x155F	; 0x80155f <freeze>
    26fe:	91 e0       	ldi	r25, 0x01	; 1
    2700:	89 27       	eor	r24, r25
    2702:	08 95       	ret

00002704 <.L6>:
    2704:	81 30       	cpi	r24, 0x01	; 1
    2706:	21 f4       	brne	.+8      	; 0x2710 <.L8>
    2708:	91 ff       	sbrs	r25, 1
    270a:	03 c0       	rjmp	.+6      	; 0x2712 <.L4>
    270c:	82 e0       	ldi	r24, 0x02	; 2
    270e:	08 95       	ret

00002710 <.L8>:
    2710:	83 e0       	ldi	r24, 0x03	; 3

00002712 <.L4>:
    2712:	08 95       	ret

00002714 <drawTextButton>:
    2714:	af 92       	push	r10
    2716:	bf 92       	push	r11
    2718:	cf 92       	push	r12
    271a:	ef 92       	push	r14
    271c:	ff 92       	push	r15
    271e:	0f 93       	push	r16
    2720:	1f 93       	push	r17
    2722:	cf 93       	push	r28
    2724:	df 93       	push	r29
    2726:	00 d0       	rcall	.+0      	; 0x2728 <L0>

00002728 <L0>:
    2728:	00 d0       	rcall	.+0      	; 0x272a <L0>

0000272a <L0>:
    272a:	00 d0       	rcall	.+0      	; 0x272c <L0>

0000272c <L0>:
    272c:	cd b7       	in	r28, 0x3d	; 61
    272e:	de b7       	in	r29, 0x3e	; 62
    2730:	69 83       	std	Y+1, r22	; 0x01
    2732:	7a 83       	std	Y+2, r23	; 0x02
    2734:	4b 83       	std	Y+3, r20	; 0x03
    2736:	5c 83       	std	Y+4, r21	; 0x04
    2738:	59 01       	movw	r10, r18
    273a:	9c e4       	ldi	r25, 0x4C	; 76
    273c:	89 9f       	mul	r24, r25
    273e:	90 01       	movw	r18, r0
    2740:	11 24       	eor	r1, r1
    2742:	2d 83       	std	Y+5, r18	; 0x05
    2744:	3e 83       	std	Y+6, r19	; 0x06
    2746:	b9 01       	movw	r22, r18
    2748:	64 5c       	subi	r22, 0xC4	; 196
    274a:	7f 4f       	sbci	r23, 0xFF	; 255
    274c:	00 e0       	ldi	r16, 0x00	; 0
    274e:	10 e0       	ldi	r17, 0x00	; 0
    2750:	27 e3       	ldi	r18, 0x37	; 55
    2752:	30 e0       	ldi	r19, 0x00	; 0
    2754:	48 e6       	ldi	r20, 0x68	; 104
    2756:	50 e0       	ldi	r21, 0x00	; 0
    2758:	82 e1       	ldi	r24, 0x12	; 18
    275a:	92 e0       	ldi	r25, 0x02	; 2
    275c:	0e 94 eb 09 	call	0x13d6	; 0x13d6 <vga_fillRect>
    2760:	6d 81       	ldd	r22, Y+5	; 0x05
    2762:	7e 81       	ldd	r23, Y+6	; 0x06
    2764:	68 5d       	subi	r22, 0xD8	; 216
    2766:	7f 4f       	sbci	r23, 0xFF	; 255
    2768:	95 01       	movw	r18, r10
    276a:	44 e6       	ldi	r20, 0x64	; 100
    276c:	50 e0       	ldi	r21, 0x00	; 0
    276e:	87 e1       	ldi	r24, 0x17	; 23
    2770:	92 e0       	ldi	r25, 0x02	; 2
    2772:	0e 94 d5 0c 	call	0x19aa	; 0x19aa <vga_drawFastHLine>
    2776:	2d 81       	ldd	r18, Y+5	; 0x05
    2778:	3e 81       	ldd	r19, Y+6	; 0x06
    277a:	25 5b       	subi	r18, 0xB5	; 181
    277c:	3f 4f       	sbci	r19, 0xFF	; 255
    277e:	82 e0       	ldi	r24, 0x02	; 2
    2780:	c8 2e       	mov	r12, r24
    2782:	78 01       	movw	r14, r16
    2784:	85 01       	movw	r16, r10
    2786:	4f e7       	ldi	r20, 0x7F	; 127
    2788:	52 e0       	ldi	r21, 0x02	; 2
    278a:	62 e1       	ldi	r22, 0x12	; 18
    278c:	72 e0       	ldi	r23, 0x02	; 2
    278e:	89 81       	ldd	r24, Y+1	; 0x01
    2790:	9a 81       	ldd	r25, Y+2	; 0x02
    2792:	0e 94 ec 0e 	call	0x1dd8	; 0x1dd8 <vga_printCenteredX>
    2796:	2d 81       	ldd	r18, Y+5	; 0x05
    2798:	3e 81       	ldd	r19, Y+6	; 0x06
    279a:	24 5a       	subi	r18, 0xA4	; 164
    279c:	3f 4f       	sbci	r19, 0xFF	; 255
    279e:	4f e7       	ldi	r20, 0x7F	; 127
    27a0:	52 e0       	ldi	r21, 0x02	; 2
    27a2:	62 e1       	ldi	r22, 0x12	; 18
    27a4:	72 e0       	ldi	r23, 0x02	; 2
    27a6:	8b 81       	ldd	r24, Y+3	; 0x03
    27a8:	9c 81       	ldd	r25, Y+4	; 0x04
    27aa:	0e 94 ec 0e 	call	0x1dd8	; 0x1dd8 <vga_printCenteredX>
    27ae:	0f 90       	pop	r0
    27b0:	0f 90       	pop	r0
    27b2:	0f 90       	pop	r0
    27b4:	0f 90       	pop	r0
    27b6:	0f 90       	pop	r0
    27b8:	0f 90       	pop	r0
    27ba:	df 91       	pop	r29
    27bc:	cf 91       	pop	r28
    27be:	1f 91       	pop	r17
    27c0:	0f 91       	pop	r16
    27c2:	ff 90       	pop	r15
    27c4:	ef 90       	pop	r14
    27c6:	cf 90       	pop	r12
    27c8:	bf 90       	pop	r11
    27ca:	af 90       	pop	r10
    27cc:	08 95       	ret

000027ce <draw_channel_status>:
    27ce:	8f 92       	push	r8
    27d0:	9f 92       	push	r9
    27d2:	af 92       	push	r10
    27d4:	bf 92       	push	r11
    27d6:	ef 92       	push	r14
    27d8:	ff 92       	push	r15
    27da:	0f 93       	push	r16
    27dc:	1f 93       	push	r17
    27de:	cf 93       	push	r28
    27e0:	df 93       	push	r29
    27e2:	cd b7       	in	r28, 0x3d	; 61
    27e4:	de b7       	in	r29, 0x3e	; 62
    27e6:	29 97       	sbiw	r28, 0x09	; 9
    27e8:	0f b6       	in	r0, 0x3f	; 63
    27ea:	f8 94       	cli
    27ec:	de bf       	out	0x3e, r29	; 62
    27ee:	0f be       	out	0x3f, r0	; 63
    27f0:	cd bf       	out	0x3d, r28	; 61
    27f2:	88 87       	std	Y+8, r24	; 0x08
    27f4:	99 87       	std	Y+9, r25	; 0x09
    27f6:	69 83       	std	Y+1, r22	; 0x01
    27f8:	7a 83       	std	Y+2, r23	; 0x02
    27fa:	4d 83       	std	Y+5, r20	; 0x05
    27fc:	5e 83       	std	Y+6, r21	; 0x06
    27fe:	2f 83       	std	Y+7, r18	; 0x07
    2800:	fc 01       	movw	r30, r24
    2802:	82 80       	ldd	r8, Z+2	; 0x02
    2804:	93 80       	ldd	r9, Z+3	; 0x03
    2806:	a4 80       	ldd	r10, Z+4	; 0x04
    2808:	b5 80       	ldd	r11, Z+5	; 0x05
    280a:	e3 88       	ldd	r14, Z+19	; 0x13
    280c:	f4 88       	ldd	r15, Z+20	; 0x14
    280e:	05 89       	ldd	r16, Z+21	; 0x15
    2810:	16 89       	ldd	r17, Z+22	; 0x16
    2812:	90 89       	ldd	r25, Z+16	; 0x10
    2814:	87 85       	ldd	r24, Z+15	; 0x0f
    2816:	98 13       	cpse	r25, r24
    2818:	1e c0       	rjmp	.+60     	; 0x2856 <.L14>
    281a:	96 85       	ldd	r25, Z+14	; 0x0e
    281c:	85 85       	ldd	r24, Z+13	; 0x0d
    281e:	98 13       	cpse	r25, r24
    2820:	1a c0       	rjmp	.+52     	; 0x2856 <.L14>
    2822:	94 01       	movw	r18, r8
    2824:	a5 01       	movw	r20, r10
    2826:	66 81       	ldd	r22, Z+6	; 0x06
    2828:	77 81       	ldd	r23, Z+7	; 0x07
    282a:	80 85       	ldd	r24, Z+8	; 0x08
    282c:	91 85       	ldd	r25, Z+9	; 0x09
    282e:	0e 94 14 33 	call	0x6628	; 0x6628 <__cmpsf2>
    2832:	81 11       	cpse	r24, r1
    2834:	10 c0       	rjmp	.+32     	; 0x2856 <.L14>
    2836:	97 01       	movw	r18, r14
    2838:	a8 01       	movw	r20, r16
    283a:	e8 85       	ldd	r30, Y+8	; 0x08
    283c:	f9 85       	ldd	r31, Y+9	; 0x09
    283e:	67 89       	ldd	r22, Z+23	; 0x17
    2840:	70 8d       	ldd	r23, Z+24	; 0x18
    2842:	81 8d       	ldd	r24, Z+25	; 0x19
    2844:	92 8d       	ldd	r25, Z+26	; 0x1a
    2846:	0e 94 14 33 	call	0x6628	; 0x6628 <__cmpsf2>
    284a:	81 11       	cpse	r24, r1
    284c:	04 c0       	rjmp	.+8      	; 0x2856 <.L14>
    284e:	ff 81       	ldd	r31, Y+7	; 0x07
    2850:	f1 15       	cp	r31, r1
    2852:	09 f4       	brne	.+2      	; 0x2856 <.L14>

00002854 <L0>:
    2854:	6b c0       	rjmp	.+214    	; 0x292c <.L13>

00002856 <.L14>:
    2856:	e8 85       	ldd	r30, Y+8	; 0x08
    2858:	f9 85       	ldd	r31, Y+9	; 0x09
    285a:	86 82       	std	Z+6, r8	; 0x06
    285c:	97 82       	std	Z+7, r9	; 0x07
    285e:	a0 86       	std	Z+8, r10	; 0x08
    2860:	b1 86       	std	Z+9, r11	; 0x09
    2862:	e7 8a       	std	Z+23, r14	; 0x17
    2864:	f0 8e       	std	Z+24, r15	; 0x18
    2866:	01 8f       	std	Z+25, r16	; 0x19
    2868:	12 8f       	std	Z+26, r17	; 0x1a
    286a:	00 e0       	ldi	r16, 0x00	; 0
    286c:	10 e0       	ldi	r17, 0x00	; 0
    286e:	20 e1       	ldi	r18, 0x10	; 16
    2870:	30 e0       	ldi	r19, 0x00	; 0
    2872:	48 e7       	ldi	r20, 0x78	; 120
    2874:	50 e0       	ldi	r21, 0x00	; 0
    2876:	6d 81       	ldd	r22, Y+5	; 0x05
    2878:	7e 81       	ldd	r23, Y+6	; 0x06
    287a:	89 81       	ldd	r24, Y+1	; 0x01
    287c:	9a 81       	ldd	r25, Y+2	; 0x02
    287e:	0e 94 eb 09 	call	0x13d6	; 0x13d6 <vga_fillRect>
    2882:	b8 01       	movw	r22, r16
    2884:	e8 85       	ldd	r30, Y+8	; 0x08
    2886:	f9 85       	ldd	r31, Y+9	; 0x09
    2888:	86 8d       	ldd	r24, Z+30	; 0x1e
    288a:	97 8d       	ldd	r25, Z+31	; 0x1f
    288c:	0e 94 8a 09 	call	0x1314	; 0x1314 <vga_setTextColor>
    2890:	6d 81       	ldd	r22, Y+5	; 0x05
    2892:	7e 81       	ldd	r23, Y+6	; 0x06
    2894:	89 81       	ldd	r24, Y+1	; 0x01
    2896:	9a 81       	ldd	r25, Y+2	; 0x02
    2898:	0e 94 71 09 	call	0x12e2	; 0x12e2 <vga_set_cursor>
    289c:	88 85       	ldd	r24, Y+8	; 0x08
    289e:	99 85       	ldd	r25, Y+9	; 0x09
    28a0:	8c 58       	subi	r24, 0x8C	; 140
    28a2:	95 41       	sbci	r25, 0x15	; 21
    28a4:	09 f0       	breq	.+2      	; 0x28a8 <L0+0x2>

000028a6 <L0>:
    28a6:	53 c0       	rjmp	.+166    	; 0x294e <.L21>
    28a8:	81 e7       	ldi	r24, 0x71	; 113
    28aa:	92 e0       	ldi	r25, 0x02	; 2

000028ac <.L16>:
    28ac:	0e 94 16 11 	call	0x222c	; 0x222c <vga_Print>
    28b0:	e8 85       	ldd	r30, Y+8	; 0x08
    28b2:	f9 85       	ldd	r31, Y+9	; 0x09
    28b4:	23 89       	ldd	r18, Z+19	; 0x13
    28b6:	34 89       	ldd	r19, Z+20	; 0x14
    28b8:	45 89       	ldd	r20, Z+21	; 0x15
    28ba:	56 89       	ldd	r21, Z+22	; 0x16
    28bc:	62 81       	ldd	r22, Z+2	; 0x02
    28be:	73 81       	ldd	r23, Z+3	; 0x03
    28c0:	84 81       	ldd	r24, Z+4	; 0x04
    28c2:	95 81       	ldd	r25, Z+5	; 0x05
    28c4:	0e 94 cc 34 	call	0x6998	; 0x6998 <__mulsf3>
    28c8:	69 83       	std	Y+1, r22	; 0x01
    28ca:	7a 83       	std	Y+2, r23	; 0x02
    28cc:	8b 83       	std	Y+3, r24	; 0x03
    28ce:	9c 83       	std	Y+4, r25	; 0x04
    28d0:	40 e8       	ldi	r20, 0x80	; 128
    28d2:	5f e3       	ldi	r21, 0x3F	; 63
    28d4:	98 01       	movw	r18, r16
    28d6:	0e 94 14 33 	call	0x6628	; 0x6628 <__cmpsf2>
    28da:	87 ff       	sbrs	r24, 7
    28dc:	3b c0       	rjmp	.+118    	; 0x2954 <.L28>
    28de:	4a e7       	ldi	r20, 0x7A	; 122
    28e0:	54 e4       	ldi	r21, 0x44	; 68
    28e2:	98 01       	movw	r18, r16
    28e4:	69 81       	ldd	r22, Y+1	; 0x01
    28e6:	7a 81       	ldd	r23, Y+2	; 0x02
    28e8:	8b 81       	ldd	r24, Y+3	; 0x03
    28ea:	9c 81       	ldd	r25, Y+4	; 0x04
    28ec:	0e 94 cc 34 	call	0x6998	; 0x6998 <__mulsf3>
    28f0:	0e 94 8b 33 	call	0x6716	; 0x6716 <__fixsfsi>
    28f4:	cb 01       	movw	r24, r22
    28f6:	0e 94 23 11 	call	0x2246	; 0x2246 <vga_Print_int16>
    28fa:	87 e8       	ldi	r24, 0x87	; 135
    28fc:	92 e0       	ldi	r25, 0x02	; 2

000028fe <.L29>:
    28fe:	0e 94 16 11 	call	0x222c	; 0x222c <vga_Print>
    2902:	84 ea       	ldi	r24, 0xA4	; 164
    2904:	92 e0       	ldi	r25, 0x02	; 2
    2906:	0e 94 16 11 	call	0x222c	; 0x222c <vga_Print>
    290a:	e8 85       	ldd	r30, Y+8	; 0x08
    290c:	f9 85       	ldd	r31, Y+9	; 0x09
    290e:	85 85       	ldd	r24, Z+13	; 0x0d
    2910:	81 30       	cpi	r24, 0x01	; 1
    2912:	51 f1       	breq	.+84     	; 0x2968 <.L22>
    2914:	82 30       	cpi	r24, 0x02	; 2
    2916:	59 f5       	brne	.+86     	; 0x296e <.L23>
    2918:	83 e8       	ldi	r24, 0x83	; 131
    291a:	92 e0       	ldi	r25, 0x02	; 2

0000291c <.L20>:
    291c:	0e 94 16 11 	call	0x222c	; 0x222c <vga_Print>
    2920:	e8 85       	ldd	r30, Y+8	; 0x08
    2922:	f9 85       	ldd	r31, Y+9	; 0x09
    2924:	87 85       	ldd	r24, Z+15	; 0x0f
    2926:	80 8b       	std	Z+16, r24	; 0x10
    2928:	85 85       	ldd	r24, Z+13	; 0x0d
    292a:	86 87       	std	Z+14, r24	; 0x0e

0000292c <.L13>:
    292c:	29 96       	adiw	r28, 0x09	; 9
    292e:	0f b6       	in	r0, 0x3f	; 63
    2930:	f8 94       	cli
    2932:	de bf       	out	0x3e, r29	; 62
    2934:	0f be       	out	0x3f, r0	; 63
    2936:	cd bf       	out	0x3d, r28	; 61
    2938:	df 91       	pop	r29
    293a:	cf 91       	pop	r28
    293c:	1f 91       	pop	r17
    293e:	0f 91       	pop	r16
    2940:	ff 90       	pop	r15
    2942:	ef 90       	pop	r14
    2944:	bf 90       	pop	r11
    2946:	af 90       	pop	r10
    2948:	9f 90       	pop	r9
    294a:	8f 90       	pop	r8
    294c:	08 95       	ret

0000294e <.L21>:
    294e:	87 e7       	ldi	r24, 0x77	; 119
    2950:	92 e0       	ldi	r25, 0x02	; 2
    2952:	ac cf       	rjmp	.-168    	; 0x28ac <.L16>

00002954 <.L28>:
    2954:	42 e0       	ldi	r20, 0x02	; 2
    2956:	69 81       	ldd	r22, Y+1	; 0x01
    2958:	7a 81       	ldd	r23, Y+2	; 0x02
    295a:	8b 81       	ldd	r24, Y+3	; 0x03
    295c:	9c 81       	ldd	r25, Y+4	; 0x04
    295e:	0e 94 de 11 	call	0x23bc	; 0x23bc <vga_print_float>
    2962:	82 e6       	ldi	r24, 0x62	; 98
    2964:	93 e0       	ldi	r25, 0x03	; 3
    2966:	cb cf       	rjmp	.-106    	; 0x28fe <.L29>

00002968 <.L22>:
    2968:	80 e8       	ldi	r24, 0x80	; 128
    296a:	92 e0       	ldi	r25, 0x02	; 2
    296c:	d7 cf       	rjmp	.-82     	; 0x291c <.L20>

0000296e <.L23>:
    296e:	8d e7       	ldi	r24, 0x7D	; 125
    2970:	92 e0       	ldi	r25, 0x02	; 2
    2972:	d4 cf       	rjmp	.-88     	; 0x291c <.L20>

00002974 <update_status_bar>:
    2974:	cf 92       	push	r12
    2976:	df 92       	push	r13
    2978:	ef 92       	push	r14
    297a:	ff 92       	push	r15
    297c:	0f 93       	push	r16
    297e:	1f 93       	push	r17
    2980:	cf 93       	push	r28
    2982:	df 93       	push	r29
    2984:	00 d0       	rcall	.+0      	; 0x2986 <L0>

00002986 <L0>:
    2986:	00 d0       	rcall	.+0      	; 0x2988 <L0>

00002988 <L0>:
    2988:	cd b7       	in	r28, 0x3d	; 61
    298a:	de b7       	in	r29, 0x3e	; 62
    298c:	f8 2e       	mov	r15, r24
    298e:	82 e0       	ldi	r24, 0x02	; 2
    2990:	0e 94 80 09 	call	0x1300	; 0x1300 <vga_setTextSize>
    2994:	52 e0       	ldi	r21, 0x02	; 2
    2996:	e5 2e       	mov	r14, r21
    2998:	00 e0       	ldi	r16, 0x00	; 0
    299a:	10 e0       	ldi	r17, 0x00	; 0
    299c:	27 e0       	ldi	r18, 0x07	; 7
    299e:	30 e0       	ldi	r19, 0x00	; 0
    29a0:	43 e0       	ldi	r20, 0x03	; 3
    29a2:	50 e0       	ldi	r21, 0x00	; 0
    29a4:	6a e0       	ldi	r22, 0x0A	; 10
    29a6:	70 e0       	ldi	r23, 0x00	; 0
    29a8:	86 ea       	ldi	r24, 0xA6	; 166
    29aa:	92 e0       	ldi	r25, 0x02	; 2
    29ac:	0e 94 95 0c 	call	0x192a	; 0x192a <vga_printAt>
    29b0:	81 e0       	ldi	r24, 0x01	; 1
    29b2:	0e 94 80 09 	call	0x1300	; 0x1300 <vga_setTextSize>
    29b6:	0e 94 74 13 	call	0x26e8	; 0x26e8 <get_system_status_code>
    29ba:	89 83       	std	Y+1, r24	; 0x01
    29bc:	f1 10       	cpse	r15, r1
    29be:	05 c0       	rjmp	.+10     	; 0x29ca <.L31>
    29c0:	80 91 05 01 	lds	r24, 0x0105	; 0x800105 <last_ui_state.0>
    29c4:	99 81       	ldd	r25, Y+1	; 0x01
    29c6:	89 17       	cp	r24, r25
    29c8:	d1 f0       	breq	.+52     	; 0x29fe <.L32>

000029ca <.L31>:
    29ca:	89 81       	ldd	r24, Y+1	; 0x01
    29cc:	82 30       	cpi	r24, 0x02	; 2
    29ce:	09 f4       	brne	.+2      	; 0x29d2 <L0+0x2>

000029d0 <L0>:
    29d0:	67 c1       	rjmp	.+718    	; 0x2ca0 <.L33>
    29d2:	83 30       	cpi	r24, 0x03	; 3
    29d4:	09 f4       	brne	.+2      	; 0x29d8 <L0+0x2>

000029d6 <L0>:
    29d6:	6b c1       	rjmp	.+726    	; 0x2cae <.L34>
    29d8:	81 30       	cpi	r24, 0x01	; 1
    29da:	09 f4       	brne	.+2      	; 0x29de <L0+0x2>

000029dc <L0>:
    29dc:	59 c1       	rjmp	.+690    	; 0x2c90 <.L35>
    29de:	81 e0       	ldi	r24, 0x01	; 1
    29e0:	0e 94 f3 08 	call	0x11e6	; 0x11e6 <LED_SetRunStop>
    29e4:	20 ec       	ldi	r18, 0xC0	; 192
    29e6:	31 e0       	ldi	r19, 0x01	; 1
    29e8:	8a e8       	ldi	r24, 0x8A	; 138
    29ea:	92 e0       	ldi	r25, 0x02	; 2

000029ec <.L36>:
    29ec:	4c e0       	ldi	r20, 0x0C	; 12
    29ee:	50 e0       	ldi	r21, 0x00	; 0
    29f0:	64 e6       	ldi	r22, 0x64	; 100
    29f2:	70 e0       	ldi	r23, 0x00	; 0
    29f4:	0e 94 95 0c 	call	0x192a	; 0x192a <vga_printAt>
    29f8:	99 81       	ldd	r25, Y+1	; 0x01
    29fa:	90 93 05 01 	sts	0x0105, r25	; 0x800105 <last_ui_state.0>

000029fe <.L32>:
    29fe:	2f 2d       	mov	r18, r15
    2a00:	4e ea       	ldi	r20, 0xAE	; 174
    2a02:	51 e0       	ldi	r21, 0x01	; 1
    2a04:	64 e1       	ldi	r22, 0x14	; 20
    2a06:	70 e0       	ldi	r23, 0x00	; 0
    2a08:	8c e8       	ldi	r24, 0x8C	; 140
    2a0a:	95 e1       	ldi	r25, 0x15	; 21
    2a0c:	0e 94 e7 13 	call	0x27ce	; 0x27ce <draw_channel_status>
    2a10:	2f 2d       	mov	r18, r15
    2a12:	4e ea       	ldi	r20, 0xAE	; 174
    2a14:	51 e0       	ldi	r21, 0x01	; 1
    2a16:	6c e8       	ldi	r22, 0x8C	; 140
    2a18:	70 e0       	ldi	r23, 0x00	; 0
    2a1a:	80 e6       	ldi	r24, 0x60	; 96
    2a1c:	95 e1       	ldi	r25, 0x15	; 21
    2a1e:	0e 94 e7 13 	call	0x27ce	; 0x27ce <draw_channel_status>
    2a22:	e0 91 64 01 	lds	r30, 0x0164	; 0x800164 <misure>
    2a26:	f0 91 65 01 	lds	r31, 0x0165	; 0x800165 <misure+0x1>
    2a2a:	84 89       	ldd	r24, Z+20	; 0x14
    2a2c:	90 91 4a 01 	lds	r25, 0x014A	; 0x80014a <old_meas_active>
    2a30:	81 15       	cp	r24, r1
    2a32:	09 f4       	brne	.+2      	; 0x2a36 <L0+0x2>

00002a34 <L0>:
    2a34:	96 c1       	rjmp	.+812    	; 0x2d62 <.L37>
    2a36:	37 89       	ldd	r19, Z+23	; 0x17
    2a38:	26 89       	ldd	r18, Z+22	; 0x16
    2a3a:	89 13       	cpse	r24, r25
    2a3c:	0a c0       	rjmp	.+20     	; 0x2a52 <.L38>
    2a3e:	90 91 4b 01 	lds	r25, 0x014B	; 0x80014b <old_meas_type>
    2a42:	93 13       	cpse	r25, r19
    2a44:	06 c0       	rjmp	.+12     	; 0x2a52 <.L38>
    2a46:	90 91 4c 01 	lds	r25, 0x014C	; 0x80014c <old_meas_source>
    2a4a:	92 13       	cpse	r25, r18
    2a4c:	02 c0       	rjmp	.+4      	; 0x2a52 <.L38>
    2a4e:	f1 14       	cp	r15, r1
    2a50:	81 f0       	breq	.+32     	; 0x2a72 <.L39>

00002a52 <.L38>:
    2a52:	80 93 4a 01 	sts	0x014A, r24	; 0x80014a <old_meas_active>
    2a56:	30 93 4b 01 	sts	0x014B, r19	; 0x80014b <old_meas_type>
    2a5a:	20 93 4c 01 	sts	0x014C, r18	; 0x80014c <old_meas_source>
    2a5e:	20 e1       	ldi	r18, 0x10	; 16
    2a60:	30 e0       	ldi	r19, 0x00	; 0
    2a62:	40 ef       	ldi	r20, 0xF0	; 240
    2a64:	50 e0       	ldi	r21, 0x00	; 0
    2a66:	62 ec       	ldi	r22, 0xC2	; 194
    2a68:	71 e0       	ldi	r23, 0x01	; 1
    2a6a:	84 e1       	ldi	r24, 0x14	; 20
    2a6c:	90 e0       	ldi	r25, 0x00	; 0
    2a6e:	0e 94 eb 09 	call	0x13d6	; 0x13d6 <vga_fillRect>

00002a72 <.L39>:
    2a72:	e0 91 64 01 	lds	r30, 0x0164	; 0x800164 <misure>
    2a76:	f0 91 65 01 	lds	r31, 0x0165	; 0x800165 <misure+0x1>
    2a7a:	86 89       	ldd	r24, Z+22	; 0x16
    2a7c:	81 30       	cpi	r24, 0x01	; 1
    2a7e:	09 f4       	brne	.+2      	; 0x2a82 <L0+0x2>

00002a80 <L0>:
    2a80:	1e c1       	rjmp	.+572    	; 0x2cbe <.L40>
    2a82:	82 30       	cpi	r24, 0x02	; 2
    2a84:	09 f4       	brne	.+2      	; 0x2a88 <.L42>

00002a86 <L0>:
    2a86:	46 c1       	rjmp	.+652    	; 0x2d14 <.L41>

00002a88 <.L42>:
    2a88:	90 91 5c 01 	lds	r25, 0x015C	; 0x80015c <old_current_time_base_idx>
    2a8c:	80 91 5d 15 	lds	r24, 0x155D	; 0x80155d <current_time_base_idx>
    2a90:	98 13       	cpse	r25, r24
    2a92:	02 c0       	rjmp	.+4      	; 0x2a98 <.L49>
    2a94:	f1 14       	cp	r15, r1
    2a96:	61 f1       	breq	.+88     	; 0x2af0 <.L50>

00002a98 <.L49>:
    2a98:	20 e1       	ldi	r18, 0x10	; 16
    2a9a:	30 e0       	ldi	r19, 0x00	; 0
    2a9c:	44 e6       	ldi	r20, 0x64	; 100
    2a9e:	50 e0       	ldi	r21, 0x00	; 0
    2aa0:	6e ea       	ldi	r22, 0xAE	; 174
    2aa2:	71 e0       	ldi	r23, 0x01	; 1
    2aa4:	8a ef       	ldi	r24, 0xFA	; 250
    2aa6:	90 e0       	ldi	r25, 0x00	; 0
    2aa8:	0e 94 eb 09 	call	0x13d6	; 0x13d6 <vga_fillRect>
    2aac:	b8 01       	movw	r22, r16
    2aae:	8f ef       	ldi	r24, 0xFF	; 255
    2ab0:	91 e0       	ldi	r25, 0x01	; 1
    2ab2:	0e 94 8a 09 	call	0x1314	; 0x1314 <vga_setTextColor>
    2ab6:	6e ea       	ldi	r22, 0xAE	; 174
    2ab8:	71 e0       	ldi	r23, 0x01	; 1
    2aba:	8a ef       	ldi	r24, 0xFA	; 250
    2abc:	90 e0       	ldi	r25, 0x00	; 0
    2abe:	0e 94 71 09 	call	0x12e2	; 0x12e2 <vga_set_cursor>
    2ac2:	89 eb       	ldi	r24, 0xB9	; 185
    2ac4:	92 e0       	ldi	r25, 0x02	; 2
    2ac6:	0e 94 16 11 	call	0x222c	; 0x222c <vga_Print>
    2aca:	e0 91 5d 15 	lds	r30, 0x155D	; 0x80155d <current_time_base_idx>
    2ace:	f0 e0       	ldi	r31, 0x00	; 0
    2ad0:	ee 0f       	add	r30, r30
    2ad2:	ff 1f       	adc	r31, r31
    2ad4:	e1 5e       	subi	r30, 0xE1	; 225
    2ad6:	fe 4f       	sbci	r31, 0xFE	; 254
    2ad8:	80 81       	ld	r24, Z
    2ada:	91 81       	ldd	r25, Z+1	; 0x01
    2adc:	0e 94 16 11 	call	0x222c	; 0x222c <vga_Print>
    2ae0:	80 91 5d 15 	lds	r24, 0x155D	; 0x80155d <current_time_base_idx>
    2ae4:	80 93 5c 01 	sts	0x015C, r24	; 0x80015c <old_current_time_base_idx>
    2ae8:	8d eb       	ldi	r24, 0xBD	; 189
    2aea:	92 e0       	ldi	r25, 0x02	; 2
    2aec:	0e 94 16 11 	call	0x222c	; 0x222c <vga_Print>

00002af0 <.L50>:
    2af0:	20 91 55 01 	lds	r18, 0x0155	; 0x800155 <old_trigger_level_12bit>
    2af4:	30 91 56 01 	lds	r19, 0x0156	; 0x800156 <old_trigger_level_12bit+0x1>
    2af8:	80 91 57 01 	lds	r24, 0x0157	; 0x800157 <trigger_level_12bit>
    2afc:	90 91 58 01 	lds	r25, 0x0158	; 0x800158 <trigger_level_12bit+0x1>
    2b00:	28 17       	cp	r18, r24
    2b02:	39 07       	cpc	r19, r25
    2b04:	19 f4       	brne	.+6      	; 0x2b0c <.L51>
    2b06:	f1 14       	cp	r15, r1
    2b08:	09 f4       	brne	.+2      	; 0x2b0c <.L51>

00002b0a <L0>:
    2b0a:	59 c0       	rjmp	.+178    	; 0x2bbe <.L52>

00002b0c <.L51>:
    2b0c:	20 e1       	ldi	r18, 0x10	; 16
    2b0e:	30 e0       	ldi	r19, 0x00	; 0
    2b10:	44 e6       	ldi	r20, 0x64	; 100
    2b12:	50 e0       	ldi	r21, 0x00	; 0
    2b14:	6e ea       	ldi	r22, 0xAE	; 174
    2b16:	71 e0       	ldi	r23, 0x01	; 1
    2b18:	8e e5       	ldi	r24, 0x5E	; 94
    2b1a:	91 e0       	ldi	r25, 0x01	; 1
    2b1c:	0e 94 eb 09 	call	0x13d6	; 0x13d6 <vga_fillRect>
    2b20:	b8 01       	movw	r22, r16
    2b22:	88 e3       	ldi	r24, 0x38	; 56
    2b24:	90 e0       	ldi	r25, 0x00	; 0
    2b26:	0e 94 8a 09 	call	0x1314	; 0x1314 <vga_setTextColor>
    2b2a:	6e ea       	ldi	r22, 0xAE	; 174
    2b2c:	71 e0       	ldi	r23, 0x01	; 1
    2b2e:	8e e5       	ldi	r24, 0x5E	; 94
    2b30:	91 e0       	ldi	r25, 0x01	; 1
    2b32:	0e 94 71 09 	call	0x12e2	; 0x12e2 <vga_set_cursor>
    2b36:	82 ec       	ldi	r24, 0xC2	; 194
    2b38:	92 e0       	ldi	r25, 0x02	; 2
    2b3a:	0e 94 16 11 	call	0x222c	; 0x222c <vga_Print>
    2b3e:	80 91 57 01 	lds	r24, 0x0157	; 0x800157 <trigger_level_12bit>
    2b42:	90 91 58 01 	lds	r25, 0x0158	; 0x800158 <trigger_level_12bit+0x1>
    2b46:	a8 01       	movw	r20, r16
    2b48:	20 e0       	ldi	r18, 0x00	; 0
    2b4a:	38 e0       	ldi	r19, 0x08	; 8
    2b4c:	28 1b       	sub	r18, r24
    2b4e:	39 0b       	sbc	r19, r25
    2b50:	41 09       	sbc	r20, r1
    2b52:	51 09       	sbc	r21, r1
    2b54:	a8 e8       	ldi	r26, 0x88	; 136
    2b56:	b3 e1       	ldi	r27, 0x13	; 19
    2b58:	0e 94 41 32 	call	0x6482	; 0x6482 <__muluhisi3>
    2b5c:	6b 01       	movw	r12, r22
    2b5e:	7c 01       	movw	r14, r24
    2b60:	a8 01       	movw	r20, r16
    2b62:	20 e0       	ldi	r18, 0x00	; 0
    2b64:	30 e1       	ldi	r19, 0x10	; 16
    2b66:	0e 94 19 32 	call	0x6432	; 0x6432 <__divmodsi4>
    2b6a:	29 83       	std	Y+1, r18	; 0x01
    2b6c:	3a 83       	std	Y+2, r19	; 0x02
    2b6e:	4b 83       	std	Y+3, r20	; 0x03
    2b70:	5c 83       	std	Y+4, r21	; 0x04
    2b72:	81 e0       	ldi	r24, 0x01	; 1
    2b74:	c8 16       	cp	r12, r24
    2b76:	80 ef       	ldi	r24, 0xF0	; 240
    2b78:	d8 06       	cpc	r13, r24
    2b7a:	8f ef       	ldi	r24, 0xFF	; 255
    2b7c:	e8 06       	cpc	r14, r24
    2b7e:	f8 06       	cpc	r15, r24
    2b80:	24 f0       	brlt	.+8      	; 0x2b8a <.L53>
    2b82:	89 ec       	ldi	r24, 0xC9	; 201
    2b84:	92 e0       	ldi	r25, 0x02	; 2
    2b86:	0e 94 16 11 	call	0x222c	; 0x222c <vga_Print>

00002b8a <.L53>:
    2b8a:	69 81       	ldd	r22, Y+1	; 0x01
    2b8c:	7a 81       	ldd	r23, Y+2	; 0x02
    2b8e:	8b 81       	ldd	r24, Y+3	; 0x03
    2b90:	9c 81       	ldd	r25, Y+4	; 0x04
    2b92:	0e 94 c9 33 	call	0x6792	; 0x6792 <__floatsisf>
    2b96:	4a e7       	ldi	r20, 0x7A	; 122
    2b98:	54 e4       	ldi	r21, 0x44	; 68
    2b9a:	98 01       	movw	r18, r16
    2b9c:	0e 94 19 33 	call	0x6632	; 0x6632 <__divsf3>
    2ba0:	42 e0       	ldi	r20, 0x02	; 2
    2ba2:	0e 94 de 11 	call	0x23bc	; 0x23bc <vga_print_float>
    2ba6:	82 e6       	ldi	r24, 0x62	; 98
    2ba8:	93 e0       	ldi	r25, 0x03	; 3
    2baa:	0e 94 16 11 	call	0x222c	; 0x222c <vga_Print>
    2bae:	80 91 57 01 	lds	r24, 0x0157	; 0x800157 <trigger_level_12bit>
    2bb2:	90 91 58 01 	lds	r25, 0x0158	; 0x800158 <trigger_level_12bit+0x1>
    2bb6:	80 93 55 01 	sts	0x0155, r24	; 0x800155 <old_trigger_level_12bit>
    2bba:	90 93 56 01 	sts	0x0156, r25	; 0x800156 <old_trigger_level_12bit+0x1>

00002bbe <.L52>:
    2bbe:	e0 91 64 01 	lds	r30, 0x0164	; 0x800164 <misure>
    2bc2:	f0 91 65 01 	lds	r31, 0x0165	; 0x800165 <misure+0x1>
    2bc6:	85 89       	ldd	r24, Z+21	; 0x15
    2bc8:	81 30       	cpi	r24, 0x01	; 1
    2bca:	09 f0       	breq	.+2      	; 0x2bce <L0+0x2>

00002bcc <L0>:
    2bcc:	f8 c0       	rjmp	.+496    	; 0x2dbe <.L54>
    2bce:	0e 94 dc 19 	call	0x33b8	; 0x33b8 <read_fpga_frequency>
    2bd2:	6b 01       	movw	r12, r22
    2bd4:	7c 01       	movw	r14, r24
    2bd6:	9b 01       	movw	r18, r22
    2bd8:	ac 01       	movw	r20, r24
    2bda:	60 91 06 01 	lds	r22, 0x0106	; 0x800106 <old_freq>
    2bde:	70 91 07 01 	lds	r23, 0x0107	; 0x800107 <old_freq+0x1>
    2be2:	80 91 08 01 	lds	r24, 0x0108	; 0x800108 <old_freq+0x2>
    2be6:	90 91 09 01 	lds	r25, 0x0109	; 0x800109 <old_freq+0x3>
    2bea:	0e 94 14 33 	call	0x6628	; 0x6628 <__cmpsf2>
    2bee:	81 11       	cpse	r24, r1
    2bf0:	04 c0       	rjmp	.+8      	; 0x2bfa <.L55>
    2bf2:	80 91 5a 15 	lds	r24, 0x155A	; 0x80155a <old_f_active>
    2bf6:	81 11       	cpse	r24, r1
    2bf8:	3e c0       	rjmp	.+124    	; 0x2c76 <.L30>

00002bfa <.L55>:
    2bfa:	62 ec       	ldi	r22, 0xC2	; 194
    2bfc:	71 e0       	ldi	r23, 0x01	; 1
    2bfe:	8a ef       	ldi	r24, 0xFA	; 250
    2c00:	90 e0       	ldi	r25, 0x00	; 0
    2c02:	0e 94 71 09 	call	0x12e2	; 0x12e2 <vga_set_cursor>
    2c06:	b8 01       	movw	r22, r16
    2c08:	8f ef       	ldi	r24, 0xFF	; 255
    2c0a:	91 e0       	ldi	r25, 0x01	; 1
    2c0c:	0e 94 8a 09 	call	0x1314	; 0x1314 <vga_setTextColor>
    2c10:	20 e1       	ldi	r18, 0x10	; 16
    2c12:	30 e0       	ldi	r19, 0x00	; 0
    2c14:	48 e7       	ldi	r20, 0x78	; 120
    2c16:	50 e0       	ldi	r21, 0x00	; 0
    2c18:	62 ec       	ldi	r22, 0xC2	; 194
    2c1a:	71 e0       	ldi	r23, 0x01	; 1
    2c1c:	8a ef       	ldi	r24, 0xFA	; 250
    2c1e:	90 e0       	ldi	r25, 0x00	; 0
    2c20:	0e 94 eb 09 	call	0x13d6	; 0x13d6 <vga_fillRect>
    2c24:	8b ec       	ldi	r24, 0xCB	; 203
    2c26:	92 e0       	ldi	r25, 0x02	; 2
    2c28:	0e 94 16 11 	call	0x222c	; 0x222c <vga_Print>
    2c2c:	20 e0       	ldi	r18, 0x00	; 0
    2c2e:	34 e2       	ldi	r19, 0x24	; 36
    2c30:	44 e7       	ldi	r20, 0x74	; 116
    2c32:	59 e4       	ldi	r21, 0x49	; 73
    2c34:	b6 01       	movw	r22, r12
    2c36:	c7 01       	movw	r24, r14
    2c38:	0e 94 c7 34 	call	0x698e	; 0x698e <__gesf2>
    2c3c:	18 16       	cp	r1, r24
    2c3e:	0c f0       	brlt	.+2      	; 0x2c42 <L0+0x2>

00002c40 <L0>:
    2c40:	a0 c0       	rjmp	.+320    	; 0x2d82 <.L80>
    2c42:	20 e0       	ldi	r18, 0x00	; 0
    2c44:	34 e2       	ldi	r19, 0x24	; 36
    2c46:	44 e7       	ldi	r20, 0x74	; 116
    2c48:	59 e4       	ldi	r21, 0x49	; 73
    2c4a:	b6 01       	movw	r22, r12
    2c4c:	c7 01       	movw	r24, r14
    2c4e:	0e 94 19 33 	call	0x6632	; 0x6632 <__divsf3>
    2c52:	42 e0       	ldi	r20, 0x02	; 2
    2c54:	0e 94 de 11 	call	0x23bc	; 0x23bc <vga_print_float>
    2c58:	8e ec       	ldi	r24, 0xCE	; 206
    2c5a:	92 e0       	ldi	r25, 0x02	; 2

00002c5c <.L84>:
    2c5c:	0e 94 16 11 	call	0x222c	; 0x222c <vga_Print>
    2c60:	c0 92 06 01 	sts	0x0106, r12	; 0x800106 <old_freq>
    2c64:	d0 92 07 01 	sts	0x0107, r13	; 0x800107 <old_freq+0x1>
    2c68:	e0 92 08 01 	sts	0x0108, r14	; 0x800108 <old_freq+0x2>
    2c6c:	f0 92 09 01 	sts	0x0109, r15	; 0x800109 <old_freq+0x3>
    2c70:	81 e0       	ldi	r24, 0x01	; 1
    2c72:	80 93 5a 15 	sts	0x155A, r24	; 0x80155a <old_f_active>

00002c76 <.L30>:
    2c76:	0f 90       	pop	r0
    2c78:	0f 90       	pop	r0
    2c7a:	0f 90       	pop	r0
    2c7c:	0f 90       	pop	r0
    2c7e:	df 91       	pop	r29
    2c80:	cf 91       	pop	r28
    2c82:	1f 91       	pop	r17
    2c84:	0f 91       	pop	r16
    2c86:	ff 90       	pop	r15
    2c88:	ef 90       	pop	r14
    2c8a:	df 90       	pop	r13
    2c8c:	cf 90       	pop	r12
    2c8e:	08 95       	ret

00002c90 <.L35>:
    2c90:	83 e0       	ldi	r24, 0x03	; 3
    2c92:	0e 94 f3 08 	call	0x11e6	; 0x11e6 <LED_SetRunStop>
    2c96:	28 ef       	ldi	r18, 0xF8	; 248
    2c98:	31 e0       	ldi	r19, 0x01	; 1
    2c9a:	81 e9       	ldi	r24, 0x91	; 145
    2c9c:	92 e0       	ldi	r25, 0x02	; 2
    2c9e:	a6 ce       	rjmp	.-692    	; 0x29ec <.L36>

00002ca0 <.L33>:
    2ca0:	0e 94 f3 08 	call	0x11e6	; 0x11e6 <LED_SetRunStop>
    2ca4:	28 e3       	ldi	r18, 0x38	; 56
    2ca6:	30 e0       	ldi	r19, 0x00	; 0
    2ca8:	88 e9       	ldi	r24, 0x98	; 152
    2caa:	92 e0       	ldi	r25, 0x02	; 2
    2cac:	9f ce       	rjmp	.-706    	; 0x29ec <.L36>

00002cae <.L34>:
    2cae:	82 e0       	ldi	r24, 0x02	; 2
    2cb0:	0e 94 f3 08 	call	0x11e6	; 0x11e6 <LED_SetRunStop>
    2cb4:	28 e3       	ldi	r18, 0x38	; 56
    2cb6:	30 e0       	ldi	r19, 0x00	; 0
    2cb8:	8f e9       	ldi	r24, 0x9F	; 159
    2cba:	92 e0       	ldi	r25, 0x02	; 2
    2cbc:	97 ce       	rjmp	.-722    	; 0x29ec <.L36>

00002cbe <.L40>:
    2cbe:	62 ec       	ldi	r22, 0xC2	; 194
    2cc0:	71 e0       	ldi	r23, 0x01	; 1
    2cc2:	84 e1       	ldi	r24, 0x14	; 20
    2cc4:	90 e0       	ldi	r25, 0x00	; 0
    2cc6:	0e 94 71 09 	call	0x12e2	; 0x12e2 <vga_set_cursor>
    2cca:	b8 01       	movw	r22, r16
    2ccc:	80 91 aa 15 	lds	r24, 0x15AA	; 0x8015aa <ch1+0x1e>
    2cd0:	90 91 ab 15 	lds	r25, 0x15AB	; 0x8015ab <ch1+0x1f>
    2cd4:	0e 94 8a 09 	call	0x1314	; 0x1314 <vga_setTextColor>
    2cd8:	e0 91 64 01 	lds	r30, 0x0164	; 0x800164 <misure>
    2cdc:	f0 91 65 01 	lds	r31, 0x0165	; 0x800165 <misure+0x1>
    2ce0:	87 89       	ldd	r24, Z+23	; 0x17
    2ce2:	81 30       	cpi	r24, 0x01	; 1
    2ce4:	50 f4       	brcc	.+20     	; 0x2cfa <.L43>
    2ce6:	60 81       	ld	r22, Z
    2ce8:	71 81       	ldd	r23, Z+1	; 0x01
    2cea:	82 81       	ldd	r24, Z+2	; 0x02
    2cec:	93 81       	ldd	r25, Z+3	; 0x03
    2cee:	41 e0       	ldi	r20, 0x01	; 1

00002cf0 <.L85>:
    2cf0:	0e 94 de 11 	call	0x23bc	; 0x23bc <vga_print_float>
    2cf4:	8a ea       	ldi	r24, 0xAA	; 170
    2cf6:	92 e0       	ldi	r25, 0x02	; 2
    2cf8:	0a c0       	rjmp	.+20     	; 0x2d0e <.L82>

00002cfa <.L43>:
    2cfa:	31 f5       	brne	.+76     	; 0x2d48 <.L47>
    2cfc:	64 81       	ldd	r22, Z+4	; 0x04
    2cfe:	75 81       	ldd	r23, Z+5	; 0x05
    2d00:	86 81       	ldd	r24, Z+6	; 0x06
    2d02:	97 81       	ldd	r25, Z+7	; 0x07
    2d04:	42 e0       	ldi	r20, 0x02	; 2
    2d06:	0e 94 de 11 	call	0x23bc	; 0x23bc <vga_print_float>
    2d0a:	8f ea       	ldi	r24, 0xAF	; 175
    2d0c:	92 e0       	ldi	r25, 0x02	; 2

00002d0e <.L82>:
    2d0e:	0e 94 16 11 	call	0x222c	; 0x222c <vga_Print>
    2d12:	ba ce       	rjmp	.-652    	; 0x2a88 <.L42>

00002d14 <.L41>:
    2d14:	62 ec       	ldi	r22, 0xC2	; 194
    2d16:	71 e0       	ldi	r23, 0x01	; 1
    2d18:	8c e8       	ldi	r24, 0x8C	; 140
    2d1a:	90 e0       	ldi	r25, 0x00	; 0
    2d1c:	0e 94 71 09 	call	0x12e2	; 0x12e2 <vga_set_cursor>
    2d20:	b8 01       	movw	r22, r16
    2d22:	80 91 7e 15 	lds	r24, 0x157E	; 0x80157e <ch2+0x1e>
    2d26:	90 91 7f 15 	lds	r25, 0x157F	; 0x80157f <ch2+0x1f>
    2d2a:	0e 94 8a 09 	call	0x1314	; 0x1314 <vga_setTextColor>
    2d2e:	e0 91 64 01 	lds	r30, 0x0164	; 0x800164 <misure>
    2d32:	f0 91 65 01 	lds	r31, 0x0165	; 0x800165 <misure+0x1>
    2d36:	87 89       	ldd	r24, Z+23	; 0x17
    2d38:	81 30       	cpi	r24, 0x01	; 1
    2d3a:	f8 f6       	brcc	.-66     	; 0x2cfa <.L43>
    2d3c:	60 81       	ld	r22, Z
    2d3e:	71 81       	ldd	r23, Z+1	; 0x01
    2d40:	82 81       	ldd	r24, Z+2	; 0x02
    2d42:	93 81       	ldd	r25, Z+3	; 0x03
    2d44:	42 e0       	ldi	r20, 0x02	; 2
    2d46:	d4 cf       	rjmp	.-88     	; 0x2cf0 <.L85>

00002d48 <.L47>:
    2d48:	82 30       	cpi	r24, 0x02	; 2
    2d4a:	09 f0       	breq	.+2      	; 0x2d4e <L0+0x2>

00002d4c <L0>:
    2d4c:	9d ce       	rjmp	.-710    	; 0x2a88 <.L42>
    2d4e:	60 85       	ldd	r22, Z+8	; 0x08
    2d50:	71 85       	ldd	r23, Z+9	; 0x09
    2d52:	82 85       	ldd	r24, Z+10	; 0x0a
    2d54:	93 85       	ldd	r25, Z+11	; 0x0b
    2d56:	42 e0       	ldi	r20, 0x02	; 2
    2d58:	0e 94 de 11 	call	0x23bc	; 0x23bc <vga_print_float>
    2d5c:	84 eb       	ldi	r24, 0xB4	; 180
    2d5e:	92 e0       	ldi	r25, 0x02	; 2
    2d60:	d6 cf       	rjmp	.-84     	; 0x2d0e <.L82>

00002d62 <.L37>:
    2d62:	91 15       	cp	r25, r1
    2d64:	09 f4       	brne	.+2      	; 0x2d68 <L0+0x2>

00002d66 <L0>:
    2d66:	90 ce       	rjmp	.-736    	; 0x2a88 <.L42>
    2d68:	20 e1       	ldi	r18, 0x10	; 16
    2d6a:	30 e0       	ldi	r19, 0x00	; 0
    2d6c:	40 ef       	ldi	r20, 0xF0	; 240
    2d6e:	50 e0       	ldi	r21, 0x00	; 0
    2d70:	62 ec       	ldi	r22, 0xC2	; 194
    2d72:	71 e0       	ldi	r23, 0x01	; 1
    2d74:	84 e1       	ldi	r24, 0x14	; 20
    2d76:	90 e0       	ldi	r25, 0x00	; 0
    2d78:	0e 94 eb 09 	call	0x13d6	; 0x13d6 <vga_fillRect>
    2d7c:	10 92 4a 01 	sts	0x014A, r1	; 0x80014a <old_meas_active>
    2d80:	83 ce       	rjmp	.-762    	; 0x2a88 <.L42>

00002d82 <.L80>:
    2d82:	4a e7       	ldi	r20, 0x7A	; 122
    2d84:	54 e4       	ldi	r21, 0x44	; 68
    2d86:	98 01       	movw	r18, r16
    2d88:	b6 01       	movw	r22, r12
    2d8a:	c7 01       	movw	r24, r14
    2d8c:	0e 94 c7 34 	call	0x698e	; 0x698e <__gesf2>
    2d90:	18 16       	cp	r1, r24
    2d92:	6c f4       	brge	.+26     	; 0x2dae <.L81>
    2d94:	4a e7       	ldi	r20, 0x7A	; 122
    2d96:	54 e4       	ldi	r21, 0x44	; 68
    2d98:	98 01       	movw	r18, r16
    2d9a:	b6 01       	movw	r22, r12
    2d9c:	c7 01       	movw	r24, r14
    2d9e:	0e 94 19 33 	call	0x6632	; 0x6632 <__divsf3>
    2da2:	41 e0       	ldi	r20, 0x01	; 1
    2da4:	0e 94 de 11 	call	0x23bc	; 0x23bc <vga_print_float>
    2da8:	83 ed       	ldi	r24, 0xD3	; 211
    2daa:	92 e0       	ldi	r25, 0x02	; 2
    2dac:	57 cf       	rjmp	.-338    	; 0x2c5c <.L84>

00002dae <.L81>:
    2dae:	41 e0       	ldi	r20, 0x01	; 1
    2db0:	b6 01       	movw	r22, r12
    2db2:	c7 01       	movw	r24, r14
    2db4:	0e 94 de 11 	call	0x23bc	; 0x23bc <vga_print_float>
    2db8:	88 ed       	ldi	r24, 0xD8	; 216
    2dba:	92 e0       	ldi	r25, 0x02	; 2
    2dbc:	4f cf       	rjmp	.-354    	; 0x2c5c <.L84>

00002dbe <.L54>:
    2dbe:	80 91 5a 15 	lds	r24, 0x155A	; 0x80155a <old_f_active>
    2dc2:	81 30       	cpi	r24, 0x01	; 1
    2dc4:	09 f0       	breq	.+2      	; 0x2dc8 <L0+0x2>

00002dc6 <L0>:
    2dc6:	57 cf       	rjmp	.-338    	; 0x2c76 <.L30>
    2dc8:	24 e1       	ldi	r18, 0x14	; 20
    2dca:	30 e0       	ldi	r19, 0x00	; 0
    2dcc:	4a e5       	ldi	r20, 0x5A	; 90
    2dce:	50 e0       	ldi	r21, 0x00	; 0
    2dd0:	62 ec       	ldi	r22, 0xC2	; 194
    2dd2:	71 e0       	ldi	r23, 0x01	; 1
    2dd4:	8a ef       	ldi	r24, 0xFA	; 250
    2dd6:	90 e0       	ldi	r25, 0x00	; 0
    2dd8:	0e 94 eb 09 	call	0x13d6	; 0x13d6 <vga_fillRect>
    2ddc:	10 92 5a 15 	sts	0x155A, r1	; 0x80155a <old_f_active>
    2de0:	a0 e8       	ldi	r26, 0x80	; 128
    2de2:	bf eb       	ldi	r27, 0xBF	; 191
    2de4:	10 92 06 01 	sts	0x0106, r1	; 0x800106 <old_freq>
    2de8:	10 92 07 01 	sts	0x0107, r1	; 0x800107 <old_freq+0x1>
    2dec:	a0 93 08 01 	sts	0x0108, r26	; 0x800108 <old_freq+0x2>
    2df0:	b0 93 09 01 	sts	0x0109, r27	; 0x800109 <old_freq+0x3>
    2df4:	40 cf       	rjmp	.-384    	; 0x2c76 <.L30>

00002df6 <drawMenuButton>:
    2df6:	af 92       	push	r10
    2df8:	bf 92       	push	r11
    2dfa:	cf 92       	push	r12
    2dfc:	ef 92       	push	r14
    2dfe:	ff 92       	push	r15
    2e00:	0f 93       	push	r16
    2e02:	1f 93       	push	r17
    2e04:	cf 93       	push	r28
    2e06:	df 93       	push	r29
    2e08:	00 d0       	rcall	.+0      	; 0x2e0a <L0>

00002e0a <L0>:
    2e0a:	00 d0       	rcall	.+0      	; 0x2e0c <L0>

00002e0c <L0>:
    2e0c:	00 d0       	rcall	.+0      	; 0x2e0e <L0>

00002e0e <L0>:
    2e0e:	cd b7       	in	r28, 0x3d	; 61
    2e10:	de b7       	in	r29, 0x3e	; 62
    2e12:	69 83       	std	Y+1, r22	; 0x01
    2e14:	7a 83       	std	Y+2, r23	; 0x02
    2e16:	4b 83       	std	Y+3, r20	; 0x03
    2e18:	5c 83       	std	Y+4, r21	; 0x04
    2e1a:	58 01       	movw	r10, r16
    2e1c:	9c e4       	ldi	r25, 0x4C	; 76
    2e1e:	89 9f       	mul	r24, r25
    2e20:	90 01       	movw	r18, r0
    2e22:	11 24       	eor	r1, r1
    2e24:	2d 83       	std	Y+5, r18	; 0x05
    2e26:	3e 83       	std	Y+6, r19	; 0x06
    2e28:	28 5d       	subi	r18, 0xD8	; 216
    2e2a:	3f 4f       	sbci	r19, 0xFF	; 255
    2e2c:	79 01       	movw	r14, r18
    2e2e:	00 e0       	ldi	r16, 0x00	; 0
    2e30:	10 e0       	ldi	r17, 0x00	; 0
    2e32:	2b e4       	ldi	r18, 0x4B	; 75
    2e34:	30 e0       	ldi	r19, 0x00	; 0
    2e36:	48 e6       	ldi	r20, 0x68	; 104
    2e38:	50 e0       	ldi	r21, 0x00	; 0
    2e3a:	b7 01       	movw	r22, r14
    2e3c:	82 e1       	ldi	r24, 0x12	; 18
    2e3e:	92 e0       	ldi	r25, 0x02	; 2
    2e40:	0e 94 eb 09 	call	0x13d6	; 0x13d6 <vga_fillRect>
    2e44:	95 01       	movw	r18, r10
    2e46:	44 e6       	ldi	r20, 0x64	; 100
    2e48:	50 e0       	ldi	r21, 0x00	; 0
    2e4a:	b7 01       	movw	r22, r14
    2e4c:	87 e1       	ldi	r24, 0x17	; 23
    2e4e:	92 e0       	ldi	r25, 0x02	; 2
    2e50:	0e 94 d5 0c 	call	0x19aa	; 0x19aa <vga_drawFastHLine>
    2e54:	2d 81       	ldd	r18, Y+5	; 0x05
    2e56:	3e 81       	ldd	r19, Y+6	; 0x06
    2e58:	23 5d       	subi	r18, 0xD3	; 211
    2e5a:	3f 4f       	sbci	r19, 0xFF	; 255
    2e5c:	82 e0       	ldi	r24, 0x02	; 2
    2e5e:	c8 2e       	mov	r12, r24
    2e60:	78 01       	movw	r14, r16
    2e62:	85 01       	movw	r16, r10
    2e64:	4f e7       	ldi	r20, 0x7F	; 127
    2e66:	52 e0       	ldi	r21, 0x02	; 2
    2e68:	62 e1       	ldi	r22, 0x12	; 18
    2e6a:	72 e0       	ldi	r23, 0x02	; 2
    2e6c:	89 81       	ldd	r24, Y+1	; 0x01
    2e6e:	9a 81       	ldd	r25, Y+2	; 0x02
    2e70:	0e 94 ec 0e 	call	0x1dd8	; 0x1dd8 <vga_printCenteredX>
    2e74:	2d 81       	ldd	r18, Y+5	; 0x05
    2e76:	3e 81       	ldd	r19, Y+6	; 0x06
    2e78:	2a 5b       	subi	r18, 0xBA	; 186
    2e7a:	3f 4f       	sbci	r19, 0xFF	; 255
    2e7c:	4f e7       	ldi	r20, 0x7F	; 127
    2e7e:	52 e0       	ldi	r21, 0x02	; 2
    2e80:	62 e1       	ldi	r22, 0x12	; 18
    2e82:	72 e0       	ldi	r23, 0x02	; 2
    2e84:	8b 81       	ldd	r24, Y+3	; 0x03
    2e86:	9c 81       	ldd	r25, Y+4	; 0x04
    2e88:	0e 94 ec 0e 	call	0x1dd8	; 0x1dd8 <vga_printCenteredX>
    2e8c:	0f 90       	pop	r0
    2e8e:	0f 90       	pop	r0
    2e90:	0f 90       	pop	r0
    2e92:	0f 90       	pop	r0
    2e94:	0f 90       	pop	r0
    2e96:	0f 90       	pop	r0
    2e98:	df 91       	pop	r29
    2e9a:	cf 91       	pop	r28
    2e9c:	1f 91       	pop	r17
    2e9e:	0f 91       	pop	r16
    2ea0:	ff 90       	pop	r15
    2ea2:	ef 90       	pop	r14
    2ea4:	cf 90       	pop	r12
    2ea6:	bf 90       	pop	r11
    2ea8:	af 90       	pop	r10
    2eaa:	08 95       	ret

00002eac <updateSidebarLabels>:
    2eac:	8f 92       	push	r8
    2eae:	9f 92       	push	r9
    2eb0:	af 92       	push	r10
    2eb2:	bf 92       	push	r11
    2eb4:	cf 92       	push	r12
    2eb6:	ef 92       	push	r14
    2eb8:	ff 92       	push	r15
    2eba:	0f 93       	push	r16
    2ebc:	1f 93       	push	r17
    2ebe:	cf 93       	push	r28
    2ec0:	df 93       	push	r29
    2ec2:	cd b7       	in	r28, 0x3d	; 61
    2ec4:	de b7       	in	r29, 0x3e	; 62
    2ec6:	62 97       	sbiw	r28, 0x12	; 18
    2ec8:	0f b6       	in	r0, 0x3f	; 63
    2eca:	f8 94       	cli
    2ecc:	de bf       	out	0x3e, r29	; 62
    2ece:	0f be       	out	0x3f, r0	; 63
    2ed0:	cd bf       	out	0x3d, r28	; 61
    2ed2:	80 91 5e 01 	lds	r24, 0x015E	; 0x80015e <oldMenu>
    2ed6:	90 91 5f 01 	lds	r25, 0x015F	; 0x80015f <currentMenu>
    2eda:	98 17       	cp	r25, r24
    2edc:	e1 f0       	breq	.+56     	; 0x2f16 <.L91>
    2ede:	0e 94 a9 1f 	call	0x3f52	; 0x3f52 <set_trig_enc_default>
    2ee2:	10 92 4b 15 	sts	0x154B, r1	; 0x80154b <cursor_type>
    2ee6:	02 e0       	ldi	r16, 0x02	; 2
    2ee8:	10 e0       	ldi	r17, 0x00	; 0
    2eea:	25 e9       	ldi	r18, 0x95	; 149
    2eec:	31 e0       	ldi	r19, 0x01	; 1
    2eee:	4d e2       	ldi	r20, 0x2D	; 45
    2ef0:	50 e0       	ldi	r21, 0x00	; 0
    2ef2:	66 ee       	ldi	r22, 0xE6	; 230
    2ef4:	70 e0       	ldi	r23, 0x00	; 0
    2ef6:	80 e0       	ldi	r24, 0x00	; 0
    2ef8:	0e 94 30 09 	call	0x1260	; 0x1260 <setup_encoder>
    2efc:	25 e9       	ldi	r18, 0x95	; 149
    2efe:	31 e0       	ldi	r19, 0x01	; 1
    2f00:	4d e2       	ldi	r20, 0x2D	; 45
    2f02:	50 e0       	ldi	r21, 0x00	; 0
    2f04:	66 ee       	ldi	r22, 0xE6	; 230
    2f06:	70 e0       	ldi	r23, 0x00	; 0
    2f08:	82 e0       	ldi	r24, 0x02	; 2
    2f0a:	0e 94 30 09 	call	0x1260	; 0x1260 <setup_encoder>
    2f0e:	80 91 5f 01 	lds	r24, 0x015F	; 0x80015f <currentMenu>
    2f12:	80 93 5e 01 	sts	0x015E, r24	; 0x80015e <oldMenu>

00002f16 <.L91>:
    2f16:	ff ef       	ldi	r31, 0xFF	; 255
    2f18:	8f 2e       	mov	r8, r31
    2f1a:	f1 e0       	ldi	r31, 0x01	; 1
    2f1c:	9f 2e       	mov	r9, r31
    2f1e:	ae ee       	ldi	r26, 0xEE	; 238
    2f20:	aa 2e       	mov	r10, r26
    2f22:	a2 e0       	ldi	r26, 0x02	; 2
    2f24:	ba 2e       	mov	r11, r26
    2f26:	84 30       	cpi	r24, 0x04	; 4
    2f28:	d9 f1       	breq	.+118    	; 0x2fa0 <.L92>
    2f2a:	30 f5       	brcc	.+76     	; 0x2f78 <.L93>
    2f2c:	80 90 7e 15 	lds	r8, 0x157E	; 0x80157e <ch2+0x1e>
    2f30:	90 90 7f 15 	lds	r9, 0x157F	; 0x80157f <ch2+0x1f>
    2f34:	b2 ee       	ldi	r27, 0xE2	; 226
    2f36:	ab 2e       	mov	r10, r27
    2f38:	b2 e0       	ldi	r27, 0x02	; 2
    2f3a:	bb 2e       	mov	r11, r27
    2f3c:	82 30       	cpi	r24, 0x02	; 2
    2f3e:	81 f1       	breq	.+96     	; 0x2fa0 <.L92>
    2f40:	78 ef       	ldi	r23, 0xF8	; 248
    2f42:	87 2e       	mov	r8, r23
    2f44:	71 e0       	ldi	r23, 0x01	; 1
    2f46:	97 2e       	mov	r9, r23
    2f48:	e7 ee       	ldi	r30, 0xE7	; 231
    2f4a:	ae 2e       	mov	r10, r30
    2f4c:	e2 e0       	ldi	r30, 0x02	; 2
    2f4e:	be 2e       	mov	r11, r30
    2f50:	83 30       	cpi	r24, 0x03	; 3
    2f52:	31 f1       	breq	.+76     	; 0x2fa0 <.L92>
    2f54:	80 90 aa 15 	lds	r8, 0x15AA	; 0x8015aa <ch1+0x1e>
    2f58:	90 90 ab 15 	lds	r9, 0x15AB	; 0x8015ab <ch1+0x1f>
    2f5c:	1d ed       	ldi	r17, 0xDD	; 221
    2f5e:	a1 2e       	mov	r10, r17
    2f60:	12 e0       	ldi	r17, 0x02	; 2
    2f62:	b1 2e       	mov	r11, r17
    2f64:	81 30       	cpi	r24, 0x01	; 1
    2f66:	e1 f0       	breq	.+56     	; 0x2fa0 <.L92>

00002f68 <.L122>:
    2f68:	3f e3       	ldi	r19, 0x3F	; 63
    2f6a:	83 2e       	mov	r8, r19
    2f6c:	91 2c       	mov	r9, r1
    2f6e:	45 e0       	ldi	r20, 0x05	; 5
    2f70:	a4 2e       	mov	r10, r20
    2f72:	43 e0       	ldi	r20, 0x03	; 3
    2f74:	b4 2e       	mov	r11, r20
    2f76:	14 c0       	rjmp	.+40     	; 0x2fa0 <.L92>

00002f78 <.L93>:
    2f78:	58 ef       	ldi	r21, 0xF8	; 248
    2f7a:	85 2e       	mov	r8, r21
    2f7c:	51 e0       	ldi	r21, 0x01	; 1
    2f7e:	95 2e       	mov	r9, r21
    2f80:	66 ef       	ldi	r22, 0xF6	; 246
    2f82:	a6 2e       	mov	r10, r22
    2f84:	62 e0       	ldi	r22, 0x02	; 2
    2f86:	b6 2e       	mov	r11, r22
    2f88:	86 30       	cpi	r24, 0x06	; 6
    2f8a:	51 f0       	breq	.+20     	; 0x2fa0 <.L92>
    2f8c:	87 30       	cpi	r24, 0x07	; 7
    2f8e:	61 f7       	brne	.-40     	; 0x2f68 <.L122>
    2f90:	07 ec       	ldi	r16, 0xC7	; 199
    2f92:	80 2e       	mov	r8, r16
    2f94:	01 e0       	ldi	r16, 0x01	; 1
    2f96:	90 2e       	mov	r9, r16
    2f98:	8e ef       	ldi	r24, 0xFE	; 254
    2f9a:	a8 2e       	mov	r10, r24
    2f9c:	82 e0       	ldi	r24, 0x02	; 2
    2f9e:	b8 2e       	mov	r11, r24

00002fa0 <.L92>:
    2fa0:	81 e0       	ldi	r24, 0x01	; 1
    2fa2:	0e 94 80 09 	call	0x1300	; 0x1300 <vga_setTextSize>
    2fa6:	00 e0       	ldi	r16, 0x00	; 0
    2fa8:	10 e0       	ldi	r17, 0x00	; 0
    2faa:	28 e2       	ldi	r18, 0x28	; 40
    2fac:	30 e0       	ldi	r19, 0x00	; 0
    2fae:	4d e6       	ldi	r20, 0x6D	; 109
    2fb0:	50 e0       	ldi	r21, 0x00	; 0
    2fb2:	b8 01       	movw	r22, r16
    2fb4:	82 e1       	ldi	r24, 0x12	; 18
    2fb6:	92 e0       	ldi	r25, 0x02	; 2
    2fb8:	0e 94 eb 09 	call	0x13d6	; 0x13d6 <vga_fillRect>
    2fbc:	22 e0       	ldi	r18, 0x02	; 2
    2fbe:	c2 2e       	mov	r12, r18
    2fc0:	78 01       	movw	r14, r16
    2fc2:	84 01       	movw	r16, r8
    2fc4:	2c e0       	ldi	r18, 0x0C	; 12
    2fc6:	30 e0       	ldi	r19, 0x00	; 0
    2fc8:	4f e7       	ldi	r20, 0x7F	; 127
    2fca:	52 e0       	ldi	r21, 0x02	; 2
    2fcc:	62 e1       	ldi	r22, 0x12	; 18
    2fce:	72 e0       	ldi	r23, 0x02	; 2
    2fd0:	c5 01       	movw	r24, r10
    2fd2:	0e 94 ec 0e 	call	0x1dd8	; 0x1dd8 <vga_printCenteredX>
    2fd6:	80 91 5f 01 	lds	r24, 0x015F	; 0x80015f <currentMenu>
    2fda:	9f ef       	ldi	r25, 0xFF	; 255
    2fdc:	98 0f       	add	r25, r24
    2fde:	92 30       	cpi	r25, 0x02	; 2
    2fe0:	08 f0       	brcs	.+2      	; 0x2fe4 <L0+0x2>

00002fe2 <L0>:
    2fe2:	8c c0       	rjmp	.+280    	; 0x30fc <.L96>
    2fe4:	9c e8       	ldi	r25, 0x8C	; 140
    2fe6:	e9 2e       	mov	r14, r25
    2fe8:	95 e1       	ldi	r25, 0x15	; 21
    2fea:	f9 2e       	mov	r15, r25
    2fec:	81 30       	cpi	r24, 0x01	; 1
    2fee:	21 f0       	breq	.+8      	; 0x2ff8 <.L97>
    2ff0:	80 e6       	ldi	r24, 0x60	; 96
    2ff2:	e8 2e       	mov	r14, r24
    2ff4:	85 e1       	ldi	r24, 0x15	; 21
    2ff6:	f8 2e       	mov	r15, r24

00002ff8 <.L97>:
    2ff8:	86 e0       	ldi	r24, 0x06	; 6
    2ffa:	e6 e6       	ldi	r30, 0x66	; 102
    2ffc:	f1 e0       	ldi	r31, 0x01	; 1
    2ffe:	de 01       	movw	r26, r28
    3000:	19 96       	adiw	r26, 0x09	; 9

00003002 <.L01>:
    3002:	01 90       	ld	r0, Z+
    3004:	0d 92       	st	X+, r0
    3006:	8a 95       	dec	r24
    3008:	e1 f7       	brne	.-8      	; 0x3002 <.L01>
    300a:	f7 01       	movw	r30, r14
    300c:	85 85       	ldd	r24, Z+13	; 0x0d
    300e:	fe 01       	movw	r30, r28
    3010:	31 96       	adiw	r30, 0x01	; 1
    3012:	e8 0f       	add	r30, r24
    3014:	f1 1d       	adc	r31, r1
    3016:	e8 0f       	add	r30, r24
    3018:	f1 1d       	adc	r31, r1
    301a:	40 85       	ldd	r20, Z+8	; 0x08
    301c:	51 85       	ldd	r21, Z+9	; 0x09
    301e:	0f ef       	ldi	r16, 0xFF	; 255
    3020:	11 e0       	ldi	r17, 0x01	; 1
    3022:	21 e0       	ldi	r18, 0x01	; 1
    3024:	66 e4       	ldi	r22, 0x46	; 70
    3026:	73 e0       	ldi	r23, 0x03	; 3
    3028:	80 e0       	ldi	r24, 0x00	; 0
    302a:	0e 94 fb 16 	call	0x2df6	; 0x2df6 <drawMenuButton>
    302e:	20 e0       	ldi	r18, 0x00	; 0
    3030:	4f e4       	ldi	r20, 0x4F	; 79
    3032:	53 e0       	ldi	r21, 0x03	; 3
    3034:	65 e5       	ldi	r22, 0x55	; 85
    3036:	73 e0       	ldi	r23, 0x03	; 3
    3038:	81 e0       	ldi	r24, 0x01	; 1
    303a:	0e 94 fb 16 	call	0x2df6	; 0x2df6 <drawMenuButton>
    303e:	80 91 6c 01 	lds	r24, 0x016C	; 0x80016c <.LC62>
    3042:	90 91 6d 01 	lds	r25, 0x016D	; 0x80016d <.LC62+0x1>
    3046:	a0 91 6e 01 	lds	r26, 0x016E	; 0x80016e <.LC62+0x2>
    304a:	b0 91 6f 01 	lds	r27, 0x016F	; 0x80016f <.LC62+0x3>
    304e:	8f 87       	std	Y+15, r24	; 0x0f
    3050:	98 8b       	std	Y+16, r25	; 0x10
    3052:	a9 8b       	std	Y+17, r26	; 0x11
    3054:	ba 8b       	std	Y+18, r27	; 0x12
    3056:	f7 01       	movw	r30, r14
    3058:	83 8d       	ldd	r24, Z+27	; 0x1b
    305a:	fe 01       	movw	r30, r28
    305c:	31 96       	adiw	r30, 0x01	; 1
    305e:	e8 0f       	add	r30, r24
    3060:	f1 1d       	adc	r31, r1
    3062:	e8 0f       	add	r30, r24
    3064:	f1 1d       	adc	r31, r1
    3066:	46 85       	ldd	r20, Z+14	; 0x0e
    3068:	57 85       	ldd	r21, Z+15	; 0x0f
    306a:	20 e0       	ldi	r18, 0x00	; 0
    306c:	6e e5       	ldi	r22, 0x5E	; 94
    306e:	73 e0       	ldi	r23, 0x03	; 3
    3070:	82 e0       	ldi	r24, 0x02	; 2
    3072:	0e 94 fb 16 	call	0x2df6	; 0x2df6 <drawMenuButton>
    3076:	86 e0       	ldi	r24, 0x06	; 6
    3078:	e0 e7       	ldi	r30, 0x70	; 112
    307a:	f1 e0       	ldi	r31, 0x01	; 1
    307c:	de 01       	movw	r26, r28
    307e:	11 96       	adiw	r26, 0x01	; 1

00003080 <.L02>:
    3080:	01 90       	ld	r0, Z+
    3082:	0d 92       	st	X+, r0
    3084:	8a 95       	dec	r24
    3086:	e1 f7       	brne	.-8      	; 0x3080 <.L02>
    3088:	f7 01       	movw	r30, r14
    308a:	81 89       	ldd	r24, Z+17	; 0x11
    308c:	fe 01       	movw	r30, r28
    308e:	31 96       	adiw	r30, 0x01	; 1
    3090:	e8 0f       	add	r30, r24
    3092:	f1 1d       	adc	r31, r1
    3094:	e8 0f       	add	r30, r24
    3096:	f1 1d       	adc	r31, r1
    3098:	40 81       	ld	r20, Z
    309a:	51 81       	ldd	r21, Z+1	; 0x01
    309c:	21 e0       	ldi	r18, 0x01	; 1
    309e:	64 e6       	ldi	r22, 0x64	; 100
    30a0:	73 e0       	ldi	r23, 0x03	; 3
    30a2:	83 e0       	ldi	r24, 0x03	; 3
    30a4:	0e 94 fb 16 	call	0x2df6	; 0x2df6 <drawMenuButton>
    30a8:	f7 01       	movw	r30, r14
    30aa:	84 85       	ldd	r24, Z+12	; 0x0c
    30ac:	21 e0       	ldi	r18, 0x01	; 1
    30ae:	4c e0       	ldi	r20, 0x0C	; 12
    30b0:	53 e0       	ldi	r21, 0x03	; 3
    30b2:	81 11       	cpse	r24, r1
    30b4:	03 c0       	rjmp	.+6      	; 0x30bc <.L99>
    30b6:	20 e0       	ldi	r18, 0x00	; 0
    30b8:	4f e0       	ldi	r20, 0x0F	; 15
    30ba:	53 e0       	ldi	r21, 0x03	; 3

000030bc <.L99>:
    30bc:	6a e6       	ldi	r22, 0x6A	; 106
    30be:	73 e0       	ldi	r23, 0x03	; 3

000030c0 <.L136>:
    30c0:	84 e0       	ldi	r24, 0x04	; 4
    30c2:	0e 94 fb 16 	call	0x2df6	; 0x2df6 <drawMenuButton>

000030c6 <.L100>:
    30c6:	2f ef       	ldi	r18, 0xFF	; 255
    30c8:	31 e0       	ldi	r19, 0x01	; 1
    30ca:	44 e6       	ldi	r20, 0x64	; 100
    30cc:	50 e0       	ldi	r21, 0x00	; 0
    30ce:	66 ea       	ldi	r22, 0xA6	; 166
    30d0:	71 e0       	ldi	r23, 0x01	; 1
    30d2:	87 e1       	ldi	r24, 0x17	; 23
    30d4:	92 e0       	ldi	r25, 0x02	; 2
    30d6:	62 96       	adiw	r28, 0x12	; 18
    30d8:	0f b6       	in	r0, 0x3f	; 63
    30da:	f8 94       	cli
    30dc:	de bf       	out	0x3e, r29	; 62
    30de:	0f be       	out	0x3f, r0	; 63
    30e0:	cd bf       	out	0x3d, r28	; 61
    30e2:	df 91       	pop	r29
    30e4:	cf 91       	pop	r28
    30e6:	1f 91       	pop	r17
    30e8:	0f 91       	pop	r16
    30ea:	ff 90       	pop	r15
    30ec:	ef 90       	pop	r14
    30ee:	cf 90       	pop	r12
    30f0:	bf 90       	pop	r11
    30f2:	af 90       	pop	r10
    30f4:	9f 90       	pop	r9
    30f6:	8f 90       	pop	r8
    30f8:	0c 94 d5 0c 	jmp	0x19aa	; 0x19aa <vga_drawFastHLine>

000030fc <.L96>:
    30fc:	83 30       	cpi	r24, 0x03	; 3
    30fe:	09 f0       	breq	.+2      	; 0x3102 <L0+0x2>

00003100 <L0>:
    3100:	49 c0       	rjmp	.+146    	; 0x3194 <.L101>
    3102:	80 91 54 01 	lds	r24, 0x0154	; 0x800154 <trigger_source>
    3106:	43 e1       	ldi	r20, 0x13	; 19
    3108:	53 e0       	ldi	r21, 0x03	; 3
    310a:	81 30       	cpi	r24, 0x01	; 1
    310c:	11 f0       	breq	.+4      	; 0x3112 <.L102>
    310e:	47 e1       	ldi	r20, 0x17	; 23
    3110:	53 e0       	ldi	r21, 0x03	; 3

00003112 <.L102>:
    3112:	0f ef       	ldi	r16, 0xFF	; 255
    3114:	11 e0       	ldi	r17, 0x01	; 1
    3116:	21 e0       	ldi	r18, 0x01	; 1
    3118:	61 e7       	ldi	r22, 0x71	; 113
    311a:	73 e0       	ldi	r23, 0x03	; 3
    311c:	80 e0       	ldi	r24, 0x00	; 0
    311e:	0e 94 fb 16 	call	0x2df6	; 0x2df6 <drawMenuButton>
    3122:	80 91 5b 15 	lds	r24, 0x155B	; 0x80155b <trigger_slope>
    3126:	4b e1       	ldi	r20, 0x1B	; 27
    3128:	53 e0       	ldi	r21, 0x03	; 3
    312a:	81 30       	cpi	r24, 0x01	; 1
    312c:	11 f0       	breq	.+4      	; 0x3132 <.L103>
    312e:	40 e2       	ldi	r20, 0x20	; 32
    3130:	53 e0       	ldi	r21, 0x03	; 3

00003132 <.L103>:
    3132:	21 e0       	ldi	r18, 0x01	; 1
    3134:	68 e7       	ldi	r22, 0x78	; 120
    3136:	73 e0       	ldi	r23, 0x03	; 3
    3138:	81 e0       	ldi	r24, 0x01	; 1
    313a:	0e 94 fb 16 	call	0x2df6	; 0x2df6 <drawMenuButton>
    313e:	80 91 5c 15 	lds	r24, 0x155C	; 0x80155c <trigger_mode>
    3142:	45 e2       	ldi	r20, 0x25	; 37
    3144:	53 e0       	ldi	r21, 0x03	; 3
    3146:	81 15       	cp	r24, r1
    3148:	11 f0       	breq	.+4      	; 0x314e <.L104>
    314a:	4a e2       	ldi	r20, 0x2A	; 42
    314c:	53 e0       	ldi	r21, 0x03	; 3

0000314e <.L104>:
    314e:	21 e0       	ldi	r18, 0x01	; 1
    3150:	6e e7       	ldi	r22, 0x7E	; 126
    3152:	73 e0       	ldi	r23, 0x03	; 3
    3154:	82 e0       	ldi	r24, 0x02	; 2
    3156:	0e 94 fb 16 	call	0x2df6	; 0x2df6 <drawMenuButton>
    315a:	80 91 53 01 	lds	r24, 0x0153	; 0x800153 <trigger_hysteresis>
    315e:	4a e0       	ldi	r20, 0x0A	; 10
    3160:	be 01       	movw	r22, r28
    3162:	6f 5f       	subi	r22, 0xFF	; 255
    3164:	7f 4f       	sbci	r23, 0xFF	; 255
    3166:	90 e0       	ldi	r25, 0x00	; 0
    3168:	0e 94 b4 35 	call	0x6b68	; 0x6b68 <__utoa_ncheck>
    316c:	80 91 51 05 	lds	r24, 0x0551	; 0x800551 <current_enc_mode>
    3170:	81 30       	cpi	r24, 0x01	; 1
    3172:	09 f4       	brne	.+2      	; 0x3176 <.L135>
    3174:	08 ef       	ldi	r16, 0xF8	; 248

00003176 <.L135>:
    3176:	21 e0       	ldi	r18, 0x01	; 1
    3178:	ae 01       	movw	r20, r28
    317a:	4f 5f       	subi	r20, 0xFF	; 255
    317c:	5f 4f       	sbci	r21, 0xFF	; 255
    317e:	63 e8       	ldi	r22, 0x83	; 131
    3180:	73 e0       	ldi	r23, 0x03	; 3
    3182:	83 e0       	ldi	r24, 0x03	; 3
    3184:	0e 94 fb 16 	call	0x2df6	; 0x2df6 <drawMenuButton>
    3188:	0f ef       	ldi	r16, 0xFF	; 255

0000318a <.L139>:
    318a:	21 e0       	ldi	r18, 0x01	; 1
    318c:	4d e5       	ldi	r20, 0x5D	; 93
    318e:	52 e0       	ldi	r21, 0x02	; 2
    3190:	ba 01       	movw	r22, r20
    3192:	96 cf       	rjmp	.-212    	; 0x30c0 <.L136>

00003194 <.L101>:
    3194:	84 30       	cpi	r24, 0x04	; 4
    3196:	09 f0       	breq	.+2      	; 0x319a <L0+0x2>

00003198 <L0>:
    3198:	52 c0       	rjmp	.+164    	; 0x323e <.L107>
    319a:	e0 91 64 01 	lds	r30, 0x0164	; 0x800164 <misure>
    319e:	f0 91 65 01 	lds	r31, 0x0165	; 0x800165 <misure+0x1>
    31a2:	86 89       	ldd	r24, Z+22	; 0x16
    31a4:	43 e1       	ldi	r20, 0x13	; 19
    31a6:	53 e0       	ldi	r21, 0x03	; 3
    31a8:	81 30       	cpi	r24, 0x01	; 1
    31aa:	11 f0       	breq	.+4      	; 0x31b0 <.L108>
    31ac:	47 e1       	ldi	r20, 0x17	; 23
    31ae:	53 e0       	ldi	r21, 0x03	; 3

000031b0 <.L108>:
    31b0:	0f ef       	ldi	r16, 0xFF	; 255
    31b2:	11 e0       	ldi	r17, 0x01	; 1
    31b4:	21 e0       	ldi	r18, 0x01	; 1
    31b6:	61 e7       	ldi	r22, 0x71	; 113
    31b8:	73 e0       	ldi	r23, 0x03	; 3
    31ba:	80 e0       	ldi	r24, 0x00	; 0
    31bc:	0e 94 fb 16 	call	0x2df6	; 0x2df6 <drawMenuButton>
    31c0:	86 e0       	ldi	r24, 0x06	; 6
    31c2:	e6 e7       	ldi	r30, 0x76	; 118
    31c4:	f1 e0       	ldi	r31, 0x01	; 1
    31c6:	de 01       	movw	r26, r28
    31c8:	11 96       	adiw	r26, 0x01	; 1

000031ca <.L03>:
    31ca:	01 90       	ld	r0, Z+
    31cc:	0d 92       	st	X+, r0
    31ce:	8a 95       	dec	r24
    31d0:	e1 f7       	brne	.-8      	; 0x31ca <.L03>
    31d2:	e0 91 64 01 	lds	r30, 0x0164	; 0x800164 <misure>
    31d6:	f0 91 65 01 	lds	r31, 0x0165	; 0x800165 <misure+0x1>
    31da:	87 89       	ldd	r24, Z+23	; 0x17
    31dc:	fe 01       	movw	r30, r28
    31de:	31 96       	adiw	r30, 0x01	; 1
    31e0:	e8 0f       	add	r30, r24
    31e2:	f1 1d       	adc	r31, r1
    31e4:	e8 0f       	add	r30, r24
    31e6:	f1 1d       	adc	r31, r1
    31e8:	40 81       	ld	r20, Z
    31ea:	51 81       	ldd	r21, Z+1	; 0x01
    31ec:	21 e0       	ldi	r18, 0x01	; 1
    31ee:	69 e8       	ldi	r22, 0x89	; 137
    31f0:	73 e0       	ldi	r23, 0x03	; 3
    31f2:	81 e0       	ldi	r24, 0x01	; 1
    31f4:	0e 94 fb 16 	call	0x2df6	; 0x2df6 <drawMenuButton>
    31f8:	e0 91 64 01 	lds	r30, 0x0164	; 0x800164 <misure>
    31fc:	f0 91 65 01 	lds	r31, 0x0165	; 0x800165 <misure+0x1>
    3200:	84 89       	ldd	r24, Z+20	; 0x14
    3202:	4f e0       	ldi	r20, 0x0F	; 15
    3204:	53 e0       	ldi	r21, 0x03	; 3
    3206:	81 15       	cp	r24, r1
    3208:	11 f0       	breq	.+4      	; 0x320e <.L109>
    320a:	4c e0       	ldi	r20, 0x0C	; 12
    320c:	53 e0       	ldi	r21, 0x03	; 3

0000320e <.L109>:
    320e:	21 e0       	ldi	r18, 0x01	; 1
    3210:	6e e8       	ldi	r22, 0x8E	; 142
    3212:	73 e0       	ldi	r23, 0x03	; 3
    3214:	82 e0       	ldi	r24, 0x02	; 2
    3216:	0e 94 fb 16 	call	0x2df6	; 0x2df6 <drawMenuButton>
    321a:	e0 91 64 01 	lds	r30, 0x0164	; 0x800164 <misure>
    321e:	f0 91 65 01 	lds	r31, 0x0165	; 0x800165 <misure+0x1>
    3222:	85 89       	ldd	r24, Z+21	; 0x15
    3224:	4f e0       	ldi	r20, 0x0F	; 15
    3226:	53 e0       	ldi	r21, 0x03	; 3
    3228:	81 15       	cp	r24, r1
    322a:	11 f0       	breq	.+4      	; 0x3230 <.L110>
    322c:	4c e0       	ldi	r20, 0x0C	; 12
    322e:	53 e0       	ldi	r21, 0x03	; 3

00003230 <.L110>:
    3230:	21 e0       	ldi	r18, 0x01	; 1
    3232:	63 e9       	ldi	r22, 0x93	; 147
    3234:	73 e0       	ldi	r23, 0x03	; 3

00003236 <.L138>:
    3236:	83 e0       	ldi	r24, 0x03	; 3
    3238:	0e 94 fb 16 	call	0x2df6	; 0x2df6 <drawMenuButton>
    323c:	a6 cf       	rjmp	.-180    	; 0x318a <.L139>

0000323e <.L107>:
    323e:	86 30       	cpi	r24, 0x06	; 6
    3240:	09 f0       	breq	.+2      	; 0x3244 <L0+0x2>

00003242 <L0>:
    3242:	5b c0       	rjmp	.+182    	; 0x32fa <.L111>
    3244:	ec e7       	ldi	r30, 0x7C	; 124
    3246:	f1 e0       	ldi	r31, 0x01	; 1
    3248:	de 01       	movw	r26, r28
    324a:	11 96       	adiw	r26, 0x01	; 1

0000324c <.L04>:
    324c:	01 90       	ld	r0, Z+
    324e:	0d 92       	st	X+, r0
    3250:	8a 95       	dec	r24
    3252:	e1 f7       	brne	.-8      	; 0x324c <.L04>
    3254:	80 91 4b 15 	lds	r24, 0x154B	; 0x80154b <cursor_type>
    3258:	21 e0       	ldi	r18, 0x01	; 1
    325a:	81 11       	cpse	r24, r1
    325c:	01 c0       	rjmp	.+2      	; 0x3260 <.L112>
    325e:	20 e0       	ldi	r18, 0x00	; 0

00003260 <.L112>:
    3260:	fe 01       	movw	r30, r28
    3262:	31 96       	adiw	r30, 0x01	; 1
    3264:	e8 0f       	add	r30, r24
    3266:	f1 1d       	adc	r31, r1
    3268:	e8 0f       	add	r30, r24
    326a:	f1 1d       	adc	r31, r1
    326c:	40 81       	ld	r20, Z
    326e:	51 81       	ldd	r21, Z+1	; 0x01
    3270:	0f ef       	ldi	r16, 0xFF	; 255
    3272:	11 e0       	ldi	r17, 0x01	; 1
    3274:	69 e8       	ldi	r22, 0x89	; 137
    3276:	73 e0       	ldi	r23, 0x03	; 3
    3278:	80 e0       	ldi	r24, 0x00	; 0
    327a:	0e 94 fb 16 	call	0x2df6	; 0x2df6 <drawMenuButton>
    327e:	80 91 1e 01 	lds	r24, 0x011E	; 0x80011e <cursor_source>
    3282:	43 e1       	ldi	r20, 0x13	; 19
    3284:	53 e0       	ldi	r21, 0x03	; 3
    3286:	81 30       	cpi	r24, 0x01	; 1
    3288:	11 f0       	breq	.+4      	; 0x328e <.L113>
    328a:	47 e1       	ldi	r20, 0x17	; 23
    328c:	53 e0       	ldi	r21, 0x03	; 3

0000328e <.L113>:
    328e:	21 e0       	ldi	r18, 0x01	; 1
    3290:	61 e7       	ldi	r22, 0x71	; 113
    3292:	73 e0       	ldi	r23, 0x03	; 3
    3294:	81 e0       	ldi	r24, 0x01	; 1
    3296:	0e 94 fb 16 	call	0x2df6	; 0x2df6 <drawMenuButton>
    329a:	80 91 4b 15 	lds	r24, 0x154B	; 0x80154b <cursor_type>
    329e:	81 30       	cpi	r24, 0x01	; 1
    32a0:	60 f4       	brcc	.+24     	; 0x32ba <.L114>

000032a2 <.L137>:
    32a2:	21 e0       	ldi	r18, 0x01	; 1
    32a4:	4d e5       	ldi	r20, 0x5D	; 93
    32a6:	52 e0       	ldi	r21, 0x02	; 2
    32a8:	ba 01       	movw	r22, r20
    32aa:	82 e0       	ldi	r24, 0x02	; 2
    32ac:	0e 94 fb 16 	call	0x2df6	; 0x2df6 <drawMenuButton>
    32b0:	21 e0       	ldi	r18, 0x01	; 1
    32b2:	4d e5       	ldi	r20, 0x5D	; 93
    32b4:	52 e0       	ldi	r21, 0x02	; 2
    32b6:	ba 01       	movw	r22, r20
    32b8:	be cf       	rjmp	.-132    	; 0x3236 <.L138>

000032ba <.L114>:
    32ba:	b1 f4       	brne	.+44     	; 0x32e8 <.L116>
    32bc:	20 e0       	ldi	r18, 0x00	; 0
    32be:	4d e5       	ldi	r20, 0x5D	; 93
    32c0:	52 e0       	ldi	r21, 0x02	; 2
    32c2:	69 e9       	ldi	r22, 0x99	; 153
    32c4:	73 e0       	ldi	r23, 0x03	; 3
    32c6:	82 e0       	ldi	r24, 0x02	; 2

000032c8 <.L140>:
    32c8:	0e 94 fb 16 	call	0x2df6	; 0x2df6 <drawMenuButton>
    32cc:	20 e0       	ldi	r18, 0x00	; 0
    32ce:	4d e5       	ldi	r20, 0x5D	; 93
    32d0:	52 e0       	ldi	r21, 0x02	; 2
    32d2:	6c e9       	ldi	r22, 0x9C	; 156
    32d4:	73 e0       	ldi	r23, 0x03	; 3
    32d6:	83 e0       	ldi	r24, 0x03	; 3
    32d8:	0e 94 fb 16 	call	0x2df6	; 0x2df6 <drawMenuButton>
    32dc:	20 e0       	ldi	r18, 0x00	; 0
    32de:	4d e5       	ldi	r20, 0x5D	; 93
    32e0:	52 e0       	ldi	r21, 0x02	; 2
    32e2:	65 ea       	ldi	r22, 0xA5	; 165
    32e4:	73 e0       	ldi	r23, 0x03	; 3
    32e6:	ec ce       	rjmp	.-552    	; 0x30c0 <.L136>

000032e8 <.L116>:
    32e8:	82 30       	cpi	r24, 0x02	; 2
    32ea:	09 f0       	breq	.+2      	; 0x32ee <L0+0x2>

000032ec <L0>:
    32ec:	ec ce       	rjmp	.-552    	; 0x30c6 <.L100>
    32ee:	20 e0       	ldi	r18, 0x00	; 0
    32f0:	4d e5       	ldi	r20, 0x5D	; 93
    32f2:	52 e0       	ldi	r21, 0x02	; 2
    32f4:	6e ea       	ldi	r22, 0xAE	; 174
    32f6:	73 e0       	ldi	r23, 0x03	; 3
    32f8:	e7 cf       	rjmp	.-50     	; 0x32c8 <.L140>

000032fa <.L111>:
    32fa:	87 30       	cpi	r24, 0x07	; 7
    32fc:	09 f0       	breq	.+2      	; 0x3300 <L0+0x2>

000032fe <L0>:
    32fe:	e3 ce       	rjmp	.-570    	; 0x30c6 <.L100>
    3300:	80 91 59 15 	lds	r24, 0x1559	; 0x801559 <is_xy_mode>
    3304:	4f e2       	ldi	r20, 0x2F	; 47
    3306:	53 e0       	ldi	r21, 0x03	; 3
    3308:	81 11       	cpse	r24, r1
    330a:	02 c0       	rjmp	.+4      	; 0x3310 <.L117>
    330c:	43 e3       	ldi	r20, 0x33	; 51
    330e:	53 e0       	ldi	r21, 0x03	; 3

00003310 <.L117>:
    3310:	0f ef       	ldi	r16, 0xFF	; 255
    3312:	11 e0       	ldi	r17, 0x01	; 1
    3314:	21 e0       	ldi	r18, 0x01	; 1
    3316:	6e e7       	ldi	r22, 0x7E	; 126
    3318:	73 e0       	ldi	r23, 0x03	; 3
    331a:	80 e0       	ldi	r24, 0x00	; 0
    331c:	0e 94 fb 16 	call	0x2df6	; 0x2df6 <drawMenuButton>
    3320:	80 91 49 01 	lds	r24, 0x0149	; 0x800149 <is_vectors>
    3324:	47 e3       	ldi	r20, 0x37	; 55
    3326:	53 e0       	ldi	r21, 0x03	; 3
    3328:	81 11       	cpse	r24, r1
    332a:	02 c0       	rjmp	.+4      	; 0x3330 <.L118>
    332c:	4f e3       	ldi	r20, 0x3F	; 63
    332e:	53 e0       	ldi	r21, 0x03	; 3

00003330 <.L118>:
    3330:	21 e0       	ldi	r18, 0x01	; 1
    3332:	64 eb       	ldi	r22, 0xB4	; 180
    3334:	73 e0       	ldi	r23, 0x03	; 3
    3336:	81 e0       	ldi	r24, 0x01	; 1
    3338:	0e 94 fb 16 	call	0x2df6	; 0x2df6 <drawMenuButton>
    333c:	b2 cf       	rjmp	.-156    	; 0x32a2 <.L137>

0000333e <drawStaticInterface>:
    333e:	ef 92       	push	r14
    3340:	0f 93       	push	r16
    3342:	1f 93       	push	r17
    3344:	80 e0       	ldi	r24, 0x00	; 0
    3346:	90 e0       	ldi	r25, 0x00	; 0
    3348:	0e 94 c7 09 	call	0x138e	; 0x138e <vga_clear_screen>
    334c:	02 e9       	ldi	r16, 0x92	; 146
    334e:	10 e0       	ldi	r17, 0x00	; 0
    3350:	24 e1       	ldi	r18, 0x14	; 20
    3352:	30 e0       	ldi	r19, 0x00	; 0
    3354:	49 e9       	ldi	r20, 0x99	; 153
    3356:	51 e0       	ldi	r21, 0x01	; 1
    3358:	60 e0       	ldi	r22, 0x00	; 0
    335a:	70 e0       	ldi	r23, 0x00	; 0
    335c:	cb 01       	movw	r24, r22
    335e:	0e 94 eb 09 	call	0x13d6	; 0x13d6 <vga_fillRect>
    3362:	82 e0       	ldi	r24, 0x02	; 2
    3364:	e8 2e       	mov	r14, r24
    3366:	09 e4       	ldi	r16, 0x49	; 73
    3368:	28 e3       	ldi	r18, 0x38	; 56
    336a:	30 e0       	ldi	r19, 0x00	; 0
    336c:	45 e0       	ldi	r20, 0x05	; 5
    336e:	50 e0       	ldi	r21, 0x00	; 0
    3370:	6a e0       	ldi	r22, 0x0A	; 10
    3372:	70 e0       	ldi	r23, 0x00	; 0
    3374:	86 ea       	ldi	r24, 0xA6	; 166
    3376:	92 e0       	ldi	r25, 0x02	; 2
    3378:	0e 94 95 0c 	call	0x192a	; 0x192a <vga_printAt>
    337c:	0f ef       	ldi	r16, 0xFF	; 255
    337e:	11 e0       	ldi	r17, 0x01	; 1
    3380:	2e e7       	ldi	r18, 0x7E	; 126
    3382:	31 e0       	ldi	r19, 0x01	; 1
    3384:	46 ef       	ldi	r20, 0xF6	; 246
    3386:	51 e0       	ldi	r21, 0x01	; 1
    3388:	67 e2       	ldi	r22, 0x27	; 39
    338a:	70 e0       	ldi	r23, 0x00	; 0
    338c:	83 e1       	ldi	r24, 0x13	; 19
    338e:	90 e0       	ldi	r25, 0x00	; 0
    3390:	0e 94 21 0d 	call	0x1a42	; 0x1a42 <vga_drawRect>
    3394:	02 e9       	ldi	r16, 0x92	; 146
    3396:	10 e0       	ldi	r17, 0x00	; 0
    3398:	24 ea       	ldi	r18, 0xA4	; 164
    339a:	31 e0       	ldi	r19, 0x01	; 1
    339c:	40 e1       	ldi	r20, 0x10	; 16
    339e:	52 e0       	ldi	r21, 0x02	; 2
    33a0:	64 e1       	ldi	r22, 0x14	; 20
    33a2:	70 e0       	ldi	r23, 0x00	; 0
    33a4:	ca 01       	movw	r24, r20
    33a6:	0e 94 00 0e 	call	0x1c00	; 0x1c00 <vga_drawLine>
    33aa:	1f 91       	pop	r17
    33ac:	0f 91       	pop	r16
    33ae:	ef 90       	pop	r14
    33b0:	0c 94 56 17 	jmp	0x2eac	; 0x2eac <updateSidebarLabels>

000033b4 <osc_arm_readout>:
    33b4:	1c be       	out	0x3c, r1	; 60
    33b6:	08 95       	ret

000033b8 <read_fpga_frequency>:
    33b8:	4f 92       	push	r4
    33ba:	5f 92       	push	r5
    33bc:	6f 92       	push	r6
    33be:	7f 92       	push	r7
    33c0:	bf 92       	push	r11
    33c2:	cf 92       	push	r12
    33c4:	df 92       	push	r13
    33c6:	ef 92       	push	r14
    33c8:	ff 92       	push	r15
    33ca:	0f 93       	push	r16
    33cc:	1f 93       	push	r17
    33ce:	cf 93       	push	r28
    33d0:	df 93       	push	r29
    33d2:	80 91 5d 01 	lds	r24, 0x015D	; 0x80015d <is_running>
    33d6:	81 15       	cp	r24, r1
    33d8:	09 f4       	brne	.+2      	; 0x33dc <L0+0x2>

000033da <L0>:
    33da:	c3 c0       	rjmp	.+390    	; 0x3562 <.L3>
    33dc:	80 91 5e 15 	lds	r24, 0x155E	; 0x80155e <pan_flag>
    33e0:	81 11       	cpse	r24, r1
    33e2:	bf c0       	rjmp	.+382    	; 0x3562 <.L3>
    33e4:	80 91 5f 15 	lds	r24, 0x155F	; 0x80155f <freeze>
    33e8:	81 11       	cpse	r24, r1
    33ea:	bb c0       	rjmp	.+374    	; 0x3562 <.L3>
    33ec:	43 b1       	in	r20, 0x03	; 3
    33ee:	62 b1       	in	r22, 0x02	; 2
    33f0:	21 b1       	in	r18, 0x01	; 1
    33f2:	30 b1       	in	r19, 0x00	; 0
    33f4:	86 2f       	mov	r24, r22
    33f6:	94 2f       	mov	r25, r20
    33f8:	63 2f       	mov	r22, r19
    33fa:	72 2f       	mov	r23, r18
    33fc:	8b 01       	movw	r16, r22
    33fe:	9c 01       	movw	r18, r24
    3400:	01 50       	subi	r16, 0x01	; 1
    3402:	11 09       	sbc	r17, r1
    3404:	21 09       	sbc	r18, r1
    3406:	31 09       	sbc	r19, r1
    3408:	0e 3f       	cpi	r16, 0xFE	; 254
    340a:	1f 4f       	sbci	r17, 0xFF	; 255
    340c:	2f 4f       	sbci	r18, 0xFF	; 255
    340e:	3f 4f       	sbci	r19, 0xFF	; 255
    3410:	70 f1       	brcs	.+92     	; 0x346e <.L4>
    3412:	10 92 4d 05 	sts	0x054D, r1	; 0x80054d <sum.4>
    3416:	10 92 4e 05 	sts	0x054E, r1	; 0x80054e <sum.4+0x1>
    341a:	10 92 4f 05 	sts	0x054F, r1	; 0x80054f <sum.4+0x2>
    341e:	10 92 50 05 	sts	0x0550, r1	; 0x800550 <sum.4+0x3>
    3422:	10 92 4c 05 	sts	0x054C, r1	; 0x80054c <count.3>
    3426:	10 92 4b 05 	sts	0x054B, r1	; 0x80054b <idx.2>
    342a:	eb ec       	ldi	r30, 0xCB	; 203
    342c:	f4 e0       	ldi	r31, 0x04	; 4
    342e:	80 e8       	ldi	r24, 0x80	; 128
    3430:	df 01       	movw	r26, r30

00003432 <.L01>:
    3432:	1d 92       	st	X+, r1
    3434:	8a 95       	dec	r24
    3436:	e9 f7       	brne	.-6      	; 0x3432 <.L01>
    3438:	10 92 c7 04 	sts	0x04C7, r1	; 0x8004c7 <last_stable_freq.0>
    343c:	10 92 c8 04 	sts	0x04C8, r1	; 0x8004c8 <last_stable_freq.0+0x1>
    3440:	10 92 c9 04 	sts	0x04C9, r1	; 0x8004c9 <last_stable_freq.0+0x2>
    3444:	10 92 ca 04 	sts	0x04CA, r1	; 0x8004ca <last_stable_freq.0+0x3>
    3448:	61 2c       	mov	r6, r1
    344a:	71 2c       	mov	r7, r1
    344c:	23 01       	movw	r4, r6

0000344e <.L2>:
    344e:	b2 01       	movw	r22, r4
    3450:	c3 01       	movw	r24, r6
    3452:	df 91       	pop	r29
    3454:	cf 91       	pop	r28
    3456:	1f 91       	pop	r17
    3458:	0f 91       	pop	r16
    345a:	ff 90       	pop	r15
    345c:	ef 90       	pop	r14
    345e:	df 90       	pop	r13
    3460:	cf 90       	pop	r12
    3462:	bf 90       	pop	r11
    3464:	7f 90       	pop	r7
    3466:	6f 90       	pop	r6
    3468:	5f 90       	pop	r5
    346a:	4f 90       	pop	r4
    346c:	08 95       	ret

0000346e <.L4>:
    346e:	0e 94 c7 33 	call	0x678e	; 0x678e <__floatunsisf>
    3472:	9b 01       	movw	r18, r22
    3474:	ac 01       	movw	r20, r24
    3476:	60 ec       	ldi	r22, 0xC0	; 192
    3478:	71 ee       	ldi	r23, 0xE1	; 225
    347a:	84 e6       	ldi	r24, 0x64	; 100
    347c:	9f e4       	ldi	r25, 0x4F	; 79
    347e:	0e 94 19 33 	call	0x6632	; 0x6632 <__divsf3>
    3482:	6b 01       	movw	r12, r22
    3484:	7c 01       	movw	r14, r24
    3486:	b0 90 4c 05 	lds	r11, 0x054C	; 0x80054c <count.3>
    348a:	b1 14       	cp	r11, r1
    348c:	09 f1       	breq	.+66     	; 0x34d0 <.L6>
    348e:	40 90 c7 04 	lds	r4, 0x04C7	; 0x8004c7 <last_stable_freq.0>
    3492:	50 90 c8 04 	lds	r5, 0x04C8	; 0x8004c8 <last_stable_freq.0+0x1>
    3496:	60 90 c9 04 	lds	r6, 0x04C9	; 0x8004c9 <last_stable_freq.0+0x2>
    349a:	70 90 ca 04 	lds	r7, 0x04CA	; 0x8004ca <last_stable_freq.0+0x3>
    349e:	20 e0       	ldi	r18, 0x00	; 0
    34a0:	30 e0       	ldi	r19, 0x00	; 0
    34a2:	40 e2       	ldi	r20, 0x20	; 32
    34a4:	51 e4       	ldi	r21, 0x41	; 65
    34a6:	b2 01       	movw	r22, r4
    34a8:	c3 01       	movw	r24, r6
    34aa:	0e 94 cc 34 	call	0x6998	; 0x6998 <__mulsf3>
    34ae:	96 01       	movw	r18, r12
    34b0:	a7 01       	movw	r20, r14
    34b2:	0e 94 14 33 	call	0x6628	; 0x6628 <__cmpsf2>
    34b6:	87 ff       	sbrs	r24, 7
    34b8:	0b c0       	rjmp	.+22     	; 0x34d0 <.L6>
    34ba:	20 e0       	ldi	r18, 0x00	; 0
    34bc:	30 e0       	ldi	r19, 0x00	; 0
    34be:	40 e8       	ldi	r20, 0x80	; 128
    34c0:	5f e3       	ldi	r21, 0x3F	; 63
    34c2:	b2 01       	movw	r22, r4
    34c4:	c3 01       	movw	r24, r6
    34c6:	0e 94 c7 34 	call	0x698e	; 0x698e <__gesf2>
    34ca:	18 16       	cp	r1, r24
    34cc:	0c f4       	brge	.+2      	; 0x34d0 <.L6>

000034ce <L0>:
    34ce:	bf cf       	rjmp	.-130    	; 0x344e <.L2>

000034d0 <.L6>:
    34d0:	c0 91 4b 05 	lds	r28, 0x054B	; 0x80054b <idx.2>
    34d4:	0c 2f       	mov	r16, r28
    34d6:	10 e0       	ldi	r17, 0x00	; 0
    34d8:	b4 e0       	ldi	r27, 0x04	; 4
    34da:	cb 9f       	mul	r28, r27
    34dc:	e0 01       	movw	r28, r0
    34de:	11 24       	eor	r1, r1
    34e0:	c5 53       	subi	r28, 0x35	; 53
    34e2:	db 4f       	sbci	r29, 0xFB	; 251
    34e4:	28 81       	ld	r18, Y
    34e6:	39 81       	ldd	r19, Y+1	; 0x01
    34e8:	4a 81       	ldd	r20, Y+2	; 0x02
    34ea:	5b 81       	ldd	r21, Y+3	; 0x03
    34ec:	60 91 4d 05 	lds	r22, 0x054D	; 0x80054d <sum.4>
    34f0:	70 91 4e 05 	lds	r23, 0x054E	; 0x80054e <sum.4+0x1>
    34f4:	80 91 4f 05 	lds	r24, 0x054F	; 0x80054f <sum.4+0x2>
    34f8:	90 91 50 05 	lds	r25, 0x0550	; 0x800550 <sum.4+0x3>
    34fc:	0e 94 a7 32 	call	0x654e	; 0x654e <__subsf3>
    3500:	c8 82       	st	Y, r12
    3502:	d9 82       	std	Y+1, r13	; 0x01
    3504:	ea 82       	std	Y+2, r14	; 0x02
    3506:	fb 82       	std	Y+3, r15	; 0x03
    3508:	96 01       	movw	r18, r12
    350a:	a7 01       	movw	r20, r14
    350c:	0e 94 a8 32 	call	0x6550	; 0x6550 <__addsf3>
    3510:	6b 01       	movw	r12, r22
    3512:	7c 01       	movw	r14, r24
    3514:	60 93 4d 05 	sts	0x054D, r22	; 0x80054d <sum.4>
    3518:	d0 92 4e 05 	sts	0x054E, r13	; 0x80054e <sum.4+0x1>
    351c:	80 93 4f 05 	sts	0x054F, r24	; 0x80054f <sum.4+0x2>
    3520:	f0 92 50 05 	sts	0x0550, r15	; 0x800550 <sum.4+0x3>
    3524:	0f 5f       	subi	r16, 0xFF	; 255
    3526:	1f 4f       	sbci	r17, 0xFF	; 255
    3528:	0f 71       	andi	r16, 0x1F	; 31
    352a:	00 93 4b 05 	sts	0x054B, r16	; 0x80054b <idx.2>
    352e:	40 e2       	ldi	r20, 0x20	; 32
    3530:	b4 16       	cp	r11, r20
    3532:	18 f4       	brcc	.+6      	; 0x353a <.L8>
    3534:	b3 94       	inc	r11
    3536:	b0 92 4c 05 	sts	0x054C, r11	; 0x80054c <count.3>

0000353a <.L8>:
    353a:	6b 2d       	mov	r22, r11
    353c:	70 e0       	ldi	r23, 0x00	; 0
    353e:	80 e0       	ldi	r24, 0x00	; 0
    3540:	90 e0       	ldi	r25, 0x00	; 0
    3542:	0e 94 c9 33 	call	0x6792	; 0x6792 <__floatsisf>
    3546:	9b 01       	movw	r18, r22
    3548:	ac 01       	movw	r20, r24
    354a:	b6 01       	movw	r22, r12
    354c:	c7 01       	movw	r24, r14
    354e:	0e 94 19 33 	call	0x6632	; 0x6632 <__divsf3>
    3552:	60 93 c7 04 	sts	0x04C7, r22	; 0x8004c7 <last_stable_freq.0>
    3556:	70 93 c8 04 	sts	0x04C8, r23	; 0x8004c8 <last_stable_freq.0+0x1>
    355a:	80 93 c9 04 	sts	0x04C9, r24	; 0x8004c9 <last_stable_freq.0+0x2>
    355e:	90 93 ca 04 	sts	0x04CA, r25	; 0x8004ca <last_stable_freq.0+0x3>

00003562 <.L3>:
    3562:	40 90 c7 04 	lds	r4, 0x04C7	; 0x8004c7 <last_stable_freq.0>
    3566:	50 90 c8 04 	lds	r5, 0x04C8	; 0x8004c8 <last_stable_freq.0+0x1>
    356a:	60 90 c9 04 	lds	r6, 0x04C9	; 0x8004c9 <last_stable_freq.0+0x2>
    356e:	70 90 ca 04 	lds	r7, 0x04CA	; 0x8004ca <last_stable_freq.0+0x3>
    3572:	6d cf       	rjmp	.-294    	; 0x344e <.L2>

00003574 <set_dds_frequency>:
    3574:	0e 94 c7 33 	call	0x678e	; 0x678e <__floatunsisf>
    3578:	20 ec       	ldi	r18, 0xC0	; 192
    357a:	31 ee       	ldi	r19, 0xE1	; 225
    357c:	44 e6       	ldi	r20, 0x64	; 100
    357e:	5c e4       	ldi	r21, 0x4C	; 76
    3580:	0e 94 19 33 	call	0x6632	; 0x6632 <__divsf3>
    3584:	20 e0       	ldi	r18, 0x00	; 0
    3586:	30 e0       	ldi	r19, 0x00	; 0
    3588:	40 e8       	ldi	r20, 0x80	; 128
    358a:	5f e4       	ldi	r21, 0x4F	; 79
    358c:	0e 94 cc 34 	call	0x6998	; 0x6998 <__mulsf3>
    3590:	0e 94 92 33 	call	0x6724	; 0x6724 <__fixunssfsi>
    3594:	ab 01       	movw	r20, r22
    3596:	bc 01       	movw	r22, r24
    3598:	ef e1       	ldi	r30, 0x1F	; 31
    359a:	f0 e5       	ldi	r31, 0x50	; 80
    359c:	40 83       	st	Z, r20
    359e:	50 83       	st	Z, r21
    35a0:	80 83       	st	Z, r24
    35a2:	70 83       	st	Z, r23
    35a4:	08 95       	ret

000035a6 <set_trigger_level>:
    35a6:	9f 70       	andi	r25, 0x0F	; 15
    35a8:	83 bb       	out	0x13, r24	; 19
    35aa:	93 bb       	out	0x13, r25	; 19
    35ac:	13 ba       	out	0x13, r1	; 19
    35ae:	08 95       	ret

000035b0 <set_trigger_mode>:
    35b0:	60 fb       	bst	r22, 0
    35b2:	99 27       	eor	r25, r25
    35b4:	93 f9       	bld	r25, 3
    35b6:	20 e4       	ldi	r18, 0x40	; 64
    35b8:	28 9f       	mul	r18, r24
    35ba:	20 2d       	mov	r18, r0
    35bc:	11 24       	eor	r1, r1
    35be:	92 2b       	or	r25, r18
    35c0:	41 50       	subi	r20, 0x01	; 1
    35c2:	09 f0       	breq	.+2      	; 0x35c6 <.L19>
    35c4:	41 e0       	ldi	r20, 0x01	; 1

000035c6 <.L19>:
    35c6:	42 95       	swap	r20
    35c8:	40 7f       	andi	r20, 0xF0	; 240
    35ca:	94 2b       	or	r25, r20
    35cc:	94 60       	ori	r25, 0x04	; 4
    35ce:	95 bb       	out	0x15, r25	; 21
    35d0:	80 93 5c 15 	sts	0x155C, r24	; 0x80155c <trigger_mode>
    35d4:	60 93 5b 15 	sts	0x155B, r22	; 0x80155b <trigger_slope>
    35d8:	08 95       	ret

000035da <aggiorna_t_div>:
    35da:	84 31       	cpi	r24, 0x14	; 20
    35dc:	08 f0       	brcs	.+2      	; 0x35e0 <.L24>
    35de:	83 e1       	ldi	r24, 0x13	; 19

000035e0 <.L24>:
    35e0:	94 e0       	ldi	r25, 0x04	; 4
    35e2:	89 9f       	mul	r24, r25
    35e4:	f0 01       	movw	r30, r0
    35e6:	11 24       	eor	r1, r1
    35e8:	e9 51       	subi	r30, 0x19	; 25
    35ea:	f3 4f       	sbci	r31, 0xF3	; 243
    35ec:	85 91       	lpm	r24, Z+
    35ee:	95 91       	lpm	r25, Z+
    35f0:	a5 91       	lpm	r26, Z+
    35f2:	b5 91       	lpm	r27, Z+
    35f4:	80 93 20 50 	sts	0x5020, r24	; 0x805020 <__stack+0xf21>
    35f8:	90 93 21 50 	sts	0x5021, r25	; 0x805021 <__stack+0xf22>
    35fc:	a0 93 22 50 	sts	0x5022, r26	; 0x805022 <__stack+0xf23>
    3600:	b0 93 23 50 	sts	0x5023, r27	; 0x805023 <__stack+0xf24>
    3604:	08 95       	ret

00003606 <aggiorna_parametri_hw>:
    3606:	cf 93       	push	r28
    3608:	df 93       	push	r29
    360a:	ec 01       	movw	r28, r24
    360c:	2a 81       	ldd	r18, Y+2	; 0x02
    360e:	3b 81       	ldd	r19, Y+3	; 0x03
    3610:	4c 81       	ldd	r20, Y+4	; 0x04
    3612:	5d 81       	ldd	r21, Y+5	; 0x05
    3614:	67 e6       	ldi	r22, 0x67	; 103
    3616:	70 e4       	ldi	r23, 0x40	; 64
    3618:	83 e5       	ldi	r24, 0x53	; 83
    361a:	9a e3       	ldi	r25, 0x3A	; 58
    361c:	0e 94 19 33 	call	0x6632	; 0x6632 <__divsf3>
    3620:	20 e0       	ldi	r18, 0x00	; 0
    3622:	30 e0       	ldi	r19, 0x00	; 0
    3624:	40 ef       	ldi	r20, 0xF0	; 240
    3626:	51 e4       	ldi	r21, 0x41	; 65
    3628:	0e 94 cc 34 	call	0x6998	; 0x6998 <__mulsf3>
    362c:	20 e0       	ldi	r18, 0x00	; 0
    362e:	30 e0       	ldi	r19, 0x00	; 0
    3630:	40 e8       	ldi	r20, 0x80	; 128
    3632:	57 e4       	ldi	r21, 0x47	; 71
    3634:	0e 94 cc 34 	call	0x6998	; 0x6998 <__mulsf3>
    3638:	a8 2f       	mov	r26, r24
    363a:	86 2f       	mov	r24, r22
    363c:	b9 2f       	mov	r27, r25
    363e:	97 2f       	mov	r25, r23
    3640:	bc 01       	movw	r22, r24
    3642:	cd 01       	movw	r24, r26
    3644:	2c 85       	ldd	r18, Y+12	; 0x0c
    3646:	21 11       	cpse	r18, r1
    3648:	90 58       	subi	r25, 0x80	; 128
    364a:	0e 94 8b 33 	call	0x6716	; 0x6716 <__fixsfsi>
    364e:	9a 85       	ldd	r25, Y+10	; 0x0a
    3650:	8b 85       	ldd	r24, Y+11	; 0x0b
    3652:	cc 58       	subi	r28, 0x8C	; 140
    3654:	d5 41       	sbci	r29, 0x15	; 21
    3656:	59 f4       	brne	.+22     	; 0x366e <.L27>
    3658:	60 93 10 50 	sts	0x5010, r22	; 0x805010 <__stack+0xf11>
    365c:	70 93 11 50 	sts	0x5011, r23	; 0x805011 <__stack+0xf12>
    3660:	90 93 12 50 	sts	0x5012, r25	; 0x805012 <__stack+0xf13>
    3664:	80 93 13 50 	sts	0x5013, r24	; 0x805013 <__stack+0xf14>

00003668 <.L25>:
    3668:	df 91       	pop	r29
    366a:	cf 91       	pop	r28
    366c:	08 95       	ret

0000366e <.L27>:
    366e:	60 93 14 50 	sts	0x5014, r22	; 0x805014 <__stack+0xf15>
    3672:	70 93 15 50 	sts	0x5015, r23	; 0x805015 <__stack+0xf16>
    3676:	90 93 16 50 	sts	0x5016, r25	; 0x805016 <__stack+0xf17>
    367a:	80 93 17 50 	sts	0x5017, r24	; 0x805017 <__stack+0xf18>
    367e:	f4 cf       	rjmp	.-24     	; 0x3668 <.L25>

00003680 <aggiorna_registri_dds>:
    3680:	ab 01       	movw	r20, r22
    3682:	bc 01       	movw	r22, r24
    3684:	40 93 20 50 	sts	0x5020, r20	; 0x805020 <__stack+0xf21>
    3688:	50 93 21 50 	sts	0x5021, r21	; 0x805021 <__stack+0xf22>
    368c:	80 93 22 50 	sts	0x5022, r24	; 0x805022 <__stack+0xf23>
    3690:	70 93 23 50 	sts	0x5023, r23	; 0x805023 <__stack+0xf24>
    3694:	08 95       	ret

00003696 <osc_write_view_offset>:
    3696:	2f ef       	ldi	r18, 0xFF	; 255
    3698:	24 bb       	out	0x14, r18	; 20
    369a:	31 e0       	ldi	r19, 0x01	; 1
    369c:	34 bb       	out	0x14, r19	; 20
    369e:	84 bb       	out	0x14, r24	; 20
    36a0:	94 bb       	out	0x14, r25	; 20
    36a2:	24 bb       	out	0x14, r18	; 20
    36a4:	08 95       	ret

000036a6 <set_base_time>:
    36a6:	cf 93       	push	r28
    36a8:	c8 2f       	mov	r28, r24
    36aa:	83 31       	cpi	r24, 0x13	; 19
    36ac:	08 f0       	brcs	.+2      	; 0x36b0 <.L35>
    36ae:	c2 e1       	ldi	r28, 0x12	; 18

000036b0 <.L35>:
    36b0:	c0 93 5d 15 	sts	0x155D, r28	; 0x80155d <current_time_base_idx>
    36b4:	84 e0       	ldi	r24, 0x04	; 4
    36b6:	c8 9f       	mul	r28, r24
    36b8:	f0 01       	movw	r30, r0
    36ba:	11 24       	eor	r1, r1
    36bc:	e9 51       	subi	r30, 0x19	; 25
    36be:	f3 4f       	sbci	r31, 0xF3	; 243
    36c0:	65 91       	lpm	r22, Z+
    36c2:	75 91       	lpm	r23, Z+
    36c4:	85 91       	lpm	r24, Z+
    36c6:	95 91       	lpm	r25, Z+
    36c8:	0e 94 40 1b 	call	0x3680	; 0x3680 <aggiorna_registri_dds>
    36cc:	8c 2f       	mov	r24, r28
    36ce:	cf 91       	pop	r28
    36d0:	0c 94 ed 1a 	jmp	0x35da	; 0x35da <aggiorna_t_div>

000036d4 <osc_read_triggered>:
    36d4:	80 91 5f 15 	lds	r24, 0x155F	; 0x80155f <freeze>
    36d8:	81 11       	cpse	r24, r1
    36da:	2f c0       	rjmp	.+94     	; 0x373a <.L36>
    36dc:	05 b6       	in	r0, 0x35	; 53
    36de:	01 fe       	sbrs	r0, 1
    36e0:	2c c0       	rjmp	.+88     	; 0x373a <.L36>
    36e2:	80 91 5c 15 	lds	r24, 0x155C	; 0x80155c <trigger_mode>
    36e6:	82 30       	cpi	r24, 0x02	; 2
    36e8:	19 f4       	brne	.+6      	; 0x36f0 <.L40>
    36ea:	81 e0       	ldi	r24, 0x01	; 1
    36ec:	80 93 5f 15 	sts	0x155F, r24	; 0x80155f <freeze>

000036f0 <.L40>:
    36f0:	1c be       	out	0x3c, r1	; 60
    36f2:	81 e0       	ldi	r24, 0x01	; 1
    36f4:	8c bb       	out	0x1c, r24	; 28
    36f6:	ee e2       	ldi	r30, 0x2E	; 46
    36f8:	f1 e1       	ldi	r31, 0x11	; 17
    36fa:	a6 e4       	ldi	r26, 0x46	; 70
    36fc:	bd e0       	ldi	r27, 0x0D	; 13

000036fe <.L41>:
    36fe:	20 91 00 50 	lds	r18, 0x5000	; 0x805000 <__stack+0xf01>
    3702:	60 91 01 50 	lds	r22, 0x5001	; 0x805001 <__stack+0xf02>
    3706:	80 91 02 50 	lds	r24, 0x5002	; 0x805002 <__stack+0xf03>
    370a:	40 91 03 50 	lds	r20, 0x5003	; 0x805003 <__stack+0xf04>
    370e:	21 93       	st	Z+, r18
    3710:	61 93       	st	Z+, r22
    3712:	8d 93       	st	X+, r24
    3714:	4d 93       	st	X+, r20
    3716:	85 e1       	ldi	r24, 0x15	; 21
    3718:	e6 31       	cpi	r30, 0x16	; 22
    371a:	f8 07       	cpc	r31, r24
    371c:	81 f7       	brne	.-32     	; 0x36fe <.L41>
    371e:	80 91 5d 01 	lds	r24, 0x015D	; 0x80015d <is_running>
    3722:	81 15       	cp	r24, r1
    3724:	51 f0       	breq	.+20     	; 0x373a <.L36>
    3726:	80 91 5c 15 	lds	r24, 0x155C	; 0x80155c <trigger_mode>
    372a:	82 30       	cpi	r24, 0x02	; 2
    372c:	21 f4       	brne	.+8      	; 0x3736 <.L42>
    372e:	80 91 5f 15 	lds	r24, 0x155F	; 0x80155f <freeze>
    3732:	81 11       	cpse	r24, r1
    3734:	02 c0       	rjmp	.+4      	; 0x373a <.L36>

00003736 <.L42>:
    3736:	81 e0       	ldi	r24, 0x01	; 1
    3738:	85 bf       	out	0x35, r24	; 53

0000373a <.L36>:
    373a:	08 95       	ret

0000373c <draw_ground_marker>:
    373c:	af 92       	push	r10
    373e:	bf 92       	push	r11
    3740:	cf 92       	push	r12
    3742:	df 92       	push	r13
    3744:	ef 92       	push	r14
    3746:	ff 92       	push	r15
    3748:	0f 93       	push	r16
    374a:	1f 93       	push	r17
    374c:	cf 93       	push	r28
    374e:	df 93       	push	r29
    3750:	ec 01       	movw	r28, r24
    3752:	aa 84       	ldd	r10, Y+10	; 0x0a
    3754:	bb 84       	ldd	r11, Y+11	; 0x0b
    3756:	ec 8d       	ldd	r30, Y+28	; 0x1c
    3758:	fd 8d       	ldd	r31, Y+29	; 0x1d
    375a:	ae 16       	cp	r10, r30
    375c:	bf 06       	cpc	r11, r31
    375e:	a1 f0       	breq	.+40     	; 0x3788 <.L51>
    3760:	64 e1       	ldi	r22, 0x14	; 20
    3762:	70 e0       	ldi	r23, 0x00	; 0
    3764:	cf 01       	movw	r24, r30
    3766:	05 97       	sbiw	r24, 0x05	; 5
    3768:	9b 01       	movw	r18, r22
    376a:	af 01       	movw	r20, r30
    376c:	4b 5f       	subi	r20, 0xFB	; 251
    376e:	5f 4f       	sbci	r21, 0xFF	; 255
    3770:	ac e1       	ldi	r26, 0x1C	; 28
    3772:	ea 2e       	mov	r14, r26
    3774:	f1 2c       	mov	r15, r1
    3776:	8f 01       	movw	r16, r30
    3778:	c1 2c       	mov	r12, r1
    377a:	d1 2c       	mov	r13, r1
    377c:	0e 94 5d 0f 	call	0x1eba	; 0x1eba <vga_FillTriangle>
    3780:	8a 85       	ldd	r24, Y+10	; 0x0a
    3782:	9b 85       	ldd	r25, Y+11	; 0x0b
    3784:	8c 8f       	std	Y+28, r24	; 0x1c
    3786:	9d 8f       	std	Y+29, r25	; 0x1d

00003788 <.L51>:
    3788:	84 e1       	ldi	r24, 0x14	; 20
    378a:	88 a3       	std	Y+32, r24	; 0x20
    378c:	19 a2       	std	Y+33, r1	; 0x21
    378e:	95 01       	movw	r18, r10
    3790:	25 50       	subi	r18, 0x05	; 5
    3792:	31 09       	sbc	r19, r1
    3794:	2a a3       	std	Y+34, r18	; 0x22
    3796:	3b a3       	std	Y+35, r19	; 0x23
    3798:	8c a3       	std	Y+36, r24	; 0x24
    379a:	1d a2       	std	Y+37, r1	; 0x25
    379c:	c5 01       	movw	r24, r10
    379e:	05 96       	adiw	r24, 0x05	; 5
    37a0:	8e a3       	std	Y+38, r24	; 0x26
    37a2:	9f a3       	std	Y+39, r25	; 0x27
    37a4:	8c e1       	ldi	r24, 0x1C	; 28
    37a6:	88 a7       	std	Y+40, r24	; 0x28
    37a8:	19 a6       	std	Y+41, r1	; 0x29
    37aa:	aa a6       	std	Y+42, r10	; 0x2a
    37ac:	bb a6       	std	Y+43, r11	; 0x2b
    37ae:	ce 8c       	ldd	r12, Y+30	; 0x1e
    37b0:	df 8c       	ldd	r13, Y+31	; 0x1f
    37b2:	89 81       	ldd	r24, Y+1	; 0x01
    37b4:	81 11       	cpse	r24, r1
    37b6:	06 c0       	rjmp	.+12     	; 0x37c4 <.L52>
    37b8:	d6 94       	lsr	r13
    37ba:	c7 94       	ror	r12
    37bc:	8f ee       	ldi	r24, 0xEF	; 239
    37be:	c8 22       	and	r12, r24
    37c0:	8b e7       	ldi	r24, 0x7B	; 123
    37c2:	d8 22       	and	r13, r24

000037c4 <.L52>:
    37c4:	88 81       	ld	r24, Y
    37c6:	81 15       	cp	r24, r1
    37c8:	71 f0       	breq	.+28     	; 0x37e6 <.L50>
    37ca:	e8 a4       	ldd	r14, Y+40	; 0x28
    37cc:	f9 a4       	ldd	r15, Y+41	; 0x29
    37ce:	0a a5       	ldd	r16, Y+42	; 0x2a
    37d0:	1b a5       	ldd	r17, Y+43	; 0x2b
    37d2:	2c a1       	ldd	r18, Y+36	; 0x24
    37d4:	3d a1       	ldd	r19, Y+37	; 0x25
    37d6:	4e a1       	ldd	r20, Y+38	; 0x26
    37d8:	5f a1       	ldd	r21, Y+39	; 0x27
    37da:	68 a1       	ldd	r22, Y+32	; 0x20
    37dc:	79 a1       	ldd	r23, Y+33	; 0x21
    37de:	8a a1       	ldd	r24, Y+34	; 0x22
    37e0:	9b a1       	ldd	r25, Y+35	; 0x23
    37e2:	0e 94 5d 0f 	call	0x1eba	; 0x1eba <vga_FillTriangle>

000037e6 <.L50>:
    37e6:	df 91       	pop	r29
    37e8:	cf 91       	pop	r28
    37ea:	1f 91       	pop	r17
    37ec:	0f 91       	pop	r16
    37ee:	ff 90       	pop	r15
    37f0:	ef 90       	pop	r14
    37f2:	df 90       	pop	r13
    37f4:	cf 90       	pop	r12
    37f6:	bf 90       	pop	r11
    37f8:	af 90       	pop	r10
    37fa:	08 95       	ret

000037fc <init_timer_polling>:
    37fc:	13 be       	out	0x33, r1	; 51
    37fe:	12 be       	out	0x32, r1	; 50
    3800:	86 b7       	in	r24, 0x36	; 54
    3802:	81 60       	ori	r24, 0x01	; 1
    3804:	86 bf       	out	0x36, r24	; 54
    3806:	86 e0       	ldi	r24, 0x06	; 6
    3808:	83 bf       	out	0x33, r24	; 51
    380a:	08 95       	ret

0000380c <cerca_indice_timebase>:
    380c:	0f 93       	push	r16
    380e:	1f 93       	push	r17
    3810:	cf 93       	push	r28
    3812:	df 93       	push	r29
    3814:	00 d0       	rcall	.+0      	; 0x3816 <L0>

00003816 <L0>:
    3816:	00 d0       	rcall	.+0      	; 0x3818 <L0>

00003818 <L0>:
    3818:	0f 92       	push	r0
    381a:	cd b7       	in	r28, 0x3d	; 61
    381c:	de b7       	in	r29, 0x3e	; 62
    381e:	2d ec       	ldi	r18, 0xCD	; 205
    3820:	3c ec       	ldi	r19, 0xCC	; 204
    3822:	4c ec       	ldi	r20, 0xCC	; 204
    3824:	5e e3       	ldi	r21, 0x3E	; 62
    3826:	0e 94 cc 34 	call	0x6998	; 0x6998 <__mulsf3>
    382a:	69 83       	std	Y+1, r22	; 0x01
    382c:	7a 83       	std	Y+2, r23	; 0x02
    382e:	8b 83       	std	Y+3, r24	; 0x03
    3830:	9c 83       	std	Y+4, r25	; 0x04
    3832:	0e e9       	ldi	r16, 0x9E	; 158
    3834:	11 e0       	ldi	r17, 0x01	; 1
    3836:	1d 82       	std	Y+5, r1	; 0x05

00003838 <.L4>:
    3838:	29 81       	ldd	r18, Y+1	; 0x01
    383a:	3a 81       	ldd	r19, Y+2	; 0x02
    383c:	4b 81       	ldd	r20, Y+3	; 0x03
    383e:	5c 81       	ldd	r21, Y+4	; 0x04
    3840:	f8 01       	movw	r30, r16
    3842:	60 81       	ld	r22, Z
    3844:	71 81       	ldd	r23, Z+1	; 0x01
    3846:	82 81       	ldd	r24, Z+2	; 0x02
    3848:	93 81       	ldd	r25, Z+3	; 0x03
    384a:	0e 94 c7 34 	call	0x698e	; 0x698e <__gesf2>
    384e:	87 ff       	sbrs	r24, 7
    3850:	09 c0       	rjmp	.+18     	; 0x3864 <.L2>
    3852:	0c 5f       	subi	r16, 0xFC	; 252
    3854:	1f 4f       	sbci	r17, 0xFF	; 255
    3856:	fd 81       	ldd	r31, Y+5	; 0x05
    3858:	ff 5f       	subi	r31, 0xFF	; 255
    385a:	fd 83       	std	Y+5, r31	; 0x05
    385c:	f5 31       	cpi	r31, 0x15	; 21
    385e:	61 f7       	brne	.-40     	; 0x3838 <.L4>
    3860:	84 e1       	ldi	r24, 0x14	; 20
    3862:	8d 83       	std	Y+5, r24	; 0x05

00003864 <.L2>:
    3864:	8d 81       	ldd	r24, Y+5	; 0x05
    3866:	0f 90       	pop	r0
    3868:	0f 90       	pop	r0
    386a:	0f 90       	pop	r0
    386c:	0f 90       	pop	r0
    386e:	0f 90       	pop	r0
    3870:	df 91       	pop	r29
    3872:	cf 91       	pop	r28
    3874:	1f 91       	pop	r17
    3876:	0f 91       	pop	r16
    3878:	08 95       	ret

0000387a <cerca_indice_vdiv>:
    387a:	0f 93       	push	r16
    387c:	1f 93       	push	r17
    387e:	cf 93       	push	r28
    3880:	df 93       	push	r29
    3882:	00 d0       	rcall	.+0      	; 0x3884 <L0>

00003884 <L0>:
    3884:	00 d0       	rcall	.+0      	; 0x3886 <L0>

00003886 <L0>:
    3886:	0f 92       	push	r0
    3888:	cd b7       	in	r28, 0x3d	; 61
    388a:	de b7       	in	r29, 0x3e	; 62
    388c:	69 83       	std	Y+1, r22	; 0x01
    388e:	7a 83       	std	Y+2, r23	; 0x02
    3890:	8b 83       	std	Y+3, r24	; 0x03
    3892:	9c 83       	std	Y+4, r25	; 0x04
    3894:	06 e0       	ldi	r16, 0x06	; 6
    3896:	12 e0       	ldi	r17, 0x02	; 2
    3898:	1d 82       	std	Y+5, r1	; 0x05

0000389a <.L8>:
    389a:	29 81       	ldd	r18, Y+1	; 0x01
    389c:	3a 81       	ldd	r19, Y+2	; 0x02
    389e:	4b 81       	ldd	r20, Y+3	; 0x03
    38a0:	5c 81       	ldd	r21, Y+4	; 0x04
    38a2:	f8 01       	movw	r30, r16
    38a4:	60 81       	ld	r22, Z
    38a6:	71 81       	ldd	r23, Z+1	; 0x01
    38a8:	82 81       	ldd	r24, Z+2	; 0x02
    38aa:	93 81       	ldd	r25, Z+3	; 0x03
    38ac:	0e 94 c7 34 	call	0x698e	; 0x698e <__gesf2>
    38b0:	87 ff       	sbrs	r24, 7
    38b2:	09 c0       	rjmp	.+18     	; 0x38c6 <.L6>
    38b4:	0c 5f       	subi	r16, 0xFC	; 252
    38b6:	1f 4f       	sbci	r17, 0xFF	; 255
    38b8:	fd 81       	ldd	r31, Y+5	; 0x05
    38ba:	ff 5f       	subi	r31, 0xFF	; 255
    38bc:	fd 83       	std	Y+5, r31	; 0x05
    38be:	f4 31       	cpi	r31, 0x14	; 20
    38c0:	61 f7       	brne	.-40     	; 0x389a <.L8>
    38c2:	83 e1       	ldi	r24, 0x13	; 19
    38c4:	8d 83       	std	Y+5, r24	; 0x05

000038c6 <.L6>:
    38c6:	8d 81       	ldd	r24, Y+5	; 0x05
    38c8:	0f 90       	pop	r0
    38ca:	0f 90       	pop	r0
    38cc:	0f 90       	pop	r0
    38ce:	0f 90       	pop	r0
    38d0:	0f 90       	pop	r0
    38d2:	df 91       	pop	r29
    38d4:	cf 91       	pop	r28
    38d6:	1f 91       	pop	r17
    38d8:	0f 91       	pop	r16
    38da:	08 95       	ret

000038dc <get_vpp_raw_points>:
    38dc:	ee e2       	ldi	r30, 0x2E	; 46
    38de:	f1 e1       	ldi	r31, 0x11	; 17
    38e0:	8c 58       	subi	r24, 0x8C	; 140
    38e2:	95 41       	sbci	r25, 0x15	; 21
    38e4:	11 f0       	breq	.+4      	; 0x38ea <.L11>
    38e6:	e6 e4       	ldi	r30, 0x46	; 70
    38e8:	fd e0       	ldi	r31, 0x0D	; 13

000038ea <.L11>:
    38ea:	bf 01       	movw	r22, r30
    38ec:	60 5e       	subi	r22, 0xE0	; 224
    38ee:	7c 4f       	sbci	r23, 0xFC	; 252
    38f0:	4f ef       	ldi	r20, 0xFF	; 255
    38f2:	5f e0       	ldi	r21, 0x0F	; 15
    38f4:	80 e0       	ldi	r24, 0x00	; 0
    38f6:	90 e0       	ldi	r25, 0x00	; 0

000038f8 <.L14>:
    38f8:	21 91       	ld	r18, Z+
    38fa:	31 91       	ld	r19, Z+
    38fc:	3f 70       	andi	r19, 0x0F	; 15
    38fe:	82 17       	cp	r24, r18
    3900:	93 07       	cpc	r25, r19
    3902:	08 f4       	brcc	.+2      	; 0x3906 <.L12>
    3904:	c9 01       	movw	r24, r18

00003906 <.L12>:
    3906:	24 17       	cp	r18, r20
    3908:	35 07       	cpc	r19, r21
    390a:	08 f4       	brcc	.+2      	; 0x390e <.L13>
    390c:	a9 01       	movw	r20, r18

0000390e <.L13>:
    390e:	6e 17       	cp	r22, r30
    3910:	7f 07       	cpc	r23, r31
    3912:	91 f7       	brne	.-28     	; 0x38f8 <.L14>
    3914:	48 17       	cp	r20, r24
    3916:	59 07       	cpc	r21, r25
    3918:	18 f4       	brcc	.+6      	; 0x3920 <.L17>
    391a:	84 1b       	sub	r24, r20
    391c:	95 0b       	sbc	r25, r21
    391e:	08 95       	ret

00003920 <.L17>:
    3920:	80 e0       	ldi	r24, 0x00	; 0
    3922:	90 e0       	ldi	r25, 0x00	; 0
    3924:	08 95       	ret

00003926 <configura_verticale_smart>:
    3926:	cf 93       	push	r28
    3928:	df 93       	push	r29
    392a:	ec 01       	movw	r28, r24
    392c:	81 e0       	ldi	r24, 0x01	; 1
    392e:	88 83       	st	Y, r24
    3930:	6a 87       	std	Y+10, r22	; 0x0a
    3932:	7b 87       	std	Y+11, r23	; 0x0b
    3934:	85 bf       	out	0x35, r24	; 53
    3936:	89 e8       	ldi	r24, 0x89	; 137
    3938:	93 e1       	ldi	r25, 0x13	; 19

0000393a <.L20>:
    393a:	05 b6       	in	r0, 0x35	; 53
    393c:	01 fc       	sbrc	r0, 1
    393e:	05 c0       	rjmp	.+10     	; 0x394a <.L24>
    3940:	28 ec       	ldi	r18, 0xC8	; 200

00003942 <.L11>:
    3942:	2a 95       	dec	r18
    3944:	f1 f7       	brne	.-4      	; 0x3942 <.L11>
    3946:	01 97       	sbiw	r24, 0x01	; 1
    3948:	c1 f7       	brne	.-16     	; 0x393a <.L20>

0000394a <.L24>:
    394a:	0e 94 6a 1b 	call	0x36d4	; 0x36d4 <osc_read_triggered>
    394e:	e6 e4       	ldi	r30, 0x46	; 70
    3950:	fd e0       	ldi	r31, 0x0D	; 13
    3952:	85 e1       	ldi	r24, 0x15	; 21
    3954:	cc 38       	cpi	r28, 0x8C	; 140
    3956:	d8 07       	cpc	r29, r24
    3958:	11 f4       	brne	.+4      	; 0x395e <.L22>
    395a:	ee e2       	ldi	r30, 0x2E	; 46
    395c:	f1 e1       	ldi	r31, 0x11	; 17

0000395e <.L22>:
    395e:	af 01       	movw	r20, r30
    3960:	40 5e       	subi	r20, 0xE0	; 224
    3962:	5c 4f       	sbci	r21, 0xFC	; 252
    3964:	2f ef       	ldi	r18, 0xFF	; 255
    3966:	3f e0       	ldi	r19, 0x0F	; 15
    3968:	60 e0       	ldi	r22, 0x00	; 0
    396a:	70 e0       	ldi	r23, 0x00	; 0

0000396c <.L27>:
    396c:	81 91       	ld	r24, Z+
    396e:	91 91       	ld	r25, Z+
    3970:	9f 70       	andi	r25, 0x0F	; 15
    3972:	68 17       	cp	r22, r24
    3974:	79 07       	cpc	r23, r25
    3976:	08 f4       	brcc	.+2      	; 0x397a <.L25>
    3978:	bc 01       	movw	r22, r24

0000397a <.L25>:
    397a:	82 17       	cp	r24, r18
    397c:	93 07       	cpc	r25, r19
    397e:	08 f4       	brcc	.+2      	; 0x3982 <.L26>
    3980:	9c 01       	movw	r18, r24

00003982 <.L26>:
    3982:	4e 17       	cp	r20, r30
    3984:	5f 07       	cpc	r21, r31
    3986:	91 f7       	brne	.-28     	; 0x396c <.L27>
    3988:	62 1b       	sub	r22, r18
    398a:	73 0b       	sbc	r23, r19
    398c:	80 e0       	ldi	r24, 0x00	; 0
    398e:	90 e0       	ldi	r25, 0x00	; 0
    3990:	0e 94 c7 33 	call	0x678e	; 0x678e <__floatunsisf>
    3994:	20 e0       	ldi	r18, 0x00	; 0
    3996:	30 e0       	ldi	r19, 0x00	; 0
    3998:	40 e2       	ldi	r20, 0x20	; 32
    399a:	51 e4       	ldi	r21, 0x41	; 65
    399c:	0e 94 cc 34 	call	0x6998	; 0x6998 <__mulsf3>
    39a0:	20 e0       	ldi	r18, 0x00	; 0
    39a2:	30 e0       	ldi	r19, 0x00	; 0
    39a4:	40 e8       	ldi	r20, 0x80	; 128
    39a6:	59 e3       	ldi	r21, 0x39	; 57
    39a8:	0e 94 cc 34 	call	0x6998	; 0x6998 <__mulsf3>
    39ac:	20 e0       	ldi	r18, 0x00	; 0
    39ae:	30 e0       	ldi	r19, 0x00	; 0
    39b0:	40 ef       	ldi	r20, 0xF0	; 240
    39b2:	51 e4       	ldi	r21, 0x41	; 65
    39b4:	0e 94 cc 34 	call	0x6998	; 0x6998 <__mulsf3>
    39b8:	20 e0       	ldi	r18, 0x00	; 0
    39ba:	30 e0       	ldi	r19, 0x00	; 0
    39bc:	40 ef       	ldi	r20, 0xF0	; 240
    39be:	52 e4       	ldi	r21, 0x42	; 66
    39c0:	0e 94 19 33 	call	0x6632	; 0x6632 <__divsf3>
    39c4:	0e 94 3d 1c 	call	0x387a	; 0x387a <cerca_indice_vdiv>
    39c8:	8f 87       	std	Y+15, r24	; 0x0f
    39ca:	68 2f       	mov	r22, r24
    39cc:	70 e0       	ldi	r23, 0x00	; 0
    39ce:	94 e0       	ldi	r25, 0x04	; 4
    39d0:	89 9f       	mul	r24, r25
    39d2:	f0 01       	movw	r30, r0
    39d4:	11 24       	eor	r1, r1
    39d6:	ea 5f       	subi	r30, 0xFA	; 250
    39d8:	fd 4f       	sbci	r31, 0xFD	; 253
    39da:	80 81       	ld	r24, Z
    39dc:	91 81       	ldd	r25, Z+1	; 0x01
    39de:	a2 81       	ldd	r26, Z+2	; 0x02
    39e0:	b3 81       	ldd	r27, Z+3	; 0x03
    39e2:	8a 83       	std	Y+2, r24	; 0x02
    39e4:	9b 83       	std	Y+3, r25	; 0x03
    39e6:	ac 83       	std	Y+4, r26	; 0x04
    39e8:	bd 83       	std	Y+5, r27	; 0x05
    39ea:	81 e0       	ldi	r24, 0x01	; 1
    39ec:	cc 58       	subi	r28, 0x8C	; 140
    39ee:	d5 41       	sbci	r29, 0x15	; 21
    39f0:	09 f0       	breq	.+2      	; 0x39f4 <.L28>
    39f2:	83 e0       	ldi	r24, 0x03	; 3

000039f4 <.L28>:
    39f4:	df 91       	pop	r29
    39f6:	cf 91       	pop	r28
    39f8:	0c 94 45 1f 	jmp	0x3e8a	; 0x3e8a <write_encoder>

000039fc <draw_autoset_message>:
    39fc:	cf 92       	push	r12
    39fe:	ef 92       	push	r14
    3a00:	ff 92       	push	r15
    3a02:	0f 93       	push	r16
    3a04:	1f 93       	push	r17
    3a06:	00 e0       	ldi	r16, 0x00	; 0
    3a08:	10 e0       	ldi	r17, 0x00	; 0
    3a0a:	28 e2       	ldi	r18, 0x28	; 40
    3a0c:	30 e0       	ldi	r19, 0x00	; 0
    3a0e:	4c e8       	ldi	r20, 0x8C	; 140
    3a10:	50 e0       	ldi	r21, 0x00	; 0
    3a12:	62 ed       	ldi	r22, 0xD2	; 210
    3a14:	70 e0       	ldi	r23, 0x00	; 0
    3a16:	88 ec       	ldi	r24, 0xC8	; 200
    3a18:	90 e0       	ldi	r25, 0x00	; 0
    3a1a:	0e 94 eb 09 	call	0x13d6	; 0x13d6 <vga_fillRect>
    3a1e:	08 ef       	ldi	r16, 0xF8	; 248
    3a20:	11 e0       	ldi	r17, 0x01	; 1
    3a22:	28 e2       	ldi	r18, 0x28	; 40
    3a24:	30 e0       	ldi	r19, 0x00	; 0
    3a26:	4c e8       	ldi	r20, 0x8C	; 140
    3a28:	50 e0       	ldi	r21, 0x00	; 0
    3a2a:	62 ed       	ldi	r22, 0xD2	; 210
    3a2c:	70 e0       	ldi	r23, 0x00	; 0
    3a2e:	88 ec       	ldi	r24, 0xC8	; 200
    3a30:	90 e0       	ldi	r25, 0x00	; 0
    3a32:	0e 94 21 0d 	call	0x1a42	; 0x1a42 <vga_drawRect>
    3a36:	24 e2       	ldi	r18, 0x24	; 36
    3a38:	30 e0       	ldi	r19, 0x00	; 0
    3a3a:	48 e8       	ldi	r20, 0x88	; 136
    3a3c:	50 e0       	ldi	r21, 0x00	; 0
    3a3e:	64 ed       	ldi	r22, 0xD4	; 212
    3a40:	70 e0       	ldi	r23, 0x00	; 0
    3a42:	8a ec       	ldi	r24, 0xCA	; 202
    3a44:	90 e0       	ldi	r25, 0x00	; 0
    3a46:	0e 94 21 0d 	call	0x1a42	; 0x1a42 <vga_drawRect>
    3a4a:	81 e0       	ldi	r24, 0x01	; 1
    3a4c:	0e 94 80 09 	call	0x1300	; 0x1300 <vga_setTextSize>
    3a50:	82 e0       	ldi	r24, 0x02	; 2
    3a52:	c8 2e       	mov	r12, r24
    3a54:	e1 2c       	mov	r14, r1
    3a56:	f1 2c       	mov	r15, r1
    3a58:	2e ed       	ldi	r18, 0xDE	; 222
    3a5a:	30 e0       	ldi	r19, 0x00	; 0
    3a5c:	42 e5       	ldi	r20, 0x52	; 82
    3a5e:	51 e0       	ldi	r21, 0x01	; 1
    3a60:	6a ec       	ldi	r22, 0xCA	; 202
    3a62:	70 e0       	ldi	r23, 0x00	; 0
    3a64:	8a ee       	ldi	r24, 0xEA	; 234
    3a66:	93 e0       	ldi	r25, 0x03	; 3
    3a68:	0e 94 ec 0e 	call	0x1dd8	; 0x1dd8 <vga_printCenteredX>
    3a6c:	1f 91       	pop	r17
    3a6e:	0f 91       	pop	r16
    3a70:	ff 90       	pop	r15
    3a72:	ef 90       	pop	r14
    3a74:	cf 90       	pop	r12
    3a76:	08 95       	ret

00003a78 <check_presence>:
    3a78:	cf 93       	push	r28
    3a7a:	df 93       	push	r29
    3a7c:	00 d0       	rcall	.+0      	; 0x3a7e <L0>

00003a7e <L0>:
    3a7e:	00 d0       	rcall	.+0      	; 0x3a80 <L0>

00003a80 <L0>:
    3a80:	00 d0       	rcall	.+0      	; 0x3a82 <L0>

00003a82 <L0>:
    3a82:	cd b7       	in	r28, 0x3d	; 61
    3a84:	de b7       	in	r29, 0x3e	; 62
    3a86:	8b 83       	std	Y+3, r24	; 0x03
    3a88:	9c 83       	std	Y+4, r25	; 0x04
    3a8a:	85 e0       	ldi	r24, 0x05	; 5
    3a8c:	eb 81       	ldd	r30, Y+3	; 0x03
    3a8e:	fc 81       	ldd	r31, Y+4	; 0x04
    3a90:	87 87       	std	Z+15, r24	; 0x0f
    3a92:	81 e0       	ldi	r24, 0x01	; 1
    3a94:	ec 58       	subi	r30, 0x8C	; 140
    3a96:	f5 41       	sbci	r31, 0x15	; 21
    3a98:	09 f0       	breq	.+2      	; 0x3a9c <.L34>
    3a9a:	83 e0       	ldi	r24, 0x03	; 3

00003a9c <.L34>:
    3a9c:	65 e0       	ldi	r22, 0x05	; 5
    3a9e:	70 e0       	ldi	r23, 0x00	; 0
    3aa0:	0e 94 45 1f 	call	0x3e8a	; 0x3e8a <write_encoder>
    3aa4:	81 e0       	ldi	r24, 0x01	; 1
    3aa6:	85 bf       	out	0x35, r24	; 53
    3aa8:	81 ed       	ldi	r24, 0xD1	; 209
    3aaa:	97 e0       	ldi	r25, 0x07	; 7

00003aac <.L35>:
    3aac:	05 b6       	in	r0, 0x35	; 53
    3aae:	01 fc       	sbrc	r0, 1
    3ab0:	08 c0       	rjmp	.+16     	; 0x3ac2 <.L38>
    3ab2:	ed ee       	ldi	r30, 0xED	; 237
    3ab4:	f2 e0       	ldi	r31, 0x02	; 2

00003ab6 <.L12>:
    3ab6:	31 97       	sbiw	r30, 0x01	; 1
    3ab8:	f1 f7       	brne	.-4      	; 0x3ab6 <.L12>
    3aba:	00 c0       	rjmp	.+0      	; 0x3abc <L0>

00003abc <L0>:
    3abc:	00 00       	nop
    3abe:	01 97       	sbiw	r24, 0x01	; 1
    3ac0:	a9 f7       	brne	.-22     	; 0x3aac <.L35>

00003ac2 <.L38>:
    3ac2:	0e 94 6a 1b 	call	0x36d4	; 0x36d4 <osc_read_triggered>
    3ac6:	8b 81       	ldd	r24, Y+3	; 0x03
    3ac8:	9c 81       	ldd	r25, Y+4	; 0x04
    3aca:	0e 94 6e 1c 	call	0x38dc	; 0x38dc <get_vpp_raw_points>
    3ace:	89 83       	std	Y+1, r24	; 0x01
    3ad0:	9a 83       	std	Y+2, r25	; 0x02
    3ad2:	20 e0       	ldi	r18, 0x00	; 0
    3ad4:	30 e0       	ldi	r19, 0x00	; 0
    3ad6:	40 e2       	ldi	r20, 0x20	; 32
    3ad8:	5b e3       	ldi	r21, 0x3B	; 59
    3ada:	eb 81       	ldd	r30, Y+3	; 0x03
    3adc:	fc 81       	ldd	r31, Y+4	; 0x04
    3ade:	63 89       	ldd	r22, Z+19	; 0x13
    3ae0:	74 89       	ldd	r23, Z+20	; 0x14
    3ae2:	85 89       	ldd	r24, Z+21	; 0x15
    3ae4:	96 89       	ldd	r25, Z+22	; 0x16
    3ae6:	0e 94 cc 34 	call	0x6998	; 0x6998 <__mulsf3>
    3aea:	6b 83       	std	Y+3, r22	; 0x03
    3aec:	7c 83       	std	Y+4, r23	; 0x04
    3aee:	8d 83       	std	Y+5, r24	; 0x05
    3af0:	9e 83       	std	Y+6, r25	; 0x06
    3af2:	29 81       	ldd	r18, Y+1	; 0x01
    3af4:	3a 81       	ldd	r19, Y+2	; 0x02
    3af6:	b9 01       	movw	r22, r18
    3af8:	80 e0       	ldi	r24, 0x00	; 0
    3afa:	90 e0       	ldi	r25, 0x00	; 0
    3afc:	0e 94 c7 33 	call	0x678e	; 0x678e <__floatunsisf>
    3b00:	9b 01       	movw	r18, r22
    3b02:	ac 01       	movw	r20, r24
    3b04:	6b 81       	ldd	r22, Y+3	; 0x03
    3b06:	7c 81       	ldd	r23, Y+4	; 0x04
    3b08:	8d 81       	ldd	r24, Y+5	; 0x05
    3b0a:	9e 81       	ldd	r25, Y+6	; 0x06
    3b0c:	0e 94 cc 34 	call	0x6998	; 0x6998 <__mulsf3>
    3b10:	31 e0       	ldi	r19, 0x01	; 1
    3b12:	39 83       	std	Y+1, r19	; 0x01
    3b14:	2d ec       	ldi	r18, 0xCD	; 205
    3b16:	3c ec       	ldi	r19, 0xCC	; 204
    3b18:	4c e4       	ldi	r20, 0x4C	; 76
    3b1a:	5d e3       	ldi	r21, 0x3D	; 61
    3b1c:	0e 94 c7 34 	call	0x698e	; 0x698e <__gesf2>
    3b20:	18 16       	cp	r1, r24
    3b22:	0c f0       	brlt	.+2      	; 0x3b26 <.L40>
    3b24:	19 82       	std	Y+1, r1	; 0x01

00003b26 <.L40>:
    3b26:	89 81       	ldd	r24, Y+1	; 0x01
    3b28:	0f 90       	pop	r0
    3b2a:	0f 90       	pop	r0
    3b2c:	0f 90       	pop	r0
    3b2e:	0f 90       	pop	r0
    3b30:	0f 90       	pop	r0
    3b32:	0f 90       	pop	r0
    3b34:	df 91       	pop	r29
    3b36:	cf 91       	pop	r28
    3b38:	08 95       	ret

00003b3a <attesa_campionamento_ms>:
    3b3a:	0f 93       	push	r16
    3b3c:	1f 93       	push	r17
    3b3e:	cf 93       	push	r28
    3b40:	df 93       	push	r29
    3b42:	00 d0       	rcall	.+0      	; 0x3b44 <L0>

00003b44 <L0>:
    3b44:	00 d0       	rcall	.+0      	; 0x3b46 <L0>

00003b46 <L0>:
    3b46:	cd b7       	in	r28, 0x3d	; 61
    3b48:	de b7       	in	r29, 0x3e	; 62
    3b4a:	89 83       	std	Y+1, r24	; 0x01
    3b4c:	9a 83       	std	Y+2, r25	; 0x02
    3b4e:	80 b7       	in	r24, 0x30	; 48
    3b50:	87 7f       	andi	r24, 0xF7	; 247
    3b52:	80 bf       	out	0x30, r24	; 48
    3b54:	1b 82       	std	Y+3, r1	; 0x03
    3b56:	1c 82       	std	Y+4, r1	; 0x04
    3b58:	06 e0       	ldi	r16, 0x06	; 6
    3b5a:	16 e1       	ldi	r17, 0x16	; 22

00003b5c <.L43>:
    3b5c:	8b 81       	ldd	r24, Y+3	; 0x03
    3b5e:	9c 81       	ldd	r25, Y+4	; 0x04
    3b60:	29 81       	ldd	r18, Y+1	; 0x01
    3b62:	3a 81       	ldd	r19, Y+2	; 0x02
    3b64:	82 17       	cp	r24, r18
    3b66:	93 07       	cpc	r25, r19
    3b68:	49 f4       	brne	.+18     	; 0x3b7c <.L46>
    3b6a:	0f 90       	pop	r0
    3b6c:	0f 90       	pop	r0
    3b6e:	0f 90       	pop	r0
    3b70:	0f 90       	pop	r0
    3b72:	df 91       	pop	r29
    3b74:	cf 91       	pop	r28
    3b76:	1f 91       	pop	r17
    3b78:	0f 91       	pop	r16
    3b7a:	08 95       	ret

00003b7c <.L46>:
    3b7c:	12 bf       	out	0x32, r17	; 50
    3b7e:	86 b7       	in	r24, 0x36	; 54
    3b80:	81 60       	ori	r24, 0x01	; 1
    3b82:	86 bf       	out	0x36, r24	; 54
    3b84:	03 bf       	out	0x33, r16	; 51

00003b86 <.L44>:
    3b86:	06 b6       	in	r0, 0x36	; 54
    3b88:	00 fe       	sbrs	r0, 0
    3b8a:	08 c0       	rjmp	.+16     	; 0x3b9c <.L45>
    3b8c:	13 be       	out	0x33, r1	; 51
    3b8e:	2b 81       	ldd	r18, Y+3	; 0x03
    3b90:	3c 81       	ldd	r19, Y+4	; 0x04
    3b92:	2f 5f       	subi	r18, 0xFF	; 255
    3b94:	3f 4f       	sbci	r19, 0xFF	; 255
    3b96:	2b 83       	std	Y+3, r18	; 0x03
    3b98:	3c 83       	std	Y+4, r19	; 0x04
    3b9a:	e0 cf       	rjmp	.-64     	; 0x3b5c <.L43>

00003b9c <.L45>:
    3b9c:	0e 94 6a 1b 	call	0x36d4	; 0x36d4 <osc_read_triggered>
    3ba0:	0e 94 dc 19 	call	0x33b8	; 0x33b8 <read_fpga_frequency>
    3ba4:	f0 cf       	rjmp	.-32     	; 0x3b86 <.L44>

00003ba6 <routine_autoset_dual>:
    3ba6:	ef 92       	push	r14
    3ba8:	ff 92       	push	r15
    3baa:	0f 93       	push	r16
    3bac:	1f 93       	push	r17
    3bae:	cf 93       	push	r28
    3bb0:	df 93       	push	r29
    3bb2:	0e 94 fe 1c 	call	0x39fc	; 0x39fc <draw_autoset_message>
    3bb6:	10 92 4b 15 	sts	0x154B, r1	; 0x80154b <cursor_type>
    3bba:	0e 94 8b 1f 	call	0x3f16	; 0x3f16 <conf_encoder>
    3bbe:	87 e0       	ldi	r24, 0x07	; 7
    3bc0:	80 93 5d 15 	sts	0x155D, r24	; 0x80155d <current_time_base_idx>
    3bc4:	0e 94 53 1b 	call	0x36a6	; 0x36a6 <set_base_time>
    3bc8:	67 e0       	ldi	r22, 0x07	; 7
    3bca:	70 e0       	ldi	r23, 0x00	; 0
    3bcc:	84 e0       	ldi	r24, 0x04	; 4
    3bce:	0e 94 45 1f 	call	0x3e8a	; 0x3e8a <write_encoder>
    3bd2:	06 e0       	ldi	r16, 0x06	; 6
    3bd4:	00 93 9b 15 	sts	0x159B, r16	; 0x80159b <ch1+0xf>
    3bd8:	00 93 6f 15 	sts	0x156F, r16	; 0x80156f <ch2+0xf>
    3bdc:	66 e0       	ldi	r22, 0x06	; 6
    3bde:	70 e0       	ldi	r23, 0x00	; 0
    3be0:	81 e0       	ldi	r24, 0x01	; 1
    3be2:	0e 94 45 1f 	call	0x3e8a	; 0x3e8a <write_encoder>
    3be6:	66 e0       	ldi	r22, 0x06	; 6
    3be8:	70 e0       	ldi	r23, 0x00	; 0
    3bea:	83 e0       	ldi	r24, 0x03	; 3
    3bec:	0e 94 45 1f 	call	0x3e8a	; 0x3e8a <write_encoder>
    3bf0:	11 e0       	ldi	r17, 0x01	; 1
    3bf2:	10 93 54 01 	sts	0x0154, r17	; 0x800154 <trigger_source>
    3bf6:	10 92 5c 15 	sts	0x155C, r1	; 0x80155c <trigger_mode>
    3bfa:	41 e0       	ldi	r20, 0x01	; 1
    3bfc:	60 e0       	ldi	r22, 0x00	; 0
    3bfe:	80 e0       	ldi	r24, 0x00	; 0
    3c00:	0e 94 d8 1a 	call	0x35b0	; 0x35b0 <set_trigger_mode>
    3c04:	80 e0       	ldi	r24, 0x00	; 0
    3c06:	98 e0       	ldi	r25, 0x08	; 8
    3c08:	10 92 57 01 	sts	0x0157, r1	; 0x800157 <trigger_level_12bit>
    3c0c:	90 93 58 01 	sts	0x0158, r25	; 0x800158 <trigger_level_12bit+0x1>
    3c10:	0e 94 d3 1a 	call	0x35a6	; 0x35a6 <set_trigger_level>
    3c14:	60 e0       	ldi	r22, 0x00	; 0
    3c16:	78 e0       	ldi	r23, 0x08	; 8
    3c18:	85 e0       	ldi	r24, 0x05	; 5
    3c1a:	0e 94 45 1f 	call	0x3e8a	; 0x3e8a <write_encoder>
    3c1e:	2f ef       	ldi	r18, 0xFF	; 255
    3c20:	8a e1       	ldi	r24, 0x1A	; 26
    3c22:	97 eb       	ldi	r25, 0xB7	; 183

00003c24 <.L13>:
    3c24:	21 50       	subi	r18, 0x01	; 1
    3c26:	80 40       	sbci	r24, 0x00	; 0
    3c28:	90 40       	sbci	r25, 0x00	; 0
    3c2a:	e1 f7       	brne	.-8      	; 0x3c24 <.L13>
    3c2c:	00 c0       	rjmp	.+0      	; 0x3c2e <L0>

00003c2e <L0>:
    3c2e:	00 00       	nop
    3c30:	15 bf       	out	0x35, r17	; 53
    3c32:	ef eb       	ldi	r30, 0xBF	; 191
    3c34:	f7 e2       	ldi	r31, 0x27	; 39
    3c36:	29 e0       	ldi	r18, 0x09	; 9

00003c38 <.L14>:
    3c38:	e1 50       	subi	r30, 0x01	; 1
    3c3a:	f0 40       	sbci	r31, 0x00	; 0
    3c3c:	20 40       	sbci	r18, 0x00	; 0
    3c3e:	e1 f7       	brne	.-8      	; 0x3c38 <.L14>
    3c40:	00 c0       	rjmp	.+0      	; 0x3c42 <L0>

00003c42 <L0>:
    3c42:	00 00       	nop
    3c44:	8c e8       	ldi	r24, 0x8C	; 140
    3c46:	95 e1       	ldi	r25, 0x15	; 21
    3c48:	0e 94 3c 1d 	call	0x3a78	; 0x3a78 <check_presence>
    3c4c:	d8 2f       	mov	r29, r24
    3c4e:	80 e6       	ldi	r24, 0x60	; 96
    3c50:	95 e1       	ldi	r25, 0x15	; 21
    3c52:	0e 94 3c 1d 	call	0x3a78	; 0x3a78 <check_presence>
    3c56:	c8 2f       	mov	r28, r24
    3c58:	d1 11       	cpse	r29, r1
    3c5a:	3c c0       	rjmp	.+120    	; 0x3cd4 <.L48>
    3c5c:	81 11       	cpse	r24, r1
    3c5e:	d8 c0       	rjmp	.+432    	; 0x3e10 <.L49>
    3c60:	00 93 9b 15 	sts	0x159B, r16	; 0x80159b <ch1+0xf>
    3c64:	00 93 6f 15 	sts	0x156F, r16	; 0x80156f <ch2+0xf>
    3c68:	66 e0       	ldi	r22, 0x06	; 6
    3c6a:	70 e0       	ldi	r23, 0x00	; 0
    3c6c:	81 e0       	ldi	r24, 0x01	; 1
    3c6e:	0e 94 45 1f 	call	0x3e8a	; 0x3e8a <write_encoder>
    3c72:	66 e0       	ldi	r22, 0x06	; 6
    3c74:	70 e0       	ldi	r23, 0x00	; 0
    3c76:	83 e0       	ldi	r24, 0x03	; 3
    3c78:	0e 94 45 1f 	call	0x3e8a	; 0x3e8a <write_encoder>
    3c7c:	10 93 8c 15 	sts	0x158C, r17	; 0x80158c <ch1>
    3c80:	10 92 60 15 	sts	0x1560, r1	; 0x801560 <ch2>
    3c84:	86 ee       	ldi	r24, 0xE6	; 230
    3c86:	80 93 96 15 	sts	0x1596, r24	; 0x801596 <ch1+0xa>
    3c8a:	10 92 97 15 	sts	0x1597, r1	; 0x801597 <ch1+0xb>
    3c8e:	66 e0       	ldi	r22, 0x06	; 6
    3c90:	70 e0       	ldi	r23, 0x00	; 0
    3c92:	81 e0       	ldi	r24, 0x01	; 1
    3c94:	0e 94 45 1f 	call	0x3e8a	; 0x3e8a <write_encoder>
    3c98:	85 e0       	ldi	r24, 0x05	; 5
    3c9a:	80 93 5d 15 	sts	0x155D, r24	; 0x80155d <current_time_base_idx>
    3c9e:	65 e0       	ldi	r22, 0x05	; 5
    3ca0:	70 e0       	ldi	r23, 0x00	; 0
    3ca2:	84 e0       	ldi	r24, 0x04	; 4
    3ca4:	0e 94 45 1f 	call	0x3e8a	; 0x3e8a <write_encoder>
    3ca8:	85 e0       	ldi	r24, 0x05	; 5
    3caa:	0e 94 53 1b 	call	0x36a6	; 0x36a6 <set_base_time>
    3cae:	00 e0       	ldi	r16, 0x00	; 0
    3cb0:	10 e0       	ldi	r17, 0x00	; 0
    3cb2:	20 ef       	ldi	r18, 0xF0	; 240
    3cb4:	30 e0       	ldi	r19, 0x00	; 0
    3cb6:	40 e9       	ldi	r20, 0x90	; 144
    3cb8:	51 e0       	ldi	r21, 0x01	; 1
    3cba:	68 e2       	ldi	r22, 0x28	; 40
    3cbc:	70 e0       	ldi	r23, 0x00	; 0
    3cbe:	84 e1       	ldi	r24, 0x14	; 20
    3cc0:	90 e0       	ldi	r25, 0x00	; 0
    3cc2:	0e 94 eb 09 	call	0x13d6	; 0x13d6 <vga_fillRect>

00003cc6 <.L47>:
    3cc6:	df 91       	pop	r29
    3cc8:	cf 91       	pop	r28
    3cca:	1f 91       	pop	r17
    3ccc:	0f 91       	pop	r16
    3cce:	ff 90       	pop	r15
    3cd0:	ef 90       	pop	r14
    3cd2:	08 95       	ret

00003cd4 <.L48>:
    3cd4:	10 93 8c 15 	sts	0x158C, r17	; 0x80158c <ch1>
    3cd8:	81 15       	cp	r24, r1
    3cda:	09 f4       	brne	.+2      	; 0x3cde <L0+0x2>

00003cdc <L0>:
    3cdc:	8b c0       	rjmp	.+278    	; 0x3df4 <.L51>
    3cde:	10 93 60 15 	sts	0x1560, r17	; 0x801560 <ch2>
    3ce2:	69 eb       	ldi	r22, 0xB9	; 185
    3ce4:	70 e0       	ldi	r23, 0x00	; 0
    3ce6:	8c e8       	ldi	r24, 0x8C	; 140
    3ce8:	95 e1       	ldi	r25, 0x15	; 21
    3cea:	0e 94 93 1c 	call	0x3926	; 0x3926 <configura_verticale_smart>
    3cee:	6f ea       	ldi	r22, 0xAF	; 175
    3cf0:	70 e0       	ldi	r23, 0x00	; 0
    3cf2:	80 e6       	ldi	r24, 0x60	; 96
    3cf4:	95 e1       	ldi	r25, 0x15	; 21
    3cf6:	0e 94 93 1c 	call	0x3926	; 0x3926 <configura_verticale_smart>
    3cfa:	60 91 96 15 	lds	r22, 0x1596	; 0x801596 <ch1+0xa>
    3cfe:	70 91 97 15 	lds	r23, 0x1597	; 0x801597 <ch1+0xb>
    3d02:	80 e0       	ldi	r24, 0x00	; 0
    3d04:	0e 94 45 1f 	call	0x3e8a	; 0x3e8a <write_encoder>
    3d08:	60 91 6a 15 	lds	r22, 0x156A	; 0x80156a <ch2+0xa>
    3d0c:	70 91 6b 15 	lds	r23, 0x156B	; 0x80156b <ch2+0xb>
    3d10:	82 e0       	ldi	r24, 0x02	; 2

00003d12 <.L65>:
    3d12:	0e 94 45 1f 	call	0x3e8a	; 0x3e8a <write_encoder>
    3d16:	41 e0       	ldi	r20, 0x01	; 1
    3d18:	60 91 5b 15 	lds	r22, 0x155B	; 0x80155b <trigger_slope>
    3d1c:	80 91 5c 15 	lds	r24, 0x155C	; 0x80155c <trigger_mode>
    3d20:	0e 94 d8 1a 	call	0x35b0	; 0x35b0 <set_trigger_mode>
    3d24:	ff e7       	ldi	r31, 0x7F	; 127
    3d26:	2f e4       	ldi	r18, 0x4F	; 79
    3d28:	82 e1       	ldi	r24, 0x12	; 18

00003d2a <.L15>:
    3d2a:	f1 50       	subi	r31, 0x01	; 1
    3d2c:	20 40       	sbci	r18, 0x00	; 0
    3d2e:	80 40       	sbci	r24, 0x00	; 0
    3d30:	e1 f7       	brne	.-8      	; 0x3d2a <.L15>

00003d32 <.L66>:
    3d32:	00 c0       	rjmp	.+0      	; 0x3d34 <L0>

00003d34 <L0>:
    3d34:	00 00       	nop
    3d36:	81 e0       	ldi	r24, 0x01	; 1
    3d38:	85 bf       	out	0x35, r24	; 53
    3d3a:	81 ed       	ldi	r24, 0xD1	; 209
    3d3c:	97 e0       	ldi	r25, 0x07	; 7

00003d3e <.L54>:
    3d3e:	05 b6       	in	r0, 0x35	; 53
    3d40:	01 fc       	sbrc	r0, 1
    3d42:	08 c0       	rjmp	.+16     	; 0x3d54 <.L58>
    3d44:	ed ee       	ldi	r30, 0xED	; 237
    3d46:	f2 e0       	ldi	r31, 0x02	; 2

00003d48 <.L16>:
    3d48:	31 97       	sbiw	r30, 0x01	; 1
    3d4a:	f1 f7       	brne	.-4      	; 0x3d48 <.L16>
    3d4c:	00 c0       	rjmp	.+0      	; 0x3d4e <L0>

00003d4e <L0>:
    3d4e:	00 00       	nop
    3d50:	01 97       	sbiw	r24, 0x01	; 1
    3d52:	a9 f7       	brne	.-22     	; 0x3d3e <.L54>

00003d54 <.L58>:
    3d54:	88 ee       	ldi	r24, 0xE8	; 232
    3d56:	93 e0       	ldi	r25, 0x03	; 3
    3d58:	0e 94 9d 1d 	call	0x3b3a	; 0x3b3a <attesa_campionamento_ms>
    3d5c:	0e 94 dc 19 	call	0x33b8	; 0x33b8 <read_fpga_frequency>
    3d60:	7b 01       	movw	r14, r22
    3d62:	8c 01       	movw	r16, r24
    3d64:	20 e0       	ldi	r18, 0x00	; 0
    3d66:	30 e0       	ldi	r19, 0x00	; 0
    3d68:	40 e0       	ldi	r20, 0x00	; 0
    3d6a:	5f e3       	ldi	r21, 0x3F	; 63
    3d6c:	0e 94 c7 34 	call	0x698e	; 0x698e <__gesf2>
    3d70:	18 16       	cp	r1, r24
    3d72:	0c f4       	brge	.+2      	; 0x3d76 <L0+0x2>

00003d74 <L0>:
    3d74:	6d c0       	rjmp	.+218    	; 0x3e50 <.L55>
    3d76:	8c e0       	ldi	r24, 0x0C	; 12

00003d78 <.L56>:
    3d78:	80 93 5d 15 	sts	0x155D, r24	; 0x80155d <current_time_base_idx>
    3d7c:	98 e0       	ldi	r25, 0x08	; 8
    3d7e:	10 92 57 01 	sts	0x0157, r1	; 0x800157 <trigger_level_12bit>
    3d82:	90 93 58 01 	sts	0x0158, r25	; 0x800158 <trigger_level_12bit+0x1>
    3d86:	82 e0       	ldi	r24, 0x02	; 2
    3d88:	f8 2e       	mov	r15, r24
    3d8a:	8f 2d       	mov	r24, r15
    3d8c:	8d 1b       	sub	r24, r29
    3d8e:	80 93 54 01 	sts	0x0154, r24	; 0x800154 <trigger_source>
    3d92:	80 e0       	ldi	r24, 0x00	; 0
    3d94:	0e 94 d3 1a 	call	0x35a6	; 0x35a6 <set_trigger_level>
    3d98:	60 e0       	ldi	r22, 0x00	; 0
    3d9a:	78 e0       	ldi	r23, 0x08	; 8
    3d9c:	85 e0       	ldi	r24, 0x05	; 5
    3d9e:	0e 94 45 1f 	call	0x3e8a	; 0x3e8a <write_encoder>
    3da2:	10 92 5c 15 	sts	0x155C, r1	; 0x80155c <trigger_mode>
    3da6:	10 92 5b 15 	sts	0x155B, r1	; 0x80155b <trigger_slope>
    3daa:	40 91 54 01 	lds	r20, 0x0154	; 0x800154 <trigger_source>
    3dae:	60 e0       	ldi	r22, 0x00	; 0
    3db0:	80 e0       	ldi	r24, 0x00	; 0
    3db2:	0e 94 d8 1a 	call	0x35b0	; 0x35b0 <set_trigger_mode>
    3db6:	80 91 5d 15 	lds	r24, 0x155D	; 0x80155d <current_time_base_idx>
    3dba:	0e 94 53 1b 	call	0x36a6	; 0x36a6 <set_base_time>
    3dbe:	60 91 5d 15 	lds	r22, 0x155D	; 0x80155d <current_time_base_idx>
    3dc2:	70 e0       	ldi	r23, 0x00	; 0
    3dc4:	84 e0       	ldi	r24, 0x04	; 4
    3dc6:	0e 94 45 1f 	call	0x3e8a	; 0x3e8a <write_encoder>
    3dca:	81 e0       	ldi	r24, 0x01	; 1
    3dcc:	85 bf       	out	0x35, r24	; 53
    3dce:	00 e0       	ldi	r16, 0x00	; 0
    3dd0:	10 e0       	ldi	r17, 0x00	; 0
    3dd2:	20 ef       	ldi	r18, 0xF0	; 240
    3dd4:	30 e0       	ldi	r19, 0x00	; 0
    3dd6:	40 e9       	ldi	r20, 0x90	; 144
    3dd8:	51 e0       	ldi	r21, 0x01	; 1
    3dda:	68 e2       	ldi	r22, 0x28	; 40
    3ddc:	70 e0       	ldi	r23, 0x00	; 0
    3dde:	84 e1       	ldi	r24, 0x14	; 20
    3de0:	90 e0       	ldi	r25, 0x00	; 0
    3de2:	0e 94 eb 09 	call	0x13d6	; 0x13d6 <vga_fillRect>
    3de6:	d1 15       	cp	r29, r1
    3de8:	09 f4       	brne	.+2      	; 0x3dec <.L60>

00003dea <L0>:
    3dea:	49 c0       	rjmp	.+146    	; 0x3e7e <.L59>

00003dec <.L60>:
    3dec:	81 e0       	ldi	r24, 0x01	; 1
    3dee:	80 93 5f 01 	sts	0x015F, r24	; 0x80015f <currentMenu>
    3df2:	69 cf       	rjmp	.-302    	; 0x3cc6 <.L47>

00003df4 <.L51>:
    3df4:	10 92 60 15 	sts	0x1560, r1	; 0x801560 <ch2>
    3df8:	66 ee       	ldi	r22, 0xE6	; 230
    3dfa:	70 e0       	ldi	r23, 0x00	; 0
    3dfc:	8c e8       	ldi	r24, 0x8C	; 140
    3dfe:	95 e1       	ldi	r25, 0x15	; 21
    3e00:	0e 94 93 1c 	call	0x3926	; 0x3926 <configura_verticale_smart>
    3e04:	60 91 96 15 	lds	r22, 0x1596	; 0x801596 <ch1+0xa>
    3e08:	70 91 97 15 	lds	r23, 0x1597	; 0x801597 <ch1+0xb>
    3e0c:	80 e0       	ldi	r24, 0x00	; 0
    3e0e:	81 cf       	rjmp	.-254    	; 0x3d12 <.L65>

00003e10 <.L49>:
    3e10:	10 92 8c 15 	sts	0x158C, r1	; 0x80158c <ch1>
    3e14:	10 93 60 15 	sts	0x1560, r17	; 0x801560 <ch2>
    3e18:	66 ee       	ldi	r22, 0xE6	; 230
    3e1a:	70 e0       	ldi	r23, 0x00	; 0
    3e1c:	80 e6       	ldi	r24, 0x60	; 96
    3e1e:	95 e1       	ldi	r25, 0x15	; 21
    3e20:	0e 94 93 1c 	call	0x3926	; 0x3926 <configura_verticale_smart>
    3e24:	60 91 6a 15 	lds	r22, 0x156A	; 0x80156a <ch2+0xa>
    3e28:	70 91 6b 15 	lds	r23, 0x156B	; 0x80156b <ch2+0xb>
    3e2c:	82 e0       	ldi	r24, 0x02	; 2
    3e2e:	0e 94 45 1f 	call	0x3e8a	; 0x3e8a <write_encoder>
    3e32:	42 e0       	ldi	r20, 0x02	; 2
    3e34:	60 91 5b 15 	lds	r22, 0x155B	; 0x80155b <trigger_slope>
    3e38:	80 91 5c 15 	lds	r24, 0x155C	; 0x80155c <trigger_mode>
    3e3c:	0e 94 d8 1a 	call	0x35b0	; 0x35b0 <set_trigger_mode>
    3e40:	8f e7       	ldi	r24, 0x7F	; 127
    3e42:	9f e4       	ldi	r25, 0x4F	; 79
    3e44:	e2 e1       	ldi	r30, 0x12	; 18

00003e46 <.L17>:
    3e46:	81 50       	subi	r24, 0x01	; 1
    3e48:	90 40       	sbci	r25, 0x00	; 0
    3e4a:	e0 40       	sbci	r30, 0x00	; 0
    3e4c:	e1 f7       	brne	.-8      	; 0x3e46 <.L17>
    3e4e:	71 cf       	rjmp	.-286    	; 0x3d32 <.L66>

00003e50 <.L55>:
    3e50:	97 01       	movw	r18, r14
    3e52:	a8 01       	movw	r20, r16
    3e54:	60 e0       	ldi	r22, 0x00	; 0
    3e56:	70 e0       	ldi	r23, 0x00	; 0
    3e58:	80 e8       	ldi	r24, 0x80	; 128
    3e5a:	9f e3       	ldi	r25, 0x3F	; 63
    3e5c:	0e 94 19 33 	call	0x6632	; 0x6632 <__divsf3>
    3e60:	20 e0       	ldi	r18, 0x00	; 0
    3e62:	30 e0       	ldi	r19, 0x00	; 0
    3e64:	40 e4       	ldi	r20, 0x40	; 64
    3e66:	50 e4       	ldi	r21, 0x40	; 64
    3e68:	0e 94 cc 34 	call	0x6998	; 0x6998 <__mulsf3>
    3e6c:	20 e0       	ldi	r18, 0x00	; 0
    3e6e:	30 e0       	ldi	r19, 0x00	; 0
    3e70:	40 e2       	ldi	r20, 0x20	; 32
    3e72:	51 e4       	ldi	r21, 0x41	; 65
    3e74:	0e 94 19 33 	call	0x6632	; 0x6632 <__divsf3>
    3e78:	0e 94 06 1c 	call	0x380c	; 0x380c <cerca_indice_timebase>
    3e7c:	7d cf       	rjmp	.-262    	; 0x3d78 <.L56>

00003e7e <.L59>:
    3e7e:	c1 15       	cp	r28, r1
    3e80:	09 f4       	brne	.+2      	; 0x3e84 <L0+0x2>

00003e82 <L0>:
    3e82:	b4 cf       	rjmp	.-152    	; 0x3dec <.L60>
    3e84:	f0 92 5f 01 	sts	0x015F, r15	; 0x80015f <currentMenu>
    3e88:	1e cf       	rjmp	.-452    	; 0x3cc6 <.L47>

00003e8a <write_encoder>:
    3e8a:	0f 93       	push	r16
    3e8c:	1f 93       	push	r17
    3e8e:	87 30       	cpi	r24, 0x07	; 7
    3e90:	78 f4       	brcc	.+30     	; 0x3eb0 <.L1>
    3e92:	e8 2f       	mov	r30, r24
    3e94:	f0 e0       	ldi	r31, 0x00	; 0
    3e96:	e4 5d       	subi	r30, 0xD4	; 212
    3e98:	f7 4c       	sbci	r31, 0xC7	; 199
    3e9a:	0c 94 38 32 	jmp	0x6470	; 0x6470 <__tablejump2__>

00003e9e <.L10>:
    3e9e:	02 e0       	ldi	r16, 0x02	; 2
    3ea0:	10 e0       	ldi	r17, 0x00	; 0
    3ea2:	25 e9       	ldi	r18, 0x95	; 149
    3ea4:	31 e0       	ldi	r19, 0x01	; 1
    3ea6:	4d e2       	ldi	r20, 0x2D	; 45
    3ea8:	50 e0       	ldi	r21, 0x00	; 0
    3eaa:	80 e0       	ldi	r24, 0x00	; 0

00003eac <.L11>:
    3eac:	0e 94 30 09 	call	0x1260	; 0x1260 <setup_encoder>

00003eb0 <.L1>:
    3eb0:	1f 91       	pop	r17
    3eb2:	0f 91       	pop	r16
    3eb4:	08 95       	ret

00003eb6 <.L9>:
    3eb6:	01 e0       	ldi	r16, 0x01	; 1
    3eb8:	10 e0       	ldi	r17, 0x00	; 0
    3eba:	29 e0       	ldi	r18, 0x09	; 9
    3ebc:	30 e0       	ldi	r19, 0x00	; 0
    3ebe:	40 e0       	ldi	r20, 0x00	; 0
    3ec0:	50 e0       	ldi	r21, 0x00	; 0
    3ec2:	81 e0       	ldi	r24, 0x01	; 1
    3ec4:	f3 cf       	rjmp	.-26     	; 0x3eac <.L11>

00003ec6 <.L8>:
    3ec6:	02 e0       	ldi	r16, 0x02	; 2
    3ec8:	10 e0       	ldi	r17, 0x00	; 0
    3eca:	25 e9       	ldi	r18, 0x95	; 149
    3ecc:	31 e0       	ldi	r19, 0x01	; 1
    3ece:	4d e2       	ldi	r20, 0x2D	; 45
    3ed0:	50 e0       	ldi	r21, 0x00	; 0
    3ed2:	82 e0       	ldi	r24, 0x02	; 2
    3ed4:	eb cf       	rjmp	.-42     	; 0x3eac <.L11>

00003ed6 <.L7>:
    3ed6:	01 e0       	ldi	r16, 0x01	; 1
    3ed8:	10 e0       	ldi	r17, 0x00	; 0
    3eda:	29 e0       	ldi	r18, 0x09	; 9
    3edc:	30 e0       	ldi	r19, 0x00	; 0
    3ede:	40 e0       	ldi	r20, 0x00	; 0
    3ee0:	50 e0       	ldi	r21, 0x00	; 0
    3ee2:	83 e0       	ldi	r24, 0x03	; 3
    3ee4:	e3 cf       	rjmp	.-58     	; 0x3eac <.L11>

00003ee6 <.L6>:
    3ee6:	01 e0       	ldi	r16, 0x01	; 1
    3ee8:	10 e0       	ldi	r17, 0x00	; 0
    3eea:	24 e1       	ldi	r18, 0x14	; 20
    3eec:	30 e0       	ldi	r19, 0x00	; 0
    3eee:	40 e0       	ldi	r20, 0x00	; 0
    3ef0:	50 e0       	ldi	r21, 0x00	; 0
    3ef2:	84 e0       	ldi	r24, 0x04	; 4
    3ef4:	db cf       	rjmp	.-74     	; 0x3eac <.L11>

00003ef6 <.L5>:
    3ef6:	00 e4       	ldi	r16, 0x40	; 64
    3ef8:	10 e0       	ldi	r17, 0x00	; 0
    3efa:	2f ef       	ldi	r18, 0xFF	; 255
    3efc:	3f e0       	ldi	r19, 0x0F	; 15
    3efe:	40 e0       	ldi	r20, 0x00	; 0
    3f00:	50 e0       	ldi	r21, 0x00	; 0
    3f02:	85 e0       	ldi	r24, 0x05	; 5
    3f04:	d3 cf       	rjmp	.-90     	; 0x3eac <.L11>

00003f06 <.L3>:
    3f06:	04 e0       	ldi	r16, 0x04	; 4
    3f08:	10 e0       	ldi	r17, 0x00	; 0
    3f0a:	28 ec       	ldi	r18, 0xC8	; 200
    3f0c:	30 e0       	ldi	r19, 0x00	; 0
    3f0e:	48 e3       	ldi	r20, 0x38	; 56
    3f10:	5f ef       	ldi	r21, 0xFF	; 255
    3f12:	86 e0       	ldi	r24, 0x06	; 6
    3f14:	cb cf       	rjmp	.-106    	; 0x3eac <.L11>

00003f16 <conf_encoder>:
    3f16:	66 ee       	ldi	r22, 0xE6	; 230
    3f18:	70 e0       	ldi	r23, 0x00	; 0
    3f1a:	80 e0       	ldi	r24, 0x00	; 0
    3f1c:	0e 94 45 1f 	call	0x3e8a	; 0x3e8a <write_encoder>
    3f20:	65 e0       	ldi	r22, 0x05	; 5
    3f22:	70 e0       	ldi	r23, 0x00	; 0
    3f24:	81 e0       	ldi	r24, 0x01	; 1
    3f26:	0e 94 45 1f 	call	0x3e8a	; 0x3e8a <write_encoder>
    3f2a:	66 ee       	ldi	r22, 0xE6	; 230
    3f2c:	70 e0       	ldi	r23, 0x00	; 0
    3f2e:	82 e0       	ldi	r24, 0x02	; 2
    3f30:	0e 94 45 1f 	call	0x3e8a	; 0x3e8a <write_encoder>
    3f34:	65 e0       	ldi	r22, 0x05	; 5
    3f36:	70 e0       	ldi	r23, 0x00	; 0
    3f38:	83 e0       	ldi	r24, 0x03	; 3
    3f3a:	0e 94 45 1f 	call	0x3e8a	; 0x3e8a <write_encoder>
    3f3e:	6b e0       	ldi	r22, 0x0B	; 11
    3f40:	70 e0       	ldi	r23, 0x00	; 0
    3f42:	84 e0       	ldi	r24, 0x04	; 4
    3f44:	0e 94 45 1f 	call	0x3e8a	; 0x3e8a <write_encoder>
    3f48:	60 e0       	ldi	r22, 0x00	; 0
    3f4a:	78 e0       	ldi	r23, 0x08	; 8
    3f4c:	85 e0       	ldi	r24, 0x05	; 5
    3f4e:	0c 94 45 1f 	jmp	0x3e8a	; 0x3e8a <write_encoder>

00003f52 <set_trig_enc_default>:
    3f52:	0f 93       	push	r16
    3f54:	1f 93       	push	r17
    3f56:	10 92 51 05 	sts	0x0551, r1	; 0x800551 <current_enc_mode>
    3f5a:	60 91 57 01 	lds	r22, 0x0157	; 0x800157 <trigger_level_12bit>
    3f5e:	70 91 58 01 	lds	r23, 0x0158	; 0x800158 <trigger_level_12bit+0x1>
    3f62:	00 e4       	ldi	r16, 0x40	; 64
    3f64:	10 e0       	ldi	r17, 0x00	; 0
    3f66:	2f ef       	ldi	r18, 0xFF	; 255
    3f68:	3f e0       	ldi	r19, 0x0F	; 15
    3f6a:	40 e0       	ldi	r20, 0x00	; 0
    3f6c:	50 e0       	ldi	r21, 0x00	; 0
    3f6e:	85 e0       	ldi	r24, 0x05	; 5
    3f70:	0e 94 30 09 	call	0x1260	; 0x1260 <setup_encoder>
    3f74:	1f 91       	pop	r17
    3f76:	0f 91       	pop	r16
    3f78:	08 95       	ret

00003f7a <calcola_XY_coordinata>:
    3f7a:	0f 93       	push	r16
    3f7c:	1f 93       	push	r17
    3f7e:	cf 93       	push	r28
    3f80:	df 93       	push	r29
    3f82:	00 d0       	rcall	.+0      	; 0x3f84 <L0>

00003f84 <L0>:
    3f84:	00 d0       	rcall	.+0      	; 0x3f86 <L0>

00003f86 <L0>:
    3f86:	00 d0       	rcall	.+0      	; 0x3f88 <L0>

00003f88 <L0>:
    3f88:	cd b7       	in	r28, 0x3d	; 61
    3f8a:	de b7       	in	r29, 0x3e	; 62
    3f8c:	8c 01       	movw	r16, r24
    3f8e:	4d 83       	std	Y+5, r20	; 0x05
    3f90:	80 e0       	ldi	r24, 0x00	; 0
    3f92:	90 e0       	ldi	r25, 0x00	; 0
    3f94:	0e 94 c7 33 	call	0x678e	; 0x678e <__floatunsisf>
    3f98:	20 e0       	ldi	r18, 0x00	; 0
    3f9a:	30 e0       	ldi	r19, 0x00	; 0
    3f9c:	40 e0       	ldi	r20, 0x00	; 0
    3f9e:	55 e4       	ldi	r21, 0x45	; 69
    3fa0:	0e 94 a7 32 	call	0x654e	; 0x654e <__subsf3>
    3fa4:	2d ec       	ldi	r18, 0xCD	; 205
    3fa6:	3c ec       	ldi	r19, 0xCC	; 204
    3fa8:	4c ec       	ldi	r20, 0xCC	; 204
    3faa:	53 e4       	ldi	r21, 0x43	; 67
    3fac:	0e 94 19 33 	call	0x6632	; 0x6632 <__divsf3>
    3fb0:	f8 01       	movw	r30, r16
    3fb2:	22 81       	ldd	r18, Z+2	; 0x02
    3fb4:	33 81       	ldd	r19, Z+3	; 0x03
    3fb6:	44 81       	ldd	r20, Z+4	; 0x04
    3fb8:	55 81       	ldd	r21, Z+5	; 0x05
    3fba:	0e 94 19 33 	call	0x6632	; 0x6632 <__divsf3>
    3fbe:	20 e0       	ldi	r18, 0x00	; 0
    3fc0:	30 e0       	ldi	r19, 0x00	; 0
    3fc2:	40 ef       	ldi	r20, 0xF0	; 240
    3fc4:	51 e4       	ldi	r21, 0x41	; 65
    3fc6:	0e 94 cc 34 	call	0x6998	; 0x6998 <__mulsf3>
    3fca:	69 83       	std	Y+1, r22	; 0x01
    3fcc:	7a 83       	std	Y+2, r23	; 0x02
    3fce:	8b 83       	std	Y+3, r24	; 0x03
    3fd0:	9c 83       	std	Y+4, r25	; 0x04
    3fd2:	f8 01       	movw	r30, r16
    3fd4:	f4 85       	ldd	r31, Z+12	; 0x0c
    3fd6:	fe 83       	std	Y+6, r31	; 0x06
    3fd8:	f8 01       	movw	r30, r16
    3fda:	62 85       	ldd	r22, Z+10	; 0x0a
    3fdc:	73 85       	ldd	r23, Z+11	; 0x0b
    3fde:	fd 81       	ldd	r31, Y+5	; 0x05
    3fe0:	f1 15       	cp	r31, r1
    3fe2:	f9 f0       	breq	.+62     	; 0x4022 <.L2>
    3fe4:	6b 55       	subi	r22, 0x5B	; 91
    3fe6:	7f 4f       	sbci	r23, 0xFF	; 255
    3fe8:	87 2f       	mov	r24, r23
    3fea:	88 0f       	add	r24, r24
    3fec:	88 0b       	sbc	r24, r24
    3fee:	98 2f       	mov	r25, r24
    3ff0:	0e 94 c9 33 	call	0x6792	; 0x6792 <__floatsisf>
    3ff4:	2e 81       	ldd	r18, Y+6	; 0x06
    3ff6:	21 15       	cp	r18, r1

00003ff8 <.L9>:
    3ff8:	e9 f0       	breq	.+58     	; 0x4034 <.L5>
    3ffa:	29 81       	ldd	r18, Y+1	; 0x01
    3ffc:	3a 81       	ldd	r19, Y+2	; 0x02
    3ffe:	4b 81       	ldd	r20, Y+3	; 0x03
    4000:	5c 81       	ldd	r21, Y+4	; 0x04
    4002:	0e 94 a7 32 	call	0x654e	; 0x654e <__subsf3>

00004006 <.L6>:
    4006:	0e 94 8b 33 	call	0x6716	; 0x6716 <__fixsfsi>
    400a:	cb 01       	movw	r24, r22
    400c:	0f 90       	pop	r0
    400e:	0f 90       	pop	r0
    4010:	0f 90       	pop	r0
    4012:	0f 90       	pop	r0
    4014:	0f 90       	pop	r0
    4016:	0f 90       	pop	r0
    4018:	df 91       	pop	r29
    401a:	cf 91       	pop	r28
    401c:	1f 91       	pop	r17
    401e:	0f 91       	pop	r16
    4020:	08 95       	ret

00004022 <.L2>:
    4022:	87 2f       	mov	r24, r23
    4024:	88 0f       	add	r24, r24
    4026:	88 0b       	sbc	r24, r24
    4028:	98 2f       	mov	r25, r24
    402a:	0e 94 c9 33 	call	0x6792	; 0x6792 <__floatsisf>
    402e:	ee 81       	ldd	r30, Y+6	; 0x06
    4030:	e1 15       	cp	r30, r1
    4032:	e2 cf       	rjmp	.-60     	; 0x3ff8 <.L9>

00004034 <.L5>:
    4034:	9b 01       	movw	r18, r22
    4036:	ac 01       	movw	r20, r24
    4038:	69 81       	ldd	r22, Y+1	; 0x01
    403a:	7a 81       	ldd	r23, Y+2	; 0x02
    403c:	8b 81       	ldd	r24, Y+3	; 0x03
    403e:	9c 81       	ldd	r25, Y+4	; 0x04
    4040:	0e 94 a8 32 	call	0x6550	; 0x6550 <__addsf3>
    4044:	e0 cf       	rjmp	.-64     	; 0x4006 <.L6>

00004046 <calcolaYTraccia>:
    4046:	cf 93       	push	r28
    4048:	df 93       	push	r29
    404a:	00 d0       	rcall	.+0      	; 0x404c <L0>

0000404c <L0>:
    404c:	00 d0       	rcall	.+0      	; 0x404e <L0>

0000404e <L0>:
    404e:	00 d0       	rcall	.+0      	; 0x4050 <L0>

00004050 <L0>:
    4050:	cd b7       	in	r28, 0x3d	; 61
    4052:	de b7       	in	r29, 0x3e	; 62
    4054:	8d 83       	std	Y+5, r24	; 0x05
    4056:	9e 83       	std	Y+6, r25	; 0x06
    4058:	80 e0       	ldi	r24, 0x00	; 0
    405a:	90 e0       	ldi	r25, 0x00	; 0
    405c:	0e 94 c7 33 	call	0x678e	; 0x678e <__floatunsisf>
    4060:	20 e0       	ldi	r18, 0x00	; 0
    4062:	30 e0       	ldi	r19, 0x00	; 0
    4064:	40 e0       	ldi	r20, 0x00	; 0
    4066:	55 e4       	ldi	r21, 0x45	; 69
    4068:	0e 94 a7 32 	call	0x654e	; 0x654e <__subsf3>
    406c:	2d ec       	ldi	r18, 0xCD	; 205
    406e:	3c ec       	ldi	r19, 0xCC	; 204
    4070:	4c ec       	ldi	r20, 0xCC	; 204
    4072:	53 e4       	ldi	r21, 0x43	; 67
    4074:	0e 94 19 33 	call	0x6632	; 0x6632 <__divsf3>
    4078:	ed 81       	ldd	r30, Y+5	; 0x05
    407a:	fe 81       	ldd	r31, Y+6	; 0x06
    407c:	22 81       	ldd	r18, Z+2	; 0x02
    407e:	33 81       	ldd	r19, Z+3	; 0x03
    4080:	44 81       	ldd	r20, Z+4	; 0x04
    4082:	55 81       	ldd	r21, Z+5	; 0x05
    4084:	0e 94 19 33 	call	0x6632	; 0x6632 <__divsf3>
    4088:	20 e0       	ldi	r18, 0x00	; 0
    408a:	30 e0       	ldi	r19, 0x00	; 0
    408c:	48 e1       	ldi	r20, 0x18	; 24
    408e:	52 e4       	ldi	r21, 0x42	; 66
    4090:	0e 94 cc 34 	call	0x6998	; 0x6998 <__mulsf3>
    4094:	69 83       	std	Y+1, r22	; 0x01
    4096:	7a 83       	std	Y+2, r23	; 0x02
    4098:	8b 83       	std	Y+3, r24	; 0x03
    409a:	9c 83       	std	Y+4, r25	; 0x04
    409c:	ed 81       	ldd	r30, Y+5	; 0x05
    409e:	fe 81       	ldd	r31, Y+6	; 0x06
    40a0:	62 85       	ldd	r22, Z+10	; 0x0a
    40a2:	73 85       	ldd	r23, Z+11	; 0x0b
    40a4:	87 2f       	mov	r24, r23
    40a6:	88 0f       	add	r24, r24
    40a8:	88 0b       	sbc	r24, r24
    40aa:	98 2f       	mov	r25, r24
    40ac:	0e 94 c9 33 	call	0x6792	; 0x6792 <__floatsisf>
    40b0:	ed 81       	ldd	r30, Y+5	; 0x05
    40b2:	fe 81       	ldd	r31, Y+6	; 0x06
    40b4:	24 85       	ldd	r18, Z+12	; 0x0c
    40b6:	21 15       	cp	r18, r1
    40b8:	91 f0       	breq	.+36     	; 0x40de <.L11>
    40ba:	29 81       	ldd	r18, Y+1	; 0x01
    40bc:	3a 81       	ldd	r19, Y+2	; 0x02
    40be:	4b 81       	ldd	r20, Y+3	; 0x03
    40c0:	5c 81       	ldd	r21, Y+4	; 0x04
    40c2:	0e 94 a7 32 	call	0x654e	; 0x654e <__subsf3>

000040c6 <.L13>:
    40c6:	0e 94 8b 33 	call	0x6716	; 0x6716 <__fixsfsi>
    40ca:	cb 01       	movw	r24, r22
    40cc:	0f 90       	pop	r0
    40ce:	0f 90       	pop	r0
    40d0:	0f 90       	pop	r0
    40d2:	0f 90       	pop	r0
    40d4:	0f 90       	pop	r0
    40d6:	0f 90       	pop	r0
    40d8:	df 91       	pop	r29
    40da:	cf 91       	pop	r28
    40dc:	08 95       	ret

000040de <.L11>:
    40de:	9b 01       	movw	r18, r22
    40e0:	ac 01       	movw	r20, r24
    40e2:	69 81       	ldd	r22, Y+1	; 0x01
    40e4:	7a 81       	ldd	r23, Y+2	; 0x02
    40e6:	8b 81       	ldd	r24, Y+3	; 0x03
    40e8:	9c 81       	ldd	r25, Y+4	; 0x04
    40ea:	0e 94 a8 32 	call	0x6550	; 0x6550 <__addsf3>
    40ee:	eb cf       	rjmp	.-42     	; 0x40c6 <.L13>

000040f0 <draw_dual_trace_from_bram>:
    40f0:	2f 92       	push	r2
    40f2:	3f 92       	push	r3
    40f4:	4f 92       	push	r4
    40f6:	5f 92       	push	r5
    40f8:	6f 92       	push	r6
    40fa:	7f 92       	push	r7
    40fc:	8f 92       	push	r8
    40fe:	9f 92       	push	r9
    4100:	af 92       	push	r10
    4102:	bf 92       	push	r11
    4104:	cf 92       	push	r12
    4106:	df 92       	push	r13
    4108:	ef 92       	push	r14
    410a:	ff 92       	push	r15
    410c:	0f 93       	push	r16
    410e:	1f 93       	push	r17
    4110:	cf 93       	push	r28
    4112:	df 93       	push	r29
    4114:	cd b7       	in	r28, 0x3d	; 61
    4116:	de b7       	in	r29, 0x3e	; 62
    4118:	e5 97       	sbiw	r28, 0x35	; 53
    411a:	0f b6       	in	r0, 0x3f	; 63
    411c:	f8 94       	cli
    411e:	de bf       	out	0x3e, r29	; 62
    4120:	0f be       	out	0x3f, r0	; 63
    4122:	cd bf       	out	0x3d, r28	; 61
    4124:	8b a3       	std	Y+35, r24	; 0x23
    4126:	9c a3       	std	Y+36, r25	; 0x24
    4128:	6b 83       	std	Y+3, r22	; 0x03
    412a:	7c 83       	std	Y+4, r23	; 0x04
    412c:	94 2e       	mov	r9, r20
    412e:	85 2e       	mov	r8, r21
    4130:	2a a7       	std	Y+42, r18	; 0x2a
    4132:	39 83       	std	Y+1, r19	; 0x01
    4134:	09 87       	std	Y+9, r16	; 0x09
    4136:	1a 87       	std	Y+10, r17	; 0x0a
    4138:	ed a2       	std	Y+37, r14	; 0x25
    413a:	e0 91 64 01 	lds	r30, 0x0164	; 0x800164 <misure>
    413e:	f0 91 65 01 	lds	r31, 0x0165	; 0x800165 <misure+0x1>
    4142:	84 89       	ldd	r24, Z+20	; 0x14
    4144:	81 15       	cp	r24, r1
    4146:	09 f4       	brne	.+2      	; 0x414a <L0+0x2>

00004148 <L0>:
    4148:	5a c1       	rjmp	.+692    	; 0x43fe <.L39>
    414a:	26 89       	ldd	r18, Z+22	; 0x16
    414c:	2d 83       	std	Y+5, r18	; 0x05
    414e:	61 2c       	mov	r6, r1
    4150:	71 2c       	mov	r7, r1
    4152:	90 e1       	ldi	r25, 0x10	; 16
    4154:	1f 86       	std	Y+15, r1	; 0x0f
    4156:	98 8b       	std	Y+16, r25	; 0x10
    4158:	19 8a       	std	Y+17, r1	; 0x11
    415a:	1a 8a       	std	Y+18, r1	; 0x12
    415c:	4f ef       	ldi	r20, 0xFF	; 255
    415e:	5f ef       	ldi	r21, 0xFF	; 255
    4160:	9a 01       	movw	r18, r20
    4162:	2b 87       	std	Y+11, r18	; 0x0b
    4164:	3c 87       	std	Y+12, r19	; 0x0c
    4166:	4d 87       	std	Y+13, r20	; 0x0d
    4168:	5e 87       	std	Y+14, r21	; 0x0e
    416a:	1b 8a       	std	Y+19, r1	; 0x13
    416c:	1c 8a       	std	Y+20, r1	; 0x14
    416e:	1d 8a       	std	Y+21, r1	; 0x15
    4170:	1e 8a       	std	Y+22, r1	; 0x16
    4172:	1f 8a       	std	Y+23, r1	; 0x17
    4174:	18 8e       	std	Y+24, r1	; 0x18
    4176:	19 8e       	std	Y+25, r1	; 0x19
    4178:	1a 8e       	std	Y+26, r1	; 0x1a
    417a:	1b 8e       	std	Y+27, r1	; 0x1b
    417c:	1c 8e       	std	Y+28, r1	; 0x1c
    417e:	1d 8e       	std	Y+29, r1	; 0x1d
    4180:	1e 8e       	std	Y+30, r1	; 0x1e
    4182:	1f 8e       	std	Y+31, r1	; 0x1f
    4184:	18 a2       	std	Y+32, r1	; 0x20
    4186:	19 a2       	std	Y+33, r1	; 0x21
    4188:	1a a2       	std	Y+34, r1	; 0x22

0000418a <.L20>:
    418a:	3d 81       	ldd	r19, Y+5	; 0x05
    418c:	f3 01       	movw	r30, r6
    418e:	31 30       	cpi	r19, 0x01	; 1
    4190:	09 f0       	breq	.+2      	; 0x4194 <L0+0x2>

00004192 <L0>:
    4192:	32 c1       	rjmp	.+612    	; 0x43f8 <.L16>
    4194:	e2 5d       	subi	r30, 0xD2	; 210
    4196:	fe 4e       	sbci	r31, 0xEE	; 238

00004198 <.L74>:
    4198:	20 81       	ld	r18, Z
    419a:	31 81       	ldd	r19, Z+1	; 0x01
    419c:	3f 70       	andi	r19, 0x0F	; 15
    419e:	19 01       	movw	r2, r18
    41a0:	41 2c       	mov	r4, r1
    41a2:	51 2c       	mov	r5, r1
    41a4:	8b 85       	ldd	r24, Y+11	; 0x0b
    41a6:	9c 85       	ldd	r25, Y+12	; 0x0c
    41a8:	ad 85       	ldd	r26, Y+13	; 0x0d
    41aa:	be 85       	ldd	r27, Y+14	; 0x0e
    41ac:	82 17       	cp	r24, r18
    41ae:	93 07       	cpc	r25, r19
    41b0:	a1 05       	cpc	r26, r1
    41b2:	b1 05       	cpc	r27, r1
    41b4:	24 f4       	brge	.+8      	; 0x41be <.L18>
    41b6:	2b 86       	std	Y+11, r2	; 0x0b
    41b8:	3c 86       	std	Y+12, r3	; 0x0c
    41ba:	1d 86       	std	Y+13, r1	; 0x0d
    41bc:	1e 86       	std	Y+14, r1	; 0x0e

000041be <.L18>:
    41be:	8f 85       	ldd	r24, Y+15	; 0x0f
    41c0:	98 89       	ldd	r25, Y+16	; 0x10
    41c2:	a9 89       	ldd	r26, Y+17	; 0x11
    41c4:	ba 89       	ldd	r27, Y+18	; 0x12
    41c6:	28 16       	cp	r2, r24
    41c8:	39 06       	cpc	r3, r25
    41ca:	4a 06       	cpc	r4, r26
    41cc:	5b 06       	cpc	r5, r27
    41ce:	24 f4       	brge	.+8      	; 0x41d8 <.L19>
    41d0:	2f 86       	std	Y+15, r2	; 0x0f
    41d2:	38 8a       	std	Y+16, r3	; 0x10
    41d4:	19 8a       	std	Y+17, r1	; 0x11
    41d6:	1a 8a       	std	Y+18, r1	; 0x12

000041d8 <.L19>:
    41d8:	a2 01       	movw	r20, r4
    41da:	b2 01       	movw	r22, r4
    41dc:	c2 01       	movw	r24, r4
    41de:	ab 88       	ldd	r10, Y+19	; 0x13
    41e0:	bc 88       	ldd	r11, Y+20	; 0x14
    41e2:	cd 88       	ldd	r12, Y+21	; 0x15
    41e4:	de 88       	ldd	r13, Y+22	; 0x16
    41e6:	ef 88       	ldd	r14, Y+23	; 0x17
    41e8:	f8 8c       	ldd	r15, Y+24	; 0x18
    41ea:	09 8d       	ldd	r16, Y+25	; 0x19
    41ec:	1a 8d       	ldd	r17, Y+26	; 0x1a
    41ee:	0e 94 86 32 	call	0x650c	; 0x650c <__adddi3>
    41f2:	2b 8b       	std	Y+19, r18	; 0x13
    41f4:	3c 8b       	std	Y+20, r19	; 0x14
    41f6:	4d 8b       	std	Y+21, r20	; 0x15
    41f8:	5e 8b       	std	Y+22, r21	; 0x16
    41fa:	6f 8b       	std	Y+23, r22	; 0x17
    41fc:	78 8f       	std	Y+24, r23	; 0x18
    41fe:	89 8f       	std	Y+25, r24	; 0x19
    4200:	9a 8f       	std	Y+26, r25	; 0x1a
    4202:	91 01       	movw	r18, r2
    4204:	a2 01       	movw	r20, r4
    4206:	38 50       	subi	r19, 0x08	; 8
    4208:	41 09       	sbc	r20, r1
    420a:	51 09       	sbc	r21, r1
    420c:	b9 01       	movw	r22, r18
    420e:	ca 01       	movw	r24, r20
    4210:	0e 94 4c 32 	call	0x6498	; 0x6498 <__mulsidi3>
    4214:	ab 8c       	ldd	r10, Y+27	; 0x1b
    4216:	bc 8c       	ldd	r11, Y+28	; 0x1c
    4218:	cd 8c       	ldd	r12, Y+29	; 0x1d
    421a:	de 8c       	ldd	r13, Y+30	; 0x1e
    421c:	ef 8c       	ldd	r14, Y+31	; 0x1f
    421e:	f8 a0       	ldd	r15, Y+32	; 0x20
    4220:	09 a1       	ldd	r16, Y+33	; 0x21
    4222:	1a a1       	ldd	r17, Y+34	; 0x22
    4224:	0e 94 86 32 	call	0x650c	; 0x650c <__adddi3>
    4228:	2b 8f       	std	Y+27, r18	; 0x1b
    422a:	3c 8f       	std	Y+28, r19	; 0x1c
    422c:	4d 8f       	std	Y+29, r20	; 0x1d
    422e:	5e 8f       	std	Y+30, r21	; 0x1e
    4230:	6f 8f       	std	Y+31, r22	; 0x1f
    4232:	78 a3       	std	Y+32, r23	; 0x20
    4234:	89 a3       	std	Y+33, r24	; 0x21
    4236:	9a a3       	std	Y+34, r25	; 0x22
    4238:	92 e0       	ldi	r25, 0x02	; 2
    423a:	69 0e       	add	r6, r25
    423c:	71 1c       	adc	r7, r1
    423e:	a0 e2       	ldi	r26, 0x20	; 32
    4240:	6a 16       	cp	r6, r26
    4242:	a3 e0       	ldi	r26, 0x03	; 3
    4244:	7a 06       	cpc	r7, r26
    4246:	09 f0       	breq	.+2      	; 0x424a <L0+0x2>

00004248 <L0>:
    4248:	a0 cf       	rjmp	.-192    	; 0x418a <.L20>
    424a:	e0 e9       	ldi	r30, 0x90	; 144
    424c:	f1 e0       	ldi	r31, 0x01	; 1
    424e:	ea ab       	std	Y+50, r30	; 0x32
    4250:	fb ab       	std	Y+51, r31	; 0x33

00004252 <.L15>:
    4252:	80 91 5d 15 	lds	r24, 0x155D	; 0x80155d <current_time_base_idx>
    4256:	81 30       	cpi	r24, 0x01	; 1
    4258:	08 f0       	brcs	.+2      	; 0x425c <L0+0x2>

0000425a <L0>:
    425a:	f0 c0       	rjmp	.+480    	; 0x443c <.L21>
    425c:	80 e0       	ldi	r24, 0x00	; 0
    425e:	96 e9       	ldi	r25, 0x96	; 150
    4260:	69 85       	ldd	r22, Y+9	; 0x09
    4262:	7a 85       	ldd	r23, Y+10	; 0x0a
    4264:	0e 94 cf 31 	call	0x639e	; 0x639e <__udivmodhi4>
    4268:	9b 01       	movw	r18, r22
    426a:	40 e0       	ldi	r20, 0x00	; 0
    426c:	50 e0       	ldi	r21, 0x00	; 0
    426e:	6e a3       	std	Y+38, r22	; 0x26
    4270:	3f a3       	std	Y+39, r19	; 0x27
    4272:	18 a6       	std	Y+40, r1	; 0x28
    4274:	19 a6       	std	Y+41, r1	; 0x29
    4276:	3a 01       	movw	r6, r20
    4278:	41 2c       	mov	r4, r1
    427a:	4d e7       	ldi	r20, 0x7D	; 125
    427c:	54 2e       	mov	r5, r20

0000427e <.L22>:
    427e:	3a a5       	ldd	r19, Y+42	; 0x2a
    4280:	3f 83       	std	Y+7, r19	; 0x07
    4282:	49 81       	ldd	r20, Y+1	; 0x01
    4284:	48 87       	std	Y+8, r20	; 0x08
    4286:	9d 82       	std	Y+5, r9	; 0x05
    4288:	8e 82       	std	Y+6, r8	; 0x06
    428a:	83 e1       	ldi	r24, 0x13	; 19
    428c:	89 83       	std	Y+1, r24	; 0x01
    428e:	1a 82       	std	Y+2, r1	; 0x02
    4290:	1c aa       	std	Y+52, r1	; 0x34
    4292:	1d aa       	std	Y+53, r1	; 0x35
    4294:	ac e9       	ldi	r26, 0x9C	; 156
    4296:	bf ef       	ldi	r27, 0xFF	; 255
    4298:	a8 ab       	std	Y+48, r26	; 0x30
    429a:	b9 ab       	std	Y+49, r27	; 0x31
    429c:	fd 01       	movw	r30, r26
    429e:	ee a7       	std	Y+46, r30	; 0x2e
    42a0:	ff a7       	std	Y+47, r31	; 0x2f
    42a2:	9d 01       	movw	r18, r26
    42a4:	2c a7       	std	Y+44, r18	; 0x2c
    42a6:	3d a7       	std	Y+45, r19	; 0x2d
    42a8:	a9 01       	movw	r20, r18
    42aa:	2a a7       	std	Y+42, r18	; 0x2a
    42ac:	5b a7       	std	Y+43, r21	; 0x2b

000042ae <.L23>:
    42ae:	ac a9       	ldd	r26, Y+52	; 0x34
    42b0:	bd a9       	ldd	r27, Y+53	; 0x35
    42b2:	e9 85       	ldd	r30, Y+9	; 0x09
    42b4:	fa 85       	ldd	r31, Y+10	; 0x0a
    42b6:	ae 17       	cp	r26, r30
    42b8:	bf 07       	cpc	r27, r31
    42ba:	09 f0       	breq	.+2      	; 0x42be <L0+0x2>

000042bc <L0>:
    42bc:	de c0       	rjmp	.+444    	; 0x447a <.L35>
    42be:	20 91 64 01 	lds	r18, 0x0164	; 0x800164 <misure>
    42c2:	30 91 65 01 	lds	r19, 0x0165	; 0x800165 <misure+0x1>
    42c6:	29 83       	std	Y+1, r18	; 0x01
    42c8:	3a 83       	std	Y+2, r19	; 0x02
    42ca:	d9 01       	movw	r26, r18
    42cc:	54 96       	adiw	r26, 0x14	; 20
    42ce:	8c 91       	ld	r24, X
    42d0:	54 97       	sbiw	r26, 0x14	; 20
    42d2:	81 15       	cp	r24, r1
    42d4:	09 f4       	brne	.+2      	; 0x42d8 <L0+0x2>

000042d6 <L0>:
    42d6:	77 c0       	rjmp	.+238    	; 0x43c6 <.L14>
    42d8:	ea a9       	ldd	r30, Y+50	; 0x32
    42da:	fb a9       	ldd	r31, Y+51	; 0x33
    42dc:	ef 2b       	or	r30, r31
    42de:	09 f4       	brne	.+2      	; 0x42e2 <L0+0x2>

000042e0 <L0>:
    42e0:	72 c0       	rjmp	.+228    	; 0x43c6 <.L14>
    42e2:	56 96       	adiw	r26, 0x16	; 22
    42e4:	8c 91       	ld	r24, X
    42e6:	81 30       	cpi	r24, 0x01	; 1
    42e8:	21 f4       	brne	.+8      	; 0x42f2 <.L37>
    42ea:	2b a1       	ldd	r18, Y+35	; 0x23
    42ec:	3c a1       	ldd	r19, Y+36	; 0x24
    42ee:	2b 83       	std	Y+3, r18	; 0x03
    42f0:	3c 83       	std	Y+4, r19	; 0x04

000042f2 <.L37>:
    42f2:	20 e0       	ldi	r18, 0x00	; 0
    42f4:	30 e0       	ldi	r19, 0x00	; 0
    42f6:	40 e2       	ldi	r20, 0x20	; 32
    42f8:	5b e3       	ldi	r21, 0x3B	; 59
    42fa:	ab 81       	ldd	r26, Y+3	; 0x03
    42fc:	bc 81       	ldd	r27, Y+4	; 0x04
    42fe:	53 96       	adiw	r26, 0x13	; 19
    4300:	6d 91       	ld	r22, X+
    4302:	7d 91       	ld	r23, X+
    4304:	8d 91       	ld	r24, X+
    4306:	9d 91       	ld	r25, X+
    4308:	0e 94 cc 34 	call	0x6998	; 0x6998 <__mulsf3>
    430c:	6b 01       	movw	r12, r22
    430e:	7c 01       	movw	r14, r24
    4310:	6b 85       	ldd	r22, Y+11	; 0x0b
    4312:	7c 85       	ldd	r23, Y+12	; 0x0c
    4314:	8d 85       	ldd	r24, Y+13	; 0x0d
    4316:	9e 85       	ldd	r25, Y+14	; 0x0e
    4318:	2f 85       	ldd	r18, Y+15	; 0x0f
    431a:	38 89       	ldd	r19, Y+16	; 0x10
    431c:	49 89       	ldd	r20, Y+17	; 0x11
    431e:	5a 89       	ldd	r21, Y+18	; 0x12
    4320:	62 1b       	sub	r22, r18
    4322:	73 0b       	sbc	r23, r19
    4324:	84 0b       	sbc	r24, r20
    4326:	95 0b       	sbc	r25, r21
    4328:	1a f4       	brpl	.+6      	; 0x4330 <.L38>
    432a:	80 e0       	ldi	r24, 0x00	; 0
    432c:	90 e0       	ldi	r25, 0x00	; 0
    432e:	bc 01       	movw	r22, r24

00004330 <.L38>:
    4330:	0e 94 c9 33 	call	0x6792	; 0x6792 <__floatsisf>
    4334:	96 01       	movw	r18, r12
    4336:	a7 01       	movw	r20, r14
    4338:	0e 94 cc 34 	call	0x6998	; 0x6998 <__mulsf3>
    433c:	a9 81       	ldd	r26, Y+1	; 0x01
    433e:	ba 81       	ldd	r27, Y+2	; 0x02
    4340:	6d 93       	st	X+, r22
    4342:	7d 93       	st	X+, r23
    4344:	8d 93       	st	X+, r24
    4346:	9d 93       	st	X+, r25
    4348:	2b 89       	ldd	r18, Y+19	; 0x13
    434a:	3c 89       	ldd	r19, Y+20	; 0x14
    434c:	4d 89       	ldd	r20, Y+21	; 0x15
    434e:	5e 89       	ldd	r21, Y+22	; 0x16
    4350:	6f 89       	ldd	r22, Y+23	; 0x17
    4352:	78 8d       	ldd	r23, Y+24	; 0x18
    4354:	89 8d       	ldd	r24, Y+25	; 0x19
    4356:	9a 8d       	ldd	r25, Y+26	; 0x1a
    4358:	0e 94 c1 33 	call	0x6782	; 0x6782 <__floatdisf>
    435c:	20 e0       	ldi	r18, 0x00	; 0
    435e:	30 e0       	ldi	r19, 0x00	; 0
    4360:	48 ec       	ldi	r20, 0xC8	; 200
    4362:	53 e4       	ldi	r21, 0x43	; 67
    4364:	0e 94 19 33 	call	0x6632	; 0x6632 <__divsf3>
    4368:	20 e0       	ldi	r18, 0x00	; 0
    436a:	30 e0       	ldi	r19, 0x00	; 0
    436c:	40 e0       	ldi	r20, 0x00	; 0
    436e:	55 e4       	ldi	r21, 0x45	; 69
    4370:	0e 94 a7 32 	call	0x654e	; 0x654e <__subsf3>
    4374:	96 01       	movw	r18, r12
    4376:	a7 01       	movw	r20, r14
    4378:	0e 94 cc 34 	call	0x6998	; 0x6998 <__mulsf3>
    437c:	e9 81       	ldd	r30, Y+1	; 0x01
    437e:	fa 81       	ldd	r31, Y+2	; 0x02
    4380:	64 83       	std	Z+4, r22	; 0x04
    4382:	75 83       	std	Z+5, r23	; 0x05
    4384:	86 83       	std	Z+6, r24	; 0x06
    4386:	97 83       	std	Z+7, r25	; 0x07
    4388:	2b 8d       	ldd	r18, Y+27	; 0x1b
    438a:	3c 8d       	ldd	r19, Y+28	; 0x1c
    438c:	4d 8d       	ldd	r20, Y+29	; 0x1d
    438e:	5e 8d       	ldd	r21, Y+30	; 0x1e
    4390:	6f 8d       	ldd	r22, Y+31	; 0x1f
    4392:	78 a1       	ldd	r23, Y+32	; 0x20
    4394:	89 a1       	ldd	r24, Y+33	; 0x21
    4396:	9a a1       	ldd	r25, Y+34	; 0x22
    4398:	0e 94 04 34 	call	0x6808	; 0x6808 <__floatundisf>
    439c:	20 e0       	ldi	r18, 0x00	; 0
    439e:	30 e0       	ldi	r19, 0x00	; 0
    43a0:	48 ec       	ldi	r20, 0xC8	; 200
    43a2:	53 e4       	ldi	r21, 0x43	; 67
    43a4:	0e 94 19 33 	call	0x6632	; 0x6632 <__divsf3>
    43a8:	0e 94 3f 35 	call	0x6a7e	; 0x6a7e <sqrtf>
    43ac:	9b 01       	movw	r18, r22
    43ae:	ac 01       	movw	r20, r24
    43b0:	b6 01       	movw	r22, r12
    43b2:	c7 01       	movw	r24, r14
    43b4:	0e 94 cc 34 	call	0x6998	; 0x6998 <__mulsf3>
    43b8:	a9 81       	ldd	r26, Y+1	; 0x01
    43ba:	ba 81       	ldd	r27, Y+2	; 0x02
    43bc:	18 96       	adiw	r26, 0x08	; 8
    43be:	6d 93       	st	X+, r22
    43c0:	7d 93       	st	X+, r23
    43c2:	8d 93       	st	X+, r24
    43c4:	9d 93       	st	X+, r25

000043c6 <.L14>:
    43c6:	e5 96       	adiw	r28, 0x35	; 53
    43c8:	0f b6       	in	r0, 0x3f	; 63
    43ca:	f8 94       	cli
    43cc:	de bf       	out	0x3e, r29	; 62
    43ce:	0f be       	out	0x3f, r0	; 63
    43d0:	cd bf       	out	0x3d, r28	; 61
    43d2:	df 91       	pop	r29
    43d4:	cf 91       	pop	r28
    43d6:	1f 91       	pop	r17
    43d8:	0f 91       	pop	r16
    43da:	ff 90       	pop	r15
    43dc:	ef 90       	pop	r14
    43de:	df 90       	pop	r13
    43e0:	cf 90       	pop	r12
    43e2:	bf 90       	pop	r11
    43e4:	af 90       	pop	r10
    43e6:	9f 90       	pop	r9
    43e8:	8f 90       	pop	r8
    43ea:	7f 90       	pop	r7
    43ec:	6f 90       	pop	r6
    43ee:	5f 90       	pop	r5
    43f0:	4f 90       	pop	r4
    43f2:	3f 90       	pop	r3
    43f4:	2f 90       	pop	r2
    43f6:	08 95       	ret

000043f8 <.L16>:
    43f8:	ea 5b       	subi	r30, 0xBA	; 186
    43fa:	f2 4f       	sbci	r31, 0xF2	; 242
    43fc:	cd ce       	rjmp	.-614    	; 0x4198 <.L74>

000043fe <.L39>:
    43fe:	1a aa       	std	Y+50, r1	; 0x32
    4400:	1b aa       	std	Y+51, r1	; 0x33
    4402:	30 e1       	ldi	r19, 0x10	; 16
    4404:	1f 86       	std	Y+15, r1	; 0x0f
    4406:	38 8b       	std	Y+16, r19	; 0x10
    4408:	19 8a       	std	Y+17, r1	; 0x11
    440a:	1a 8a       	std	Y+18, r1	; 0x12
    440c:	af ef       	ldi	r26, 0xFF	; 255
    440e:	bf ef       	ldi	r27, 0xFF	; 255
    4410:	cd 01       	movw	r24, r26
    4412:	8b 87       	std	Y+11, r24	; 0x0b
    4414:	9c 87       	std	Y+12, r25	; 0x0c
    4416:	ad 87       	std	Y+13, r26	; 0x0d
    4418:	be 87       	std	Y+14, r27	; 0x0e
    441a:	1b 8a       	std	Y+19, r1	; 0x13
    441c:	1c 8a       	std	Y+20, r1	; 0x14
    441e:	1d 8a       	std	Y+21, r1	; 0x15
    4420:	1e 8a       	std	Y+22, r1	; 0x16
    4422:	1f 8a       	std	Y+23, r1	; 0x17
    4424:	18 8e       	std	Y+24, r1	; 0x18
    4426:	19 8e       	std	Y+25, r1	; 0x19
    4428:	1a 8e       	std	Y+26, r1	; 0x1a
    442a:	1b 8e       	std	Y+27, r1	; 0x1b
    442c:	1c 8e       	std	Y+28, r1	; 0x1c
    442e:	1d 8e       	std	Y+29, r1	; 0x1d
    4430:	1e 8e       	std	Y+30, r1	; 0x1e
    4432:	1f 8e       	std	Y+31, r1	; 0x1f
    4434:	18 a2       	std	Y+32, r1	; 0x20
    4436:	19 a2       	std	Y+33, r1	; 0x21
    4438:	1a a2       	std	Y+34, r1	; 0x22
    443a:	0b cf       	rjmp	.-490    	; 0x4252 <.L15>

0000443c <.L21>:
    443c:	a9 f4       	brne	.+42     	; 0x4468 <.L40>
    443e:	89 85       	ldd	r24, Y+9	; 0x09
    4440:	9a 85       	ldd	r25, Y+10	; 0x0a
    4442:	9c 01       	movw	r18, r24
    4444:	40 e0       	ldi	r20, 0x00	; 0
    4446:	50 e0       	ldi	r21, 0x00	; 0
    4448:	60 e0       	ldi	r22, 0x00	; 0
    444a:	7c e2       	ldi	r23, 0x2C	; 44
    444c:	81 e0       	ldi	r24, 0x01	; 1
    444e:	90 e0       	ldi	r25, 0x00	; 0
    4450:	0e 94 f7 31 	call	0x63ee	; 0x63ee <__udivmodsi4>
    4454:	2e a3       	std	Y+38, r18	; 0x26
    4456:	3f a3       	std	Y+39, r19	; 0x27
    4458:	48 a7       	std	Y+40, r20	; 0x28
    445a:	59 a7       	std	Y+41, r21	; 0x29
    445c:	41 2c       	mov	r4, r1
    445e:	32 e3       	ldi	r19, 0x32	; 50
    4460:	53 2e       	mov	r5, r19
    4462:	61 2c       	mov	r6, r1
    4464:	71 2c       	mov	r7, r1
    4466:	0b cf       	rjmp	.-490    	; 0x427e <.L22>

00004468 <.L40>:
    4468:	61 2c       	mov	r6, r1
    446a:	71 2c       	mov	r7, r1
    446c:	23 01       	movw	r4, r6
    446e:	31 e0       	ldi	r19, 0x01	; 1
    4470:	1e a2       	std	Y+38, r1	; 0x26
    4472:	3f a3       	std	Y+39, r19	; 0x27
    4474:	18 a6       	std	Y+40, r1	; 0x28
    4476:	19 a6       	std	Y+41, r1	; 0x29
    4478:	02 cf       	rjmp	.-508    	; 0x427e <.L22>

0000447a <.L35>:
    447a:	8c a8       	ldd	r8, Y+52	; 0x34
    447c:	9d a8       	ldd	r9, Y+53	; 0x35
    447e:	54 e1       	ldi	r21, 0x14	; 20
    4480:	85 0e       	add	r8, r21
    4482:	91 1c       	adc	r9, r1
    4484:	85 2d       	mov	r24, r5
    4486:	96 2d       	mov	r25, r6
    4488:	5c 01       	movw	r10, r24
    448a:	84 ef       	ldi	r24, 0xF4	; 244
    448c:	a8 16       	cp	r10, r24
    448e:	81 e0       	ldi	r24, 0x01	; 1
    4490:	b8 06       	cpc	r11, r24
    4492:	20 f0       	brcs	.+8      	; 0x449c <.L24>
    4494:	03 ef       	ldi	r16, 0xF3	; 243
    4496:	a0 2e       	mov	r10, r16
    4498:	01 e0       	ldi	r16, 0x01	; 1
    449a:	b0 2e       	mov	r11, r16

0000449c <.L24>:
    449c:	ad 81       	ldd	r26, Y+5	; 0x05
    449e:	be 81       	ldd	r27, Y+6	; 0x06
    44a0:	2d 91       	ld	r18, X+
    44a2:	3d 91       	ld	r19, X+
    44a4:	c9 01       	movw	r24, r18
    44a6:	89 97       	sbiw	r24, 0x29	; 41
    44a8:	89 37       	cpi	r24, 0x79	; 121
    44aa:	91 40       	sbci	r25, 0x01	; 1
    44ac:	f0 f4       	brcc	.+60     	; 0x44ea <.L25>
    44ae:	ed a1       	ldd	r30, Y+37	; 0x25
    44b0:	e1 15       	cp	r30, r1
    44b2:	09 f4       	brne	.+2      	; 0x44b6 <L0+0x2>

000044b4 <L0>:
    44b4:	e9 c0       	rjmp	.+466    	; 0x4688 <.L26>
    44b6:	4c a9       	ldd	r20, Y+52	; 0x34
    44b8:	5d a9       	ldd	r21, Y+53	; 0x35
    44ba:	45 2b       	or	r20, r21
    44bc:	09 f4       	brne	.+2      	; 0x44c0 <L0+0x2>

000044be <L0>:
    44be:	e4 c0       	rjmp	.+456    	; 0x4688 <.L26>
    44c0:	8c a5       	ldd	r24, Y+44	; 0x2c
    44c2:	9d a5       	ldd	r25, Y+45	; 0x2d
    44c4:	89 32       	cpi	r24, 0x29	; 41
    44c6:	91 05       	cpc	r25, r1
    44c8:	0c f4       	brge	.+2      	; 0x44cc <L0+0x2>

000044ca <L0>:
    44ca:	de c0       	rjmp	.+444    	; 0x4688 <.L26>
    44cc:	b2 ea       	ldi	r27, 0xA2	; 162
    44ce:	cb 2e       	mov	r12, r27
    44d0:	b1 e0       	ldi	r27, 0x01	; 1
    44d2:	db 2e       	mov	r13, r27
    44d4:	18 e2       	ldi	r17, 0x28	; 40
    44d6:	e1 2e       	mov	r14, r17
    44d8:	f1 2c       	mov	r15, r1
    44da:	00 e0       	ldi	r16, 0x00	; 0
    44dc:	10 e0       	ldi	r17, 0x00	; 0
    44de:	a4 01       	movw	r20, r8
    44e0:	bc 01       	movw	r22, r24
    44e2:	89 81       	ldd	r24, Y+1	; 0x01
    44e4:	9a 81       	ldd	r25, Y+2	; 0x02
    44e6:	0e 94 51 12 	call	0x24a2	; 0x24a2 <vga_drawLine_Clipped>

000044ea <.L25>:
    44ea:	ad 81       	ldd	r26, Y+5	; 0x05
    44ec:	be 81       	ldd	r27, Y+6	; 0x06
    44ee:	0d 90       	ld	r0, X+
    44f0:	bc 91       	ld	r27, X
    44f2:	a0 2d       	mov	r26, r0
    44f4:	ac a7       	std	Y+44, r26	; 0x2c
    44f6:	bd a7       	std	Y+45, r27	; 0x2d
    44f8:	eb a1       	ldd	r30, Y+35	; 0x23
    44fa:	fc a1       	ldd	r31, Y+36	; 0x24
    44fc:	80 81       	ld	r24, Z
    44fe:	7c e9       	ldi	r23, 0x9C	; 156
    4500:	27 2e       	mov	r2, r23
    4502:	7f ef       	ldi	r23, 0xFF	; 255
    4504:	37 2e       	mov	r3, r23
    4506:	81 15       	cp	r24, r1
    4508:	a9 f1       	breq	.+106    	; 0x4574 <.L27>
    450a:	f5 01       	movw	r30, r10
    450c:	ee 0f       	add	r30, r30
    450e:	ff 1f       	adc	r31, r31
    4510:	e2 5d       	subi	r30, 0xD2	; 210
    4512:	fe 4e       	sbci	r31, 0xEE	; 238
    4514:	60 81       	ld	r22, Z
    4516:	71 81       	ldd	r23, Z+1	; 0x01
    4518:	40 e0       	ldi	r20, 0x00	; 0
    451a:	8b a1       	ldd	r24, Y+35	; 0x23
    451c:	9c a1       	ldd	r25, Y+36	; 0x24
    451e:	0e 94 23 20 	call	0x4046	; 0x4046 <calcolaYTraccia>
    4522:	1c 01       	movw	r2, r24
    4524:	89 97       	sbiw	r24, 0x29	; 41
    4526:	89 37       	cpi	r24, 0x79	; 121
    4528:	91 40       	sbci	r25, 0x01	; 1
    452a:	20 f5       	brcc	.+72     	; 0x4574 <.L27>
    452c:	ab a1       	ldd	r26, Y+35	; 0x23
    452e:	bc a1       	ldd	r27, Y+36	; 0x24
    4530:	5e 96       	adiw	r26, 0x1e	; 30
    4532:	4d 91       	ld	r20, X+
    4534:	5d 91       	ld	r21, X+
    4536:	bd a1       	ldd	r27, Y+37	; 0x25
    4538:	b1 15       	cp	r27, r1
    453a:	09 f4       	brne	.+2      	; 0x453e <L0+0x2>

0000453c <L0>:
    453c:	ac c0       	rjmp	.+344    	; 0x4696 <.L29>
    453e:	ec a9       	ldd	r30, Y+52	; 0x34
    4540:	fd a9       	ldd	r31, Y+53	; 0x35
    4542:	ef 2b       	or	r30, r31
    4544:	09 f4       	brne	.+2      	; 0x4548 <L0+0x2>

00004546 <L0>:
    4546:	a7 c0       	rjmp	.+334    	; 0x4696 <.L29>
    4548:	2a a5       	ldd	r18, Y+42	; 0x2a
    454a:	3b a5       	ldd	r19, Y+43	; 0x2b
    454c:	29 32       	cpi	r18, 0x29	; 41
    454e:	31 05       	cpc	r19, r1
    4550:	0c f4       	brge	.+2      	; 0x4554 <L0+0x2>

00004552 <L0>:
    4552:	a1 c0       	rjmp	.+322    	; 0x4696 <.L29>
    4554:	e2 ea       	ldi	r30, 0xA2	; 162
    4556:	ce 2e       	mov	r12, r30
    4558:	e1 e0       	ldi	r30, 0x01	; 1
    455a:	de 2e       	mov	r13, r30
    455c:	f8 e2       	ldi	r31, 0x28	; 40
    455e:	ef 2e       	mov	r14, r31
    4560:	f1 2c       	mov	r15, r1
    4562:	8a 01       	movw	r16, r20
    4564:	91 01       	movw	r18, r2
    4566:	a4 01       	movw	r20, r8
    4568:	6a a5       	ldd	r22, Y+42	; 0x2a
    456a:	7b a5       	ldd	r23, Y+43	; 0x2b
    456c:	89 81       	ldd	r24, Y+1	; 0x01
    456e:	9a 81       	ldd	r25, Y+2	; 0x02
    4570:	0e 94 51 12 	call	0x24a2	; 0x24a2 <vga_drawLine_Clipped>

00004574 <.L27>:
    4574:	ad 81       	ldd	r26, Y+5	; 0x05
    4576:	be 81       	ldd	r27, Y+6	; 0x06
    4578:	2d 92       	st	X+, r2
    457a:	3d 92       	st	X+, r3
    457c:	ad 83       	std	Y+5, r26	; 0x05
    457e:	be 83       	std	Y+6, r27	; 0x06
    4580:	ef 81       	ldd	r30, Y+7	; 0x07
    4582:	f8 85       	ldd	r31, Y+8	; 0x08
    4584:	20 81       	ld	r18, Z
    4586:	31 81       	ldd	r19, Z+1	; 0x01
    4588:	c9 01       	movw	r24, r18
    458a:	89 97       	sbiw	r24, 0x29	; 41
    458c:	89 37       	cpi	r24, 0x79	; 121
    458e:	91 40       	sbci	r25, 0x01	; 1
    4590:	f0 f4       	brcc	.+60     	; 0x45ce <.L30>
    4592:	4d a1       	ldd	r20, Y+37	; 0x25
    4594:	41 15       	cp	r20, r1
    4596:	09 f4       	brne	.+2      	; 0x459a <L0+0x2>

00004598 <L0>:
    4598:	83 c0       	rjmp	.+262    	; 0x46a0 <.L31>
    459a:	8c a9       	ldd	r24, Y+52	; 0x34
    459c:	9d a9       	ldd	r25, Y+53	; 0x35
    459e:	89 2b       	or	r24, r25
    45a0:	09 f4       	brne	.+2      	; 0x45a4 <L0+0x2>

000045a2 <L0>:
    45a2:	7e c0       	rjmp	.+252    	; 0x46a0 <.L31>
    45a4:	a8 a9       	ldd	r26, Y+48	; 0x30
    45a6:	b9 a9       	ldd	r27, Y+49	; 0x31
    45a8:	a9 32       	cpi	r26, 0x29	; 41
    45aa:	b1 05       	cpc	r27, r1
    45ac:	0c f4       	brge	.+2      	; 0x45b0 <L0+0x2>

000045ae <L0>:
    45ae:	78 c0       	rjmp	.+240    	; 0x46a0 <.L31>
    45b0:	52 ea       	ldi	r21, 0xA2	; 162
    45b2:	c5 2e       	mov	r12, r21
    45b4:	51 e0       	ldi	r21, 0x01	; 1
    45b6:	d5 2e       	mov	r13, r21
    45b8:	68 e2       	ldi	r22, 0x28	; 40
    45ba:	e6 2e       	mov	r14, r22
    45bc:	f1 2c       	mov	r15, r1
    45be:	00 e0       	ldi	r16, 0x00	; 0
    45c0:	10 e0       	ldi	r17, 0x00	; 0
    45c2:	a4 01       	movw	r20, r8
    45c4:	bd 01       	movw	r22, r26
    45c6:	89 81       	ldd	r24, Y+1	; 0x01
    45c8:	9a 81       	ldd	r25, Y+2	; 0x02
    45ca:	0e 94 51 12 	call	0x24a2	; 0x24a2 <vga_drawLine_Clipped>

000045ce <.L30>:
    45ce:	ef 81       	ldd	r30, Y+7	; 0x07
    45d0:	f8 85       	ldd	r31, Y+8	; 0x08
    45d2:	01 90       	ld	r0, Z+
    45d4:	f0 81       	ld	r31, Z
    45d6:	e0 2d       	mov	r30, r0
    45d8:	e8 ab       	std	Y+48, r30	; 0x30
    45da:	f9 ab       	std	Y+49, r31	; 0x31
    45dc:	ab 81       	ldd	r26, Y+3	; 0x03
    45de:	bc 81       	ldd	r27, Y+4	; 0x04
    45e0:	8c 91       	ld	r24, X
    45e2:	81 15       	cp	r24, r1
    45e4:	09 f4       	brne	.+2      	; 0x45e8 <L0+0x2>

000045e6 <L0>:
    45e6:	68 c0       	rjmp	.+208    	; 0x46b8 <.L42>
    45e8:	f5 01       	movw	r30, r10
    45ea:	ee 0f       	add	r30, r30
    45ec:	ff 1f       	adc	r31, r31
    45ee:	ea 5b       	subi	r30, 0xBA	; 186
    45f0:	f2 4f       	sbci	r31, 0xF2	; 242
    45f2:	60 81       	ld	r22, Z
    45f4:	71 81       	ldd	r23, Z+1	; 0x01
    45f6:	40 e0       	ldi	r20, 0x00	; 0
    45f8:	cd 01       	movw	r24, r26
    45fa:	0e 94 23 20 	call	0x4046	; 0x4046 <calcolaYTraccia>
    45fe:	5c 01       	movw	r10, r24
    4600:	89 97       	sbiw	r24, 0x29	; 41
    4602:	89 37       	cpi	r24, 0x79	; 121
    4604:	91 40       	sbci	r25, 0x01	; 1
    4606:	10 f5       	brcc	.+68     	; 0x464c <.L32>
    4608:	eb 81       	ldd	r30, Y+3	; 0x03
    460a:	fc 81       	ldd	r31, Y+4	; 0x04
    460c:	46 8d       	ldd	r20, Z+30	; 0x1e
    460e:	57 8d       	ldd	r21, Z+31	; 0x1f
    4610:	fd a1       	ldd	r31, Y+37	; 0x25
    4612:	f1 15       	cp	r31, r1
    4614:	09 f4       	brne	.+2      	; 0x4618 <L0+0x2>

00004616 <L0>:
    4616:	4b c0       	rjmp	.+150    	; 0x46ae <.L34>
    4618:	2c a9       	ldd	r18, Y+52	; 0x34
    461a:	3d a9       	ldd	r19, Y+53	; 0x35
    461c:	23 2b       	or	r18, r19
    461e:	09 f4       	brne	.+2      	; 0x4622 <L0+0x2>

00004620 <L0>:
    4620:	46 c0       	rjmp	.+140    	; 0x46ae <.L34>
    4622:	8e a5       	ldd	r24, Y+46	; 0x2e
    4624:	9f a5       	ldd	r25, Y+47	; 0x2f
    4626:	89 32       	cpi	r24, 0x29	; 41
    4628:	91 05       	cpc	r25, r1
    462a:	0c f4       	brge	.+2      	; 0x462e <L0+0x2>

0000462c <L0>:
    462c:	40 c0       	rjmp	.+128    	; 0x46ae <.L34>
    462e:	22 ea       	ldi	r18, 0xA2	; 162
    4630:	c2 2e       	mov	r12, r18
    4632:	21 e0       	ldi	r18, 0x01	; 1
    4634:	d2 2e       	mov	r13, r18
    4636:	38 e2       	ldi	r19, 0x28	; 40
    4638:	e3 2e       	mov	r14, r19
    463a:	f1 2c       	mov	r15, r1
    463c:	8a 01       	movw	r16, r20
    463e:	95 01       	movw	r18, r10
    4640:	a4 01       	movw	r20, r8
    4642:	bc 01       	movw	r22, r24
    4644:	89 81       	ldd	r24, Y+1	; 0x01
    4646:	9a 81       	ldd	r25, Y+2	; 0x02
    4648:	0e 94 51 12 	call	0x24a2	; 0x24a2 <vga_drawLine_Clipped>

0000464c <.L32>:
    464c:	af 81       	ldd	r26, Y+7	; 0x07
    464e:	b8 85       	ldd	r27, Y+8	; 0x08
    4650:	ad 92       	st	X+, r10
    4652:	bd 92       	st	X+, r11
    4654:	af 83       	std	Y+7, r26	; 0x07
    4656:	b8 87       	std	Y+8, r27	; 0x08
    4658:	2e a1       	ldd	r18, Y+38	; 0x26
    465a:	3f a1       	ldd	r19, Y+39	; 0x27
    465c:	48 a5       	ldd	r20, Y+40	; 0x28
    465e:	59 a5       	ldd	r21, Y+41	; 0x29
    4660:	42 0e       	add	r4, r18
    4662:	53 1e       	adc	r5, r19
    4664:	64 1e       	adc	r6, r20
    4666:	75 1e       	adc	r7, r21
    4668:	4c a9       	ldd	r20, Y+52	; 0x34
    466a:	5d a9       	ldd	r21, Y+53	; 0x35
    466c:	4f 5f       	subi	r20, 0xFF	; 255
    466e:	5f 4f       	sbci	r21, 0xFF	; 255
    4670:	4c ab       	std	Y+52, r20	; 0x34
    4672:	5d ab       	std	Y+53, r21	; 0x35
    4674:	89 81       	ldd	r24, Y+1	; 0x01
    4676:	9a 81       	ldd	r25, Y+2	; 0x02
    4678:	01 96       	adiw	r24, 0x01	; 1
    467a:	89 83       	std	Y+1, r24	; 0x01
    467c:	9a 83       	std	Y+2, r25	; 0x02
    467e:	ae a6       	std	Y+46, r10	; 0x2e
    4680:	bf a6       	std	Y+47, r11	; 0x2f
    4682:	2a a6       	std	Y+42, r2	; 0x2a
    4684:	3b a6       	std	Y+43, r3	; 0x2b
    4686:	13 ce       	rjmp	.-986    	; 0x42ae <.L23>

00004688 <.L26>:
    4688:	40 e0       	ldi	r20, 0x00	; 0
    468a:	50 e0       	ldi	r21, 0x00	; 0
    468c:	b9 01       	movw	r22, r18
    468e:	c4 01       	movw	r24, r8
    4690:	0e 94 93 09 	call	0x1326	; 0x1326 <vga_pixel_fast>
    4694:	2a cf       	rjmp	.-428    	; 0x44ea <.L25>

00004696 <.L29>:
    4696:	b1 01       	movw	r22, r2
    4698:	c4 01       	movw	r24, r8
    469a:	0e 94 93 09 	call	0x1326	; 0x1326 <vga_pixel_fast>
    469e:	6a cf       	rjmp	.-300    	; 0x4574 <.L27>

000046a0 <.L31>:
    46a0:	40 e0       	ldi	r20, 0x00	; 0
    46a2:	50 e0       	ldi	r21, 0x00	; 0
    46a4:	b9 01       	movw	r22, r18
    46a6:	c4 01       	movw	r24, r8
    46a8:	0e 94 93 09 	call	0x1326	; 0x1326 <vga_pixel_fast>
    46ac:	90 cf       	rjmp	.-224    	; 0x45ce <.L30>

000046ae <.L34>:
    46ae:	b5 01       	movw	r22, r10
    46b0:	c4 01       	movw	r24, r8
    46b2:	0e 94 93 09 	call	0x1326	; 0x1326 <vga_pixel_fast>
    46b6:	ca cf       	rjmp	.-108    	; 0x464c <.L32>

000046b8 <.L42>:
    46b8:	8c e9       	ldi	r24, 0x9C	; 156
    46ba:	a8 2e       	mov	r10, r24
    46bc:	8f ef       	ldi	r24, 0xFF	; 255
    46be:	b8 2e       	mov	r11, r24
    46c0:	c5 cf       	rjmp	.-118    	; 0x464c <.L32>

000046c2 <draw_xy_trace>:
    46c2:	6f 92       	push	r6
    46c4:	7f 92       	push	r7
    46c6:	8f 92       	push	r8
    46c8:	9f 92       	push	r9
    46ca:	af 92       	push	r10
    46cc:	bf 92       	push	r11
    46ce:	cf 92       	push	r12
    46d0:	df 92       	push	r13
    46d2:	ef 92       	push	r14
    46d4:	ff 92       	push	r15
    46d6:	0f 93       	push	r16
    46d8:	1f 93       	push	r17
    46da:	cf 93       	push	r28
    46dc:	df 93       	push	r29
    46de:	cd b7       	in	r28, 0x3d	; 61
    46e0:	de b7       	in	r29, 0x3e	; 62
    46e2:	28 97       	sbiw	r28, 0x08	; 8
    46e4:	0f b6       	in	r0, 0x3f	; 63
    46e6:	f8 94       	cli
    46e8:	de bf       	out	0x3e, r29	; 62
    46ea:	0f be       	out	0x3f, r0	; 63
    46ec:	cd bf       	out	0x3d, r28	; 61
    46ee:	89 83       	std	Y+1, r24	; 0x01
    46f0:	9a 83       	std	Y+2, r25	; 0x02
    46f2:	6b 83       	std	Y+3, r22	; 0x03
    46f4:	7c 83       	std	Y+4, r23	; 0x04
    46f6:	0d 83       	std	Y+5, r16	; 0x05
    46f8:	1e 83       	std	Y+6, r17	; 0x06
    46fa:	8a 01       	movw	r16, r20
    46fc:	2f 83       	std	Y+7, r18	; 0x07
    46fe:	38 87       	std	Y+8, r19	; 0x08
    4700:	86 e4       	ldi	r24, 0x46	; 70
    4702:	c8 2e       	mov	r12, r24
    4704:	8d e0       	ldi	r24, 0x0D	; 13
    4706:	d8 2e       	mov	r13, r24
    4708:	9e e2       	ldi	r25, 0x2E	; 46
    470a:	a9 2e       	mov	r10, r25
    470c:	91 e1       	ldi	r25, 0x11	; 17
    470e:	b9 2e       	mov	r11, r25
    4710:	81 2c       	mov	r8, r1
    4712:	91 2c       	mov	r9, r1

00004714 <.L76>:
    4714:	8d 81       	ldd	r24, Y+5	; 0x05
    4716:	9e 81       	ldd	r25, Y+6	; 0x06
    4718:	88 16       	cp	r8, r24
    471a:	99 06       	cpc	r9, r25
    471c:	a9 f4       	brne	.+42     	; 0x4748 <.L80>
    471e:	28 96       	adiw	r28, 0x08	; 8
    4720:	0f b6       	in	r0, 0x3f	; 63
    4722:	f8 94       	cli
    4724:	de bf       	out	0x3e, r29	; 62
    4726:	0f be       	out	0x3f, r0	; 63
    4728:	cd bf       	out	0x3d, r28	; 61
    472a:	df 91       	pop	r29
    472c:	cf 91       	pop	r28
    472e:	1f 91       	pop	r17
    4730:	0f 91       	pop	r16
    4732:	ff 90       	pop	r15
    4734:	ef 90       	pop	r14
    4736:	df 90       	pop	r13
    4738:	cf 90       	pop	r12
    473a:	bf 90       	pop	r11
    473c:	af 90       	pop	r10
    473e:	9f 90       	pop	r9
    4740:	8f 90       	pop	r8
    4742:	7f 90       	pop	r7
    4744:	6f 90       	pop	r6
    4746:	08 95       	ret

00004748 <.L80>:
    4748:	f8 01       	movw	r30, r16
    474a:	80 81       	ld	r24, Z
    474c:	91 81       	ldd	r25, Z+1	; 0x01
    474e:	8c 39       	cpi	r24, 0x9C	; 156
    4750:	ff ef       	ldi	r31, 0xFF	; 255
    4752:	9f 07       	cpc	r25, r31
    4754:	41 f0       	breq	.+16     	; 0x4766 <.L77>
    4756:	ef 81       	ldd	r30, Y+7	; 0x07
    4758:	f8 85       	ldd	r31, Y+8	; 0x08
    475a:	60 81       	ld	r22, Z
    475c:	71 81       	ldd	r23, Z+1	; 0x01
    475e:	40 e0       	ldi	r20, 0x00	; 0
    4760:	50 e0       	ldi	r21, 0x00	; 0
    4762:	0e 94 93 09 	call	0x1326	; 0x1326 <vga_pixel_fast>

00004766 <.L77>:
    4766:	e9 81       	ldd	r30, Y+1	; 0x01
    4768:	fa 81       	ldd	r31, Y+2	; 0x02
    476a:	80 81       	ld	r24, Z
    476c:	81 15       	cp	r24, r1
    476e:	79 f1       	breq	.+94     	; 0x47ce <.L78>
    4770:	eb 81       	ldd	r30, Y+3	; 0x03
    4772:	fc 81       	ldd	r31, Y+4	; 0x04
    4774:	80 81       	ld	r24, Z
    4776:	81 15       	cp	r24, r1
    4778:	51 f1       	breq	.+84     	; 0x47ce <.L78>
    477a:	f5 01       	movw	r30, r10
    477c:	60 81       	ld	r22, Z
    477e:	71 81       	ldd	r23, Z+1	; 0x01
    4780:	40 e0       	ldi	r20, 0x00	; 0
    4782:	89 81       	ldd	r24, Y+1	; 0x01
    4784:	9a 81       	ldd	r25, Y+2	; 0x02
    4786:	0e 94 23 20 	call	0x4046	; 0x4046 <calcolaYTraccia>
    478a:	7c 01       	movw	r14, r24
    478c:	88 97       	sbiw	r24, 0x28	; 40
    478e:	8c 37       	cpi	r24, 0x7C	; 124
    4790:	91 40       	sbci	r25, 0x01	; 1
    4792:	70 f5       	brcc	.+92     	; 0x47f0 <.L79>
    4794:	f6 01       	movw	r30, r12
    4796:	60 81       	ld	r22, Z
    4798:	71 81       	ldd	r23, Z+1	; 0x01
    479a:	40 e0       	ldi	r20, 0x00	; 0
    479c:	8b 81       	ldd	r24, Y+3	; 0x03
    479e:	9c 81       	ldd	r25, Y+4	; 0x04
    47a0:	0e 94 23 20 	call	0x4046	; 0x4046 <calcolaYTraccia>
    47a4:	3c 01       	movw	r6, r24
    47a6:	88 97       	sbiw	r24, 0x28	; 40
    47a8:	8c 37       	cpi	r24, 0x7C	; 124
    47aa:	91 40       	sbci	r25, 0x01	; 1
    47ac:	08 f5       	brcc	.+66     	; 0x47f0 <.L79>
    47ae:	28 e2       	ldi	r18, 0x28	; 40
    47b0:	e2 0e       	add	r14, r18
    47b2:	f1 1c       	adc	r15, r1
    47b4:	48 e3       	ldi	r20, 0x38	; 56
    47b6:	50 e0       	ldi	r21, 0x00	; 0
    47b8:	b3 01       	movw	r22, r6
    47ba:	c7 01       	movw	r24, r14
    47bc:	0e 94 93 09 	call	0x1326	; 0x1326 <vga_pixel_fast>
    47c0:	f8 01       	movw	r30, r16
    47c2:	e0 82       	st	Z, r14
    47c4:	f1 82       	std	Z+1, r15	; 0x01
    47c6:	ef 81       	ldd	r30, Y+7	; 0x07
    47c8:	f8 85       	ldd	r31, Y+8	; 0x08
    47ca:	60 82       	st	Z, r6
    47cc:	71 82       	std	Z+1, r7	; 0x01

000047ce <.L78>:
    47ce:	9f ef       	ldi	r25, 0xFF	; 255
    47d0:	89 1a       	sub	r8, r25
    47d2:	99 0a       	sbc	r9, r25
    47d4:	0e 5f       	subi	r16, 0xFE	; 254
    47d6:	1f 4f       	sbci	r17, 0xFF	; 255
    47d8:	ef 81       	ldd	r30, Y+7	; 0x07
    47da:	f8 85       	ldd	r31, Y+8	; 0x08
    47dc:	32 96       	adiw	r30, 0x02	; 2
    47de:	ef 83       	std	Y+7, r30	; 0x07
    47e0:	f8 87       	std	Y+8, r31	; 0x08
    47e2:	f2 e0       	ldi	r31, 0x02	; 2
    47e4:	cf 0e       	add	r12, r31
    47e6:	d1 1c       	adc	r13, r1
    47e8:	22 e0       	ldi	r18, 0x02	; 2
    47ea:	a2 0e       	add	r10, r18
    47ec:	b1 1c       	adc	r11, r1
    47ee:	92 cf       	rjmp	.-220    	; 0x4714 <.L76>

000047f0 <.L79>:
    47f0:	8c e9       	ldi	r24, 0x9C	; 156
    47f2:	9f ef       	ldi	r25, 0xFF	; 255
    47f4:	f8 01       	movw	r30, r16
    47f6:	80 83       	st	Z, r24
    47f8:	91 83       	std	Z+1, r25	; 0x01
    47fa:	e9 cf       	rjmp	.-46     	; 0x47ce <.L78>

000047fc <draw_trigger_line>:
    47fc:	8f 92       	push	r8
    47fe:	9f 92       	push	r9
    4800:	af 92       	push	r10
    4802:	bf 92       	push	r11
    4804:	cf 92       	push	r12
    4806:	df 92       	push	r13
    4808:	ef 92       	push	r14
    480a:	ff 92       	push	r15
    480c:	0f 93       	push	r16
    480e:	1f 93       	push	r17
    4810:	cf 93       	push	r28
    4812:	df 93       	push	r29
    4814:	00 d0       	rcall	.+0      	; 0x4816 <L0>

00004816 <L0>:
    4816:	00 d0       	rcall	.+0      	; 0x4818 <L0>

00004818 <L0>:
    4818:	cd b7       	in	r28, 0x3d	; 61
    481a:	de b7       	in	r29, 0x3e	; 62
    481c:	9c 01       	movw	r18, r24
    481e:	69 83       	std	Y+1, r22	; 0x01
    4820:	7a 83       	std	Y+2, r23	; 0x02
    4822:	b4 2e       	mov	r11, r20
    4824:	80 91 54 01 	lds	r24, 0x0154	; 0x800154 <trigger_source>
    4828:	81 30       	cpi	r24, 0x01	; 1
    482a:	09 f0       	breq	.+2      	; 0x482e <L0+0x2>

0000482c <L0>:
    482c:	96 c0       	rjmp	.+300    	; 0x495a <.L96>
    482e:	8c e8       	ldi	r24, 0x8C	; 140
    4830:	95 e1       	ldi	r25, 0x15	; 21

00004832 <.L91>:
    4832:	41 e0       	ldi	r20, 0x01	; 1
    4834:	b9 01       	movw	r22, r18
    4836:	0e 94 23 20 	call	0x4046	; 0x4046 <calcolaYTraccia>
    483a:	8b 83       	std	Y+3, r24	; 0x03
    483c:	9c 83       	std	Y+4, r25	; 0x04
    483e:	60 91 0a 01 	lds	r22, 0x010A	; 0x80010a <last_trig_y>
    4842:	70 91 0b 01 	lds	r23, 0x010B	; 0x80010b <last_trig_y+0x1>
    4846:	6c 39       	cpi	r22, 0x9C	; 156
    4848:	2f ef       	ldi	r18, 0xFF	; 255
    484a:	72 07       	cpc	r23, r18
    484c:	21 f1       	breq	.+72     	; 0x4896 <.L92>
    484e:	20 e0       	ldi	r18, 0x00	; 0
    4850:	30 e0       	ldi	r19, 0x00	; 0
    4852:	44 ef       	ldi	r20, 0xF4	; 244
    4854:	51 e0       	ldi	r21, 0x01	; 1
    4856:	84 e1       	ldi	r24, 0x14	; 20
    4858:	90 e0       	ldi	r25, 0x00	; 0
    485a:	0e 94 d5 0c 	call	0x19aa	; 0x19aa <vga_drawFastHLine>
    485e:	e0 90 16 15 	lds	r14, 0x1516	; 0x801516 <old_trig_c>
    4862:	f0 90 17 15 	lds	r15, 0x1517	; 0x801517 <old_trig_c+0x1>
    4866:	00 91 18 15 	lds	r16, 0x1518	; 0x801518 <old_trig_c+0x2>
    486a:	10 91 19 15 	lds	r17, 0x1519	; 0x801519 <old_trig_c+0x3>
    486e:	20 91 1a 15 	lds	r18, 0x151A	; 0x80151a <old_trig_b>
    4872:	30 91 1b 15 	lds	r19, 0x151B	; 0x80151b <old_trig_b+0x1>
    4876:	40 91 1c 15 	lds	r20, 0x151C	; 0x80151c <old_trig_b+0x2>
    487a:	50 91 1d 15 	lds	r21, 0x151D	; 0x80151d <old_trig_b+0x3>
    487e:	60 91 1e 15 	lds	r22, 0x151E	; 0x80151e <old_trig_a>
    4882:	70 91 1f 15 	lds	r23, 0x151F	; 0x80151f <old_trig_a+0x1>
    4886:	80 91 20 15 	lds	r24, 0x1520	; 0x801520 <old_trig_a+0x2>
    488a:	90 91 21 15 	lds	r25, 0x1521	; 0x801521 <old_trig_a+0x3>
    488e:	c1 2c       	mov	r12, r1
    4890:	d1 2c       	mov	r13, r1
    4892:	0e 94 5d 0f 	call	0x1eba	; 0x1eba <vga_FillTriangle>

00004896 <.L92>:
    4896:	b1 10       	cpse	r11, r1
    4898:	4f c0       	rjmp	.+158    	; 0x4938 <.L90>
    489a:	8b 81       	ldd	r24, Y+3	; 0x03
    489c:	9c 81       	ldd	r25, Y+4	; 0x04
    489e:	89 97       	sbiw	r24, 0x29	; 41
    48a0:	8b 37       	cpi	r24, 0x7B	; 123
    48a2:	91 40       	sbci	r25, 0x01	; 1
    48a4:	08 f0       	brcs	.+2      	; 0x48a8 <L0+0x2>

000048a6 <L0>:
    48a6:	5c c0       	rjmp	.+184    	; 0x4960 <.L94>
    48a8:	8b 80       	ldd	r8, Y+3	; 0x03
    48aa:	9c 80       	ldd	r9, Y+4	; 0x04
    48ac:	85 e0       	ldi	r24, 0x05	; 5
    48ae:	88 1a       	sub	r8, r24
    48b0:	91 08       	sbc	r9, r1
    48b2:	ab 80       	ldd	r10, Y+3	; 0x03
    48b4:	bc 80       	ldd	r11, Y+4	; 0x04
    48b6:	95 e0       	ldi	r25, 0x05	; 5
    48b8:	a9 0e       	add	r10, r25
    48ba:	b1 1c       	adc	r11, r1
    48bc:	04 e1       	ldi	r16, 0x14	; 20
    48be:	10 e0       	ldi	r17, 0x00	; 0

000048c0 <.L95>:
    48c0:	29 81       	ldd	r18, Y+1	; 0x01
    48c2:	3a 81       	ldd	r19, Y+2	; 0x02
    48c4:	45 e0       	ldi	r20, 0x05	; 5
    48c6:	50 e0       	ldi	r21, 0x00	; 0
    48c8:	6b 81       	ldd	r22, Y+3	; 0x03
    48ca:	7c 81       	ldd	r23, Y+4	; 0x04
    48cc:	c8 01       	movw	r24, r16
    48ce:	0e 94 d5 0c 	call	0x19aa	; 0x19aa <vga_drawFastHLine>
    48d2:	06 5f       	subi	r16, 0xF6	; 246
    48d4:	1f 4f       	sbci	r17, 0xFF	; 255
    48d6:	08 30       	cpi	r16, 0x08	; 8
    48d8:	22 e0       	ldi	r18, 0x02	; 2
    48da:	12 07       	cpc	r17, r18
    48dc:	89 f7       	brne	.-30     	; 0x48c0 <.L95>
    48de:	67 e0       	ldi	r22, 0x07	; 7
    48e0:	72 e0       	ldi	r23, 0x02	; 2
    48e2:	c4 01       	movw	r24, r8
    48e4:	9b 01       	movw	r18, r22
    48e6:	a5 01       	movw	r20, r10
    48e8:	f3 2e       	mov	r15, r19
    48ea:	e1 2c       	mov	r14, r1
    48ec:	0b 81       	ldd	r16, Y+3	; 0x03
    48ee:	1c 81       	ldd	r17, Y+4	; 0x04
    48f0:	c9 80       	ldd	r12, Y+1	; 0x01
    48f2:	da 80       	ldd	r13, Y+2	; 0x02
    48f4:	0e 94 5d 0f 	call	0x1eba	; 0x1eba <vga_FillTriangle>
    48f8:	87 e0       	ldi	r24, 0x07	; 7
    48fa:	92 e0       	ldi	r25, 0x02	; 2
    48fc:	80 93 1e 15 	sts	0x151E, r24	; 0x80151e <old_trig_a>
    4900:	90 93 1f 15 	sts	0x151F, r25	; 0x80151f <old_trig_a+0x1>
    4904:	80 92 20 15 	sts	0x1520, r8	; 0x801520 <old_trig_a+0x2>
    4908:	90 92 21 15 	sts	0x1521, r9	; 0x801521 <old_trig_a+0x3>
    490c:	80 93 1a 15 	sts	0x151A, r24	; 0x80151a <old_trig_b>
    4910:	90 93 1b 15 	sts	0x151B, r25	; 0x80151b <old_trig_b+0x1>
    4914:	a0 92 1c 15 	sts	0x151C, r10	; 0x80151c <old_trig_b+0x2>
    4918:	b0 92 1d 15 	sts	0x151D, r11	; 0x80151d <old_trig_b+0x3>
    491c:	10 92 16 15 	sts	0x1516, r1	; 0x801516 <old_trig_c>
    4920:	90 93 17 15 	sts	0x1517, r25	; 0x801517 <old_trig_c+0x1>
    4924:	8b 81       	ldd	r24, Y+3	; 0x03
    4926:	9c 81       	ldd	r25, Y+4	; 0x04
    4928:	80 93 18 15 	sts	0x1518, r24	; 0x801518 <old_trig_c+0x2>
    492c:	90 93 19 15 	sts	0x1519, r25	; 0x801519 <old_trig_c+0x3>

00004930 <.L101>:
    4930:	80 93 0a 01 	sts	0x010A, r24	; 0x80010a <last_trig_y>
    4934:	90 93 0b 01 	sts	0x010B, r25	; 0x80010b <last_trig_y+0x1>

00004938 <.L90>:
    4938:	0f 90       	pop	r0
    493a:	0f 90       	pop	r0
    493c:	0f 90       	pop	r0
    493e:	0f 90       	pop	r0
    4940:	df 91       	pop	r29
    4942:	cf 91       	pop	r28
    4944:	1f 91       	pop	r17
    4946:	0f 91       	pop	r16
    4948:	ff 90       	pop	r15
    494a:	ef 90       	pop	r14
    494c:	df 90       	pop	r13
    494e:	cf 90       	pop	r12
    4950:	bf 90       	pop	r11
    4952:	af 90       	pop	r10
    4954:	9f 90       	pop	r9
    4956:	8f 90       	pop	r8
    4958:	08 95       	ret

0000495a <.L96>:
    495a:	80 e6       	ldi	r24, 0x60	; 96
    495c:	95 e1       	ldi	r25, 0x15	; 21
    495e:	69 cf       	rjmp	.-302    	; 0x4832 <.L91>

00004960 <.L94>:
    4960:	8c e9       	ldi	r24, 0x9C	; 156
    4962:	9f ef       	ldi	r25, 0xFF	; 255
    4964:	e5 cf       	rjmp	.-54     	; 0x4930 <.L101>

00004966 <tft_drawGrid>:
    4966:	cf 92       	push	r12
    4968:	df 92       	push	r13
    496a:	ef 92       	push	r14
    496c:	ff 92       	push	r15
    496e:	0f 93       	push	r16
    4970:	1f 93       	push	r17
    4972:	cf 93       	push	r28
    4974:	df 93       	push	r29
    4976:	00 d0       	rcall	.+0      	; 0x4978 <L0>

00004978 <L0>:
    4978:	00 d0       	rcall	.+0      	; 0x497a <L0>

0000497a <L0>:
    497a:	cd b7       	in	r28, 0x3d	; 61
    497c:	de b7       	in	r29, 0x3e	; 62
    497e:	89 83       	std	Y+1, r24	; 0x01
    4980:	9a 83       	std	Y+2, r25	; 0x02
    4982:	88 e2       	ldi	r24, 0x28	; 40
    4984:	8b 83       	std	Y+3, r24	; 0x03
    4986:	1c 82       	std	Y+4, r1	; 0x04

00004988 <.L105>:
    4988:	8b 81       	ldd	r24, Y+3	; 0x03
    498a:	9c 81       	ldd	r25, Y+4	; 0x04
    498c:	06 e0       	ldi	r16, 0x06	; 6
    498e:	86 3e       	cpi	r24, 0xE6	; 230
    4990:	91 05       	cpc	r25, r1
    4992:	09 f4       	brne	.+2      	; 0x4996 <.L103>
    4994:	02 e0       	ldi	r16, 0x02	; 2

00004996 <.L103>:
    4996:	10 e0       	ldi	r17, 0x00	; 0
    4998:	24 e1       	ldi	r18, 0x14	; 20
    499a:	c2 2e       	mov	r12, r18
    499c:	d1 2c       	mov	r13, r1
    499e:	76 01       	movw	r14, r12

000049a0 <.L104>:
    49a0:	49 81       	ldd	r20, Y+1	; 0x01
    49a2:	5a 81       	ldd	r21, Y+2	; 0x02
    49a4:	6b 81       	ldd	r22, Y+3	; 0x03
    49a6:	7c 81       	ldd	r23, Y+4	; 0x04
    49a8:	c6 01       	movw	r24, r12
    49aa:	0e 94 93 09 	call	0x1326	; 0x1326 <vga_pixel_fast>
    49ae:	e0 0e       	add	r14, r16
    49b0:	f1 1e       	adc	r15, r17
    49b2:	c0 0e       	add	r12, r16
    49b4:	d1 1e       	adc	r13, r17
    49b6:	99 e0       	ldi	r25, 0x09	; 9
    49b8:	e9 16       	cp	r14, r25
    49ba:	92 e0       	ldi	r25, 0x02	; 2
    49bc:	f9 06       	cpc	r15, r25
    49be:	84 f3       	brlt	.-32     	; 0x49a0 <.L104>
    49c0:	8b 81       	ldd	r24, Y+3	; 0x03
    49c2:	9c 81       	ldd	r25, Y+4	; 0x04
    49c4:	86 96       	adiw	r24, 0x26	; 38
    49c6:	8b 83       	std	Y+3, r24	; 0x03
    49c8:	9c 83       	std	Y+4, r25	; 0x04
    49ca:	8a 3c       	cpi	r24, 0xCA	; 202
    49cc:	91 40       	sbci	r25, 0x01	; 1
    49ce:	e1 f6       	brne	.-72     	; 0x4988 <.L105>
    49d0:	84 e1       	ldi	r24, 0x14	; 20
    49d2:	8b 83       	std	Y+3, r24	; 0x03
    49d4:	1c 82       	std	Y+4, r1	; 0x04

000049d6 <.L108>:
    49d6:	8b 81       	ldd	r24, Y+3	; 0x03
    49d8:	9c 81       	ldd	r25, Y+4	; 0x04
    49da:	06 e0       	ldi	r16, 0x06	; 6
    49dc:	8e 30       	cpi	r24, 0x0E	; 14
    49de:	91 40       	sbci	r25, 0x01	; 1
    49e0:	09 f4       	brne	.+2      	; 0x49e4 <.L106>
    49e2:	02 e0       	ldi	r16, 0x02	; 2

000049e4 <.L106>:
    49e4:	10 e0       	ldi	r17, 0x00	; 0
    49e6:	88 e2       	ldi	r24, 0x28	; 40
    49e8:	c8 2e       	mov	r12, r24
    49ea:	d1 2c       	mov	r13, r1
    49ec:	76 01       	movw	r14, r12

000049ee <.L107>:
    49ee:	49 81       	ldd	r20, Y+1	; 0x01
    49f0:	5a 81       	ldd	r21, Y+2	; 0x02
    49f2:	b6 01       	movw	r22, r12
    49f4:	8b 81       	ldd	r24, Y+3	; 0x03
    49f6:	9c 81       	ldd	r25, Y+4	; 0x04
    49f8:	0e 94 93 09 	call	0x1326	; 0x1326 <vga_pixel_fast>
    49fc:	e0 0e       	add	r14, r16
    49fe:	f1 1e       	adc	r15, r17
    4a00:	c0 0e       	add	r12, r16
    4a02:	d1 1e       	adc	r13, r17
    4a04:	85 ea       	ldi	r24, 0xA5	; 165
    4a06:	e8 16       	cp	r14, r24
    4a08:	81 e0       	ldi	r24, 0x01	; 1
    4a0a:	f8 06       	cpc	r15, r24
    4a0c:	84 f3       	brlt	.-32     	; 0x49ee <.L107>
    4a0e:	8b 81       	ldd	r24, Y+3	; 0x03
    4a10:	9c 81       	ldd	r25, Y+4	; 0x04
    4a12:	c2 96       	adiw	r24, 0x32	; 50
    4a14:	8b 83       	std	Y+3, r24	; 0x03
    4a16:	9c 83       	std	Y+4, r25	; 0x04
    4a18:	8a 33       	cpi	r24, 0x3A	; 58
    4a1a:	92 40       	sbci	r25, 0x02	; 2
    4a1c:	e1 f6       	brne	.-72     	; 0x49d6 <.L108>
    4a1e:	0f 90       	pop	r0
    4a20:	0f 90       	pop	r0
    4a22:	0f 90       	pop	r0
    4a24:	0f 90       	pop	r0
    4a26:	df 91       	pop	r29
    4a28:	cf 91       	pop	r28
    4a2a:	1f 91       	pop	r17
    4a2c:	0f 91       	pop	r16
    4a2e:	ff 90       	pop	r15
    4a30:	ef 90       	pop	r14
    4a32:	df 90       	pop	r13
    4a34:	cf 90       	pop	r12
    4a36:	08 95       	ret

00004a38 <tft_drawGrid_XY>:
    4a38:	ef 92       	push	r14
    4a3a:	ff 92       	push	r15
    4a3c:	0f 93       	push	r16
    4a3e:	1f 93       	push	r17
    4a40:	cf 93       	push	r28
    4a42:	df 93       	push	r29
    4a44:	ec 01       	movw	r28, r24
    4a46:	8c 01       	movw	r16, r24
    4a48:	2c e7       	ldi	r18, 0x7C	; 124
    4a4a:	31 e0       	ldi	r19, 0x01	; 1
    4a4c:	a9 01       	movw	r20, r18
    4a4e:	68 e2       	ldi	r22, 0x28	; 40
    4a50:	70 e0       	ldi	r23, 0x00	; 0
    4a52:	80 e5       	ldi	r24, 0x50	; 80
    4a54:	90 e0       	ldi	r25, 0x00	; 0
    4a56:	0e 94 21 0d 	call	0x1a42	; 0x1a42 <vga_drawRect>
    4a5a:	00 e5       	ldi	r16, 0x50	; 80
    4a5c:	10 e0       	ldi	r17, 0x00	; 0

00004a5e <.L116>:
    4a5e:	ae 01       	movw	r20, r28
    4a60:	66 ee       	ldi	r22, 0xE6	; 230
    4a62:	70 e0       	ldi	r23, 0x00	; 0
    4a64:	c8 01       	movw	r24, r16
    4a66:	0e 94 93 09 	call	0x1326	; 0x1326 <vga_pixel_fast>
    4a6a:	0e 5f       	subi	r16, 0xFE	; 254
    4a6c:	1f 4f       	sbci	r17, 0xFF	; 255
    4a6e:	0e 3c       	cpi	r16, 0xCE	; 206
    4a70:	81 e0       	ldi	r24, 0x01	; 1
    4a72:	18 07       	cpc	r17, r24
    4a74:	a1 f7       	brne	.-24     	; 0x4a5e <.L116>
    4a76:	08 e2       	ldi	r16, 0x28	; 40
    4a78:	10 e0       	ldi	r17, 0x00	; 0

00004a7a <.L117>:
    4a7a:	ae 01       	movw	r20, r28
    4a7c:	b8 01       	movw	r22, r16
    4a7e:	8e e0       	ldi	r24, 0x0E	; 14
    4a80:	91 e0       	ldi	r25, 0x01	; 1
    4a82:	0e 94 93 09 	call	0x1326	; 0x1326 <vga_pixel_fast>
    4a86:	0e 5f       	subi	r16, 0xFE	; 254
    4a88:	1f 4f       	sbci	r17, 0xFF	; 255
    4a8a:	06 3a       	cpi	r16, 0xA6	; 166
    4a8c:	81 e0       	ldi	r24, 0x01	; 1
    4a8e:	18 07       	cpc	r17, r24
    4a90:	a1 f7       	brne	.-24     	; 0x4a7a <.L117>
    4a92:	0e e4       	ldi	r16, 0x4E	; 78
    4a94:	10 e0       	ldi	r17, 0x00	; 0

00004a96 <.L120>:
    4a96:	06 3e       	cpi	r16, 0xE6	; 230
    4a98:	11 05       	cpc	r17, r1
    4a9a:	11 f4       	brne	.+4      	; 0x4aa0 <.L118>
    4a9c:	0c e0       	ldi	r16, 0x0C	; 12
    4a9e:	11 e0       	ldi	r17, 0x01	; 1

00004aa0 <.L118>:
    4aa0:	90 e5       	ldi	r25, 0x50	; 80
    4aa2:	e9 2e       	mov	r14, r25
    4aa4:	f1 2c       	mov	r15, r1

00004aa6 <.L119>:
    4aa6:	ae 01       	movw	r20, r28
    4aa8:	b8 01       	movw	r22, r16
    4aaa:	c7 01       	movw	r24, r14
    4aac:	0e 94 93 09 	call	0x1326	; 0x1326 <vga_pixel_fast>
    4ab0:	86 e0       	ldi	r24, 0x06	; 6
    4ab2:	e8 0e       	add	r14, r24
    4ab4:	f1 1c       	adc	r15, r1
    4ab6:	80 ed       	ldi	r24, 0xD0	; 208
    4ab8:	e8 16       	cp	r14, r24
    4aba:	81 e0       	ldi	r24, 0x01	; 1
    4abc:	f8 06       	cpc	r15, r24
    4abe:	99 f7       	brne	.-26     	; 0x4aa6 <.L119>
    4ac0:	0a 5d       	subi	r16, 0xDA	; 218
    4ac2:	1f 4f       	sbci	r17, 0xFF	; 255
    4ac4:	04 3a       	cpi	r16, 0xA4	; 164
    4ac6:	81 e0       	ldi	r24, 0x01	; 1
    4ac8:	18 07       	cpc	r17, r24
    4aca:	29 f7       	brne	.-54     	; 0x4a96 <.L120>
    4acc:	06 e7       	ldi	r16, 0x76	; 118
    4ace:	10 e0       	ldi	r17, 0x00	; 0

00004ad0 <.L123>:
    4ad0:	0e 30       	cpi	r16, 0x0E	; 14
    4ad2:	81 e0       	ldi	r24, 0x01	; 1
    4ad4:	18 07       	cpc	r17, r24
    4ad6:	11 f4       	brne	.+4      	; 0x4adc <.L121>
    4ad8:	04 e3       	ldi	r16, 0x34	; 52
    4ada:	11 e0       	ldi	r17, 0x01	; 1

00004adc <.L121>:
    4adc:	88 e2       	ldi	r24, 0x28	; 40
    4ade:	e8 2e       	mov	r14, r24
    4ae0:	f1 2c       	mov	r15, r1

00004ae2 <.L122>:
    4ae2:	ae 01       	movw	r20, r28
    4ae4:	b7 01       	movw	r22, r14
    4ae6:	c8 01       	movw	r24, r16
    4ae8:	0e 94 93 09 	call	0x1326	; 0x1326 <vga_pixel_fast>
    4aec:	86 e0       	ldi	r24, 0x06	; 6
    4aee:	e8 0e       	add	r14, r24
    4af0:	f1 1c       	adc	r15, r1
    4af2:	88 ea       	ldi	r24, 0xA8	; 168
    4af4:	e8 16       	cp	r14, r24
    4af6:	81 e0       	ldi	r24, 0x01	; 1
    4af8:	f8 06       	cpc	r15, r24
    4afa:	99 f7       	brne	.-26     	; 0x4ae2 <.L122>
    4afc:	0a 5d       	subi	r16, 0xDA	; 218
    4afe:	1f 4f       	sbci	r17, 0xFF	; 255
    4b00:	0c 3c       	cpi	r16, 0xCC	; 204
    4b02:	81 e0       	ldi	r24, 0x01	; 1
    4b04:	18 07       	cpc	r17, r24
    4b06:	21 f7       	brne	.-56     	; 0x4ad0 <.L123>
    4b08:	df 91       	pop	r29
    4b0a:	cf 91       	pop	r28
    4b0c:	1f 91       	pop	r17
    4b0e:	0f 91       	pop	r16
    4b10:	ff 90       	pop	r15
    4b12:	ef 90       	pop	r14
    4b14:	08 95       	ret

00004b16 <drawPanTrack>:
    4b16:	8f 92       	push	r8
    4b18:	9f 92       	push	r9
    4b1a:	af 92       	push	r10
    4b1c:	bf 92       	push	r11
    4b1e:	cf 92       	push	r12
    4b20:	df 92       	push	r13
    4b22:	ef 92       	push	r14
    4b24:	ff 92       	push	r15
    4b26:	0f 93       	push	r16
    4b28:	1f 93       	push	r17
    4b2a:	cf 93       	push	r28
    4b2c:	df 93       	push	r29
    4b2e:	a0 90 c5 04 	lds	r10, 0x04C5	; 0x8004c5 <view_offset>
    4b32:	b0 90 c6 04 	lds	r11, 0x04C6	; 0x8004c6 <view_offset+0x1>
    4b36:	cf e0       	ldi	r28, 0x0F	; 15
    4b38:	d1 e0       	ldi	r29, 0x01	; 1
    4b3a:	ca 19       	sub	r28, r10
    4b3c:	db 09       	sbc	r29, r11
    4b3e:	2a e0       	ldi	r18, 0x0A	; 10
    4b40:	31 e0       	ldi	r19, 0x01	; 1
    4b42:	49 01       	movw	r8, r18
    4b44:	8a 18       	sub	r8, r10
    4b46:	9b 08       	sbc	r9, r11
    4b48:	24 e1       	ldi	r18, 0x14	; 20
    4b4a:	c9 01       	movw	r24, r18
    4b4c:	8a 19       	sub	r24, r10
    4b4e:	9b 09       	sbc	r25, r11
    4b50:	5c 01       	movw	r10, r24
    4b52:	80 91 5e 15 	lds	r24, 0x155E	; 0x80155e <pan_flag>
    4b56:	81 15       	cp	r24, r1
    4b58:	b1 f1       	breq	.+108    	; 0x4bc6 <.L131>
    4b5a:	e0 90 6a 05 	lds	r14, 0x056A	; 0x80056a <old_c>
    4b5e:	f0 90 6b 05 	lds	r15, 0x056B	; 0x80056b <old_c+0x1>
    4b62:	00 91 6c 05 	lds	r16, 0x056C	; 0x80056c <old_c+0x2>
    4b66:	10 91 6d 05 	lds	r17, 0x056D	; 0x80056d <old_c+0x3>
    4b6a:	20 91 6e 05 	lds	r18, 0x056E	; 0x80056e <old_b>
    4b6e:	30 91 6f 05 	lds	r19, 0x056F	; 0x80056f <old_b+0x1>
    4b72:	40 91 70 05 	lds	r20, 0x0570	; 0x800570 <old_b+0x2>
    4b76:	50 91 71 05 	lds	r21, 0x0571	; 0x800571 <old_b+0x3>
    4b7a:	60 91 72 05 	lds	r22, 0x0572	; 0x800572 <old_a>
    4b7e:	70 91 73 05 	lds	r23, 0x0573	; 0x800573 <old_a+0x1>
    4b82:	80 91 74 05 	lds	r24, 0x0574	; 0x800574 <old_a+0x2>
    4b86:	90 91 75 05 	lds	r25, 0x0575	; 0x800575 <old_a+0x3>
    4b8a:	c1 2c       	mov	r12, r1
    4b8c:	d1 2c       	mov	r13, r1
    4b8e:	0e 94 5d 0f 	call	0x1eba	; 0x1eba <vga_FillTriangle>
    4b92:	80 92 72 05 	sts	0x0572, r8	; 0x800572 <old_a>
    4b96:	90 92 73 05 	sts	0x0573, r9	; 0x800573 <old_a+0x1>
    4b9a:	88 e2       	ldi	r24, 0x28	; 40
    4b9c:	80 93 74 05 	sts	0x0574, r24	; 0x800574 <old_a+0x2>
    4ba0:	10 92 75 05 	sts	0x0575, r1	; 0x800575 <old_a+0x3>
    4ba4:	a0 92 6e 05 	sts	0x056E, r10	; 0x80056e <old_b>
    4ba8:	b0 92 6f 05 	sts	0x056F, r11	; 0x80056f <old_b+0x1>
    4bac:	80 93 70 05 	sts	0x0570, r24	; 0x800570 <old_b+0x2>
    4bb0:	10 92 71 05 	sts	0x0571, r1	; 0x800571 <old_b+0x3>
    4bb4:	c0 93 6a 05 	sts	0x056A, r28	; 0x80056a <old_c>
    4bb8:	d0 93 6b 05 	sts	0x056B, r29	; 0x80056b <old_c+0x1>
    4bbc:	82 e3       	ldi	r24, 0x32	; 50
    4bbe:	80 93 6c 05 	sts	0x056C, r24	; 0x80056c <old_c+0x2>
    4bc2:	10 92 6d 05 	sts	0x056D, r1	; 0x80056d <old_c+0x3>

00004bc6 <.L131>:
    4bc6:	b4 01       	movw	r22, r8
    4bc8:	88 e2       	ldi	r24, 0x28	; 40
    4bca:	90 e0       	ldi	r25, 0x00	; 0
    4bcc:	95 01       	movw	r18, r10
    4bce:	ac 01       	movw	r20, r24
    4bd0:	7e 01       	movw	r14, r28
    4bd2:	02 e3       	ldi	r16, 0x32	; 50
    4bd4:	10 e0       	ldi	r17, 0x00	; 0
    4bd6:	ef ef       	ldi	r30, 0xFF	; 255
    4bd8:	ce 2e       	mov	r12, r30
    4bda:	e1 e0       	ldi	r30, 0x01	; 1
    4bdc:	de 2e       	mov	r13, r30
    4bde:	0e 94 5d 0f 	call	0x1eba	; 0x1eba <vga_FillTriangle>
    4be2:	df 91       	pop	r29
    4be4:	cf 91       	pop	r28
    4be6:	1f 91       	pop	r17
    4be8:	0f 91       	pop	r16
    4bea:	ff 90       	pop	r15
    4bec:	ef 90       	pop	r14
    4bee:	df 90       	pop	r13
    4bf0:	cf 90       	pop	r12
    4bf2:	bf 90       	pop	r11
    4bf4:	af 90       	pop	r10
    4bf6:	9f 90       	pop	r9
    4bf8:	8f 90       	pop	r8
    4bfa:	08 95       	ret

00004bfc <calcola_step_trigger>:
    4bfc:	cf 93       	push	r28
    4bfe:	df 93       	push	r29
    4c00:	00 d0       	rcall	.+0      	; 0x4c02 <L0>

00004c02 <L0>:
    4c02:	00 d0       	rcall	.+0      	; 0x4c04 <L0>

00004c04 <L0>:
    4c04:	cd b7       	in	r28, 0x3d	; 61
    4c06:	de b7       	in	r29, 0x3e	; 62
    4c08:	69 83       	std	Y+1, r22	; 0x01
    4c0a:	7a 83       	std	Y+2, r23	; 0x02
    4c0c:	8b 83       	std	Y+3, r24	; 0x03
    4c0e:	9c 83       	std	Y+4, r25	; 0x04
    4c10:	21 e3       	ldi	r18, 0x31	; 49
    4c12:	38 e0       	ldi	r19, 0x08	; 8
    4c14:	4c ea       	ldi	r20, 0xAC	; 172
    4c16:	5c e3       	ldi	r21, 0x3C	; 60
    4c18:	0e 94 14 33 	call	0x6628	; 0x6628 <__cmpsf2>
    4c1c:	18 16       	cp	r1, r24
    4c1e:	0c f0       	brlt	.+2      	; 0x4c22 <L0+0x2>

00004c20 <L0>:
    4c20:	60 c0       	rjmp	.+192    	; 0x4ce2 <.L3>
    4c22:	20 e6       	ldi	r18, 0x60	; 96
    4c24:	35 ee       	ldi	r19, 0xE5	; 229
    4c26:	40 e5       	ldi	r20, 0x50	; 80
    4c28:	5d e3       	ldi	r21, 0x3D	; 61
    4c2a:	69 81       	ldd	r22, Y+1	; 0x01
    4c2c:	7a 81       	ldd	r23, Y+2	; 0x02
    4c2e:	8b 81       	ldd	r24, Y+3	; 0x03
    4c30:	9c 81       	ldd	r25, Y+4	; 0x04
    4c32:	0e 94 14 33 	call	0x6628	; 0x6628 <__cmpsf2>
    4c36:	18 16       	cp	r1, r24
    4c38:	0c f0       	brlt	.+2      	; 0x4c3c <L0+0x2>

00004c3a <L0>:
    4c3a:	56 c0       	rjmp	.+172    	; 0x4ce8 <.L4>
    4c3c:	2e ea       	ldi	r18, 0xAE	; 174
    4c3e:	37 e4       	ldi	r19, 0x47	; 71
    4c40:	41 ee       	ldi	r20, 0xE1	; 225
    4c42:	5d e3       	ldi	r21, 0x3D	; 61
    4c44:	69 81       	ldd	r22, Y+1	; 0x01
    4c46:	7a 81       	ldd	r23, Y+2	; 0x02
    4c48:	8b 81       	ldd	r24, Y+3	; 0x03
    4c4a:	9c 81       	ldd	r25, Y+4	; 0x04
    4c4c:	0e 94 14 33 	call	0x6628	; 0x6628 <__cmpsf2>
    4c50:	18 16       	cp	r1, r24
    4c52:	0c f0       	brlt	.+2      	; 0x4c56 <L0+0x2>

00004c54 <L0>:
    4c54:	4c c0       	rjmp	.+152    	; 0x4cee <.L5>
    4c56:	2d e3       	ldi	r18, 0x3D	; 61
    4c58:	3a e0       	ldi	r19, 0x0A	; 10
    4c5a:	47 e5       	ldi	r20, 0x57	; 87
    4c5c:	5e e3       	ldi	r21, 0x3E	; 62
    4c5e:	69 81       	ldd	r22, Y+1	; 0x01
    4c60:	7a 81       	ldd	r23, Y+2	; 0x02
    4c62:	8b 81       	ldd	r24, Y+3	; 0x03
    4c64:	9c 81       	ldd	r25, Y+4	; 0x04
    4c66:	0e 94 14 33 	call	0x6628	; 0x6628 <__cmpsf2>
    4c6a:	18 16       	cp	r1, r24
    4c6c:	0c f0       	brlt	.+2      	; 0x4c70 <L0+0x2>

00004c6e <L0>:
    4c6e:	42 c0       	rjmp	.+132    	; 0x4cf4 <.L6>
    4c70:	2c e5       	ldi	r18, 0x5C	; 92
    4c72:	3f e8       	ldi	r19, 0x8F	; 143
    4c74:	42 e0       	ldi	r20, 0x02	; 2
    4c76:	5f e3       	ldi	r21, 0x3F	; 63
    4c78:	69 81       	ldd	r22, Y+1	; 0x01
    4c7a:	7a 81       	ldd	r23, Y+2	; 0x02
    4c7c:	8b 81       	ldd	r24, Y+3	; 0x03
    4c7e:	9c 81       	ldd	r25, Y+4	; 0x04
    4c80:	0e 94 14 33 	call	0x6628	; 0x6628 <__cmpsf2>
    4c84:	18 16       	cp	r1, r24
    4c86:	cc f5       	brge	.+114    	; 0x4cfa <.L7>
    4c88:	2d ec       	ldi	r18, 0xCD	; 205
    4c8a:	3c ec       	ldi	r19, 0xCC	; 204
    4c8c:	4c e8       	ldi	r20, 0x8C	; 140
    4c8e:	5f e3       	ldi	r21, 0x3F	; 63
    4c90:	69 81       	ldd	r22, Y+1	; 0x01
    4c92:	7a 81       	ldd	r23, Y+2	; 0x02
    4c94:	8b 81       	ldd	r24, Y+3	; 0x03
    4c96:	9c 81       	ldd	r25, Y+4	; 0x04
    4c98:	0e 94 14 33 	call	0x6628	; 0x6628 <__cmpsf2>
    4c9c:	18 16       	cp	r1, r24
    4c9e:	84 f5       	brge	.+96     	; 0x4d00 <.L8>
    4ca0:	26 e6       	ldi	r18, 0x66	; 102
    4ca2:	36 e6       	ldi	r19, 0x66	; 102
    4ca4:	46 e0       	ldi	r20, 0x06	; 6
    4ca6:	50 e4       	ldi	r21, 0x40	; 64
    4ca8:	69 81       	ldd	r22, Y+1	; 0x01
    4caa:	7a 81       	ldd	r23, Y+2	; 0x02
    4cac:	8b 81       	ldd	r24, Y+3	; 0x03
    4cae:	9c 81       	ldd	r25, Y+4	; 0x04
    4cb0:	0e 94 14 33 	call	0x6628	; 0x6628 <__cmpsf2>
    4cb4:	18 16       	cp	r1, r24
    4cb6:	3c f5       	brge	.+78     	; 0x4d06 <.L9>
    4cb8:	23 e3       	ldi	r18, 0x33	; 51
    4cba:	33 e3       	ldi	r19, 0x33	; 51
    4cbc:	43 ea       	ldi	r20, 0xA3	; 163
    4cbe:	50 e4       	ldi	r21, 0x40	; 64
    4cc0:	69 81       	ldd	r22, Y+1	; 0x01
    4cc2:	7a 81       	ldd	r23, Y+2	; 0x02
    4cc4:	8b 81       	ldd	r24, Y+3	; 0x03
    4cc6:	9c 81       	ldd	r25, Y+4	; 0x04
    4cc8:	0e 94 14 33 	call	0x6628	; 0x6628 <__cmpsf2>
    4ccc:	18 16       	cp	r1, r24
    4cce:	f4 f4       	brge	.+60     	; 0x4d0c <.L10>
    4cd0:	80 e2       	ldi	r24, 0x20	; 32
    4cd2:	93 e0       	ldi	r25, 0x03	; 3

00004cd4 <.L1>:
    4cd4:	0f 90       	pop	r0
    4cd6:	0f 90       	pop	r0
    4cd8:	0f 90       	pop	r0
    4cda:	0f 90       	pop	r0
    4cdc:	df 91       	pop	r29
    4cde:	cf 91       	pop	r28
    4ce0:	08 95       	ret

00004ce2 <.L3>:
    4ce2:	81 e0       	ldi	r24, 0x01	; 1
    4ce4:	90 e0       	ldi	r25, 0x00	; 0
    4ce6:	f6 cf       	rjmp	.-20     	; 0x4cd4 <.L1>

00004ce8 <.L4>:
    4ce8:	84 e0       	ldi	r24, 0x04	; 4
    4cea:	90 e0       	ldi	r25, 0x00	; 0
    4cec:	f3 cf       	rjmp	.-26     	; 0x4cd4 <.L1>

00004cee <.L5>:
    4cee:	88 e0       	ldi	r24, 0x08	; 8
    4cf0:	90 e0       	ldi	r25, 0x00	; 0
    4cf2:	f0 cf       	rjmp	.-32     	; 0x4cd4 <.L1>

00004cf4 <.L6>:
    4cf4:	80 e1       	ldi	r24, 0x10	; 16
    4cf6:	90 e0       	ldi	r25, 0x00	; 0
    4cf8:	ed cf       	rjmp	.-38     	; 0x4cd4 <.L1>

00004cfa <.L7>:
    4cfa:	88 e2       	ldi	r24, 0x28	; 40
    4cfc:	90 e0       	ldi	r25, 0x00	; 0
    4cfe:	ea cf       	rjmp	.-44     	; 0x4cd4 <.L1>

00004d00 <.L8>:
    4d00:	80 e5       	ldi	r24, 0x50	; 80
    4d02:	90 e0       	ldi	r25, 0x00	; 0
    4d04:	e7 cf       	rjmp	.-50     	; 0x4cd4 <.L1>

00004d06 <.L9>:
    4d06:	80 ea       	ldi	r24, 0xA0	; 160
    4d08:	90 e0       	ldi	r25, 0x00	; 0
    4d0a:	e4 cf       	rjmp	.-56     	; 0x4cd4 <.L1>

00004d0c <.L10>:
    4d0c:	80 e9       	ldi	r24, 0x90	; 144
    4d0e:	91 e0       	ldi	r25, 0x01	; 1
    4d10:	e1 cf       	rjmp	.-62     	; 0x4cd4 <.L1>

00004d12 <scope_set_hysteresis>:
    4d12:	80 93 1e 50 	sts	0x501E, r24	; 0x80501e <__stack+0xf1f>
    4d16:	08 95       	ret

00004d18 <format_val_unit>:
    4d18:	8f 92       	push	r8
    4d1a:	9f 92       	push	r9
    4d1c:	af 92       	push	r10
    4d1e:	bf 92       	push	r11
    4d20:	df 92       	push	r13
    4d22:	ef 92       	push	r14
    4d24:	ff 92       	push	r15
    4d26:	0f 93       	push	r16
    4d28:	1f 93       	push	r17
    4d2a:	cf 93       	push	r28
    4d2c:	df 93       	push	r29
    4d2e:	cd b7       	in	r28, 0x3d	; 61
    4d30:	de b7       	in	r29, 0x3e	; 62
    4d32:	6a 97       	sbiw	r28, 0x1a	; 26
    4d34:	0f b6       	in	r0, 0x3f	; 63
    4d36:	f8 94       	cli
    4d38:	de bf       	out	0x3e, r29	; 62
    4d3a:	0f be       	out	0x3f, r0	; 63
    4d3c:	cd bf       	out	0x3d, r28	; 61
    4d3e:	7c 01       	movw	r14, r24
    4d40:	4a 01       	movw	r8, r20
    4d42:	5b 01       	movw	r10, r22
    4d44:	d2 2e       	mov	r13, r18
    4d46:	09 8f       	std	Y+25, r16	; 0x19
    4d48:	1a 8f       	std	Y+26, r17	; 0x1a
    4d4a:	40 e0       	ldi	r20, 0x00	; 0
    4d4c:	50 e0       	ldi	r21, 0x00	; 0
    4d4e:	9a 01       	movw	r18, r20
    4d50:	b4 01       	movw	r22, r8
    4d52:	c5 01       	movw	r24, r10
    4d54:	0e 94 14 33 	call	0x6628	; 0x6628 <__cmpsf2>
    4d58:	87 ff       	sbrs	r24, 7
    4d5a:	ce c0       	rjmp	.+412    	; 0x4ef8 <.L30>
    4d5c:	b7 fa       	bst	r11, 7
    4d5e:	b0 94       	com	r11
    4d60:	b7 f8       	bld	r11, 7
    4d62:	b0 94       	com	r11
    4d64:	d1 10       	cpse	r13, r1
    4d66:	cb c0       	rjmp	.+406    	; 0x4efe <.L4>
    4d68:	c7 01       	movw	r24, r14
    4d6a:	01 96       	adiw	r24, 0x01	; 1
    4d6c:	2d e2       	ldi	r18, 0x2D	; 45

00004d6e <.L5>:
    4d6e:	f7 01       	movw	r30, r14
    4d70:	20 83       	st	Z, r18
    4d72:	7c 01       	movw	r14, r24
    4d74:	19 c0       	rjmp	.+50     	; 0x4da8 <.L8>

00004d76 <.L21>:
    4d76:	40 e0       	ldi	r20, 0x00	; 0
    4d78:	50 e0       	ldi	r21, 0x00	; 0
    4d7a:	9a 01       	movw	r18, r20
    4d7c:	b4 01       	movw	r22, r8
    4d7e:	c5 01       	movw	r24, r10
    4d80:	0e 94 c7 34 	call	0x698e	; 0x698e <__gesf2>
    4d84:	18 16       	cp	r1, r24
    4d86:	24 f4       	brge	.+8      	; 0x4d90 <.L31>
    4d88:	c7 01       	movw	r24, r14
    4d8a:	01 96       	adiw	r24, 0x01	; 1
    4d8c:	2b e2       	ldi	r18, 0x2B	; 43
    4d8e:	ef cf       	rjmp	.-34     	; 0x4d6e <.L5>

00004d90 <.L31>:
    4d90:	40 e0       	ldi	r20, 0x00	; 0
    4d92:	50 e0       	ldi	r21, 0x00	; 0
    4d94:	9a 01       	movw	r18, r20
    4d96:	b4 01       	movw	r22, r8
    4d98:	c5 01       	movw	r24, r10
    4d9a:	0e 94 14 33 	call	0x6628	; 0x6628 <__cmpsf2>
    4d9e:	62 ef       	ldi	r22, 0xF2	; 242
    4da0:	73 e0       	ldi	r23, 0x03	; 3
    4da2:	81 15       	cp	r24, r1
    4da4:	09 f4       	brne	.+2      	; 0x4da8 <.L8>

00004da6 <L0>:
    4da6:	81 c0       	rjmp	.+258    	; 0x4eaa <.L38>

00004da8 <.L8>:
    4da8:	2d eb       	ldi	r18, 0xBD	; 189
    4daa:	37 e3       	ldi	r19, 0x37	; 55
    4dac:	46 e8       	ldi	r20, 0x86	; 134
    4dae:	55 e3       	ldi	r21, 0x35	; 53
    4db0:	b4 01       	movw	r22, r8
    4db2:	c5 01       	movw	r24, r10
    4db4:	0e 94 14 33 	call	0x6628	; 0x6628 <__cmpsf2>
    4db8:	87 ff       	sbrs	r24, 7
    4dba:	2d c0       	rjmp	.+90     	; 0x4e16 <.L32>
    4dbc:	28 e2       	ldi	r18, 0x28	; 40
    4dbe:	3b e6       	ldi	r19, 0x6B	; 107
    4dc0:	4e e6       	ldi	r20, 0x6E	; 110
    4dc2:	5e e4       	ldi	r21, 0x4E	; 78
    4dc4:	b4 01       	movw	r22, r8
    4dc6:	c5 01       	movw	r24, r10
    4dc8:	0e 94 cc 34 	call	0x6998	; 0x6998 <__mulsf3>
    4dcc:	8e 01       	movw	r16, r28
    4dce:	0f 5f       	subi	r16, 0xFF	; 255
    4dd0:	1f 4f       	sbci	r17, 0xFF	; 255
    4dd2:	20 e0       	ldi	r18, 0x00	; 0
    4dd4:	41 e0       	ldi	r20, 0x01	; 1
    4dd6:	0e 94 94 35 	call	0x6b28	; 0x6b28 <ftostrf>
    4dda:	b8 01       	movw	r22, r16
    4ddc:	c7 01       	movw	r24, r14
    4dde:	0e 94 69 13 	call	0x26d2	; 0x26d2 <append_str>
    4de2:	67 ef       	ldi	r22, 0xF7	; 247
    4de4:	73 e0       	ldi	r23, 0x03	; 3

00004de6 <.L39>:
    4de6:	0e 94 69 13 	call	0x26d2	; 0x26d2 <append_str>
    4dea:	69 8d       	ldd	r22, Y+25	; 0x19
    4dec:	7a 8d       	ldd	r23, Y+26	; 0x1a
    4dee:	0e 94 69 13 	call	0x26d2	; 0x26d2 <append_str>
    4df2:	6a 96       	adiw	r28, 0x1a	; 26
    4df4:	0f b6       	in	r0, 0x3f	; 63
    4df6:	f8 94       	cli
    4df8:	de bf       	out	0x3e, r29	; 62
    4dfa:	0f be       	out	0x3f, r0	; 63
    4dfc:	cd bf       	out	0x3d, r28	; 61
    4dfe:	df 91       	pop	r29
    4e00:	cf 91       	pop	r28
    4e02:	1f 91       	pop	r17
    4e04:	0f 91       	pop	r16
    4e06:	ff 90       	pop	r15
    4e08:	ef 90       	pop	r14
    4e0a:	df 90       	pop	r13
    4e0c:	bf 90       	pop	r11
    4e0e:	af 90       	pop	r10
    4e10:	9f 90       	pop	r9
    4e12:	8f 90       	pop	r8
    4e14:	08 95       	ret

00004e16 <.L32>:
    4e16:	28 ea       	ldi	r18, 0xA8	; 168
    4e18:	31 e0       	ldi	r19, 0x01	; 1
    4e1a:	43 e8       	ldi	r20, 0x83	; 131
    4e1c:	5a e3       	ldi	r21, 0x3A	; 58
    4e1e:	b4 01       	movw	r22, r8
    4e20:	c5 01       	movw	r24, r10
    4e22:	0e 94 14 33 	call	0x6628	; 0x6628 <__cmpsf2>
    4e26:	87 ff       	sbrs	r24, 7
    4e28:	16 c0       	rjmp	.+44     	; 0x4e56 <.L33>
    4e2a:	20 e0       	ldi	r18, 0x00	; 0
    4e2c:	34 e2       	ldi	r19, 0x24	; 36
    4e2e:	44 e7       	ldi	r20, 0x74	; 116
    4e30:	59 e4       	ldi	r21, 0x49	; 73
    4e32:	b4 01       	movw	r22, r8
    4e34:	c5 01       	movw	r24, r10
    4e36:	0e 94 cc 34 	call	0x6998	; 0x6998 <__mulsf3>
    4e3a:	8e 01       	movw	r16, r28
    4e3c:	0f 5f       	subi	r16, 0xFF	; 255
    4e3e:	1f 4f       	sbci	r17, 0xFF	; 255
    4e40:	22 e0       	ldi	r18, 0x02	; 2
    4e42:	41 e0       	ldi	r20, 0x01	; 1
    4e44:	0e 94 94 35 	call	0x6b28	; 0x6b28 <ftostrf>
    4e48:	b8 01       	movw	r22, r16
    4e4a:	c7 01       	movw	r24, r14
    4e4c:	0e 94 69 13 	call	0x26d2	; 0x26d2 <append_str>
    4e50:	69 ef       	ldi	r22, 0xF9	; 249
    4e52:	73 e0       	ldi	r23, 0x03	; 3
    4e54:	c8 cf       	rjmp	.-112    	; 0x4de6 <.L39>

00004e56 <.L33>:
    4e56:	2b e3       	ldi	r18, 0x3B	; 59
    4e58:	3f ed       	ldi	r19, 0xDF	; 223
    4e5a:	4f e7       	ldi	r20, 0x7F	; 127
    4e5c:	5f e3       	ldi	r21, 0x3F	; 63
    4e5e:	b4 01       	movw	r22, r8
    4e60:	c5 01       	movw	r24, r10
    4e62:	0e 94 14 33 	call	0x6628	; 0x6628 <__cmpsf2>
    4e66:	87 ff       	sbrs	r24, 7
    4e68:	16 c0       	rjmp	.+44     	; 0x4e96 <.L34>
    4e6a:	20 e0       	ldi	r18, 0x00	; 0
    4e6c:	30 e0       	ldi	r19, 0x00	; 0
    4e6e:	4a e7       	ldi	r20, 0x7A	; 122
    4e70:	54 e4       	ldi	r21, 0x44	; 68
    4e72:	b4 01       	movw	r22, r8
    4e74:	c5 01       	movw	r24, r10
    4e76:	0e 94 cc 34 	call	0x6998	; 0x6998 <__mulsf3>
    4e7a:	8e 01       	movw	r16, r28
    4e7c:	0f 5f       	subi	r16, 0xFF	; 255
    4e7e:	1f 4f       	sbci	r17, 0xFF	; 255
    4e80:	22 e0       	ldi	r18, 0x02	; 2
    4e82:	41 e0       	ldi	r20, 0x01	; 1
    4e84:	0e 94 94 35 	call	0x6b28	; 0x6b28 <ftostrf>
    4e88:	b8 01       	movw	r22, r16
    4e8a:	c7 01       	movw	r24, r14
    4e8c:	0e 94 69 13 	call	0x26d2	; 0x26d2 <append_str>
    4e90:	6b ef       	ldi	r22, 0xFB	; 251
    4e92:	73 e0       	ldi	r23, 0x03	; 3
    4e94:	a8 cf       	rjmp	.-176    	; 0x4de6 <.L39>

00004e96 <.L34>:
    4e96:	8e 01       	movw	r16, r28
    4e98:	0f 5f       	subi	r16, 0xFF	; 255
    4e9a:	1f 4f       	sbci	r17, 0xFF	; 255
    4e9c:	22 e0       	ldi	r18, 0x02	; 2

00004e9e <.L40>:
    4e9e:	41 e0       	ldi	r20, 0x01	; 1
    4ea0:	b4 01       	movw	r22, r8
    4ea2:	c5 01       	movw	r24, r10
    4ea4:	0e 94 94 35 	call	0x6b28	; 0x6b28 <ftostrf>
    4ea8:	b8 01       	movw	r22, r16

00004eaa <.L38>:
    4eaa:	c7 01       	movw	r24, r14
    4eac:	9c cf       	rjmp	.-200    	; 0x4de6 <.L39>

00004eae <.L35>:
    4eae:	20 e0       	ldi	r18, 0x00	; 0
    4eb0:	30 ee       	ldi	r19, 0xE0	; 224
    4eb2:	49 e7       	ldi	r20, 0x79	; 121
    4eb4:	54 e4       	ldi	r21, 0x44	; 68
    4eb6:	b4 01       	movw	r22, r8
    4eb8:	c5 01       	movw	r24, r10
    4eba:	0e 94 c7 34 	call	0x698e	; 0x698e <__gesf2>
    4ebe:	87 fd       	sbrc	r24, 7
    4ec0:	16 c0       	rjmp	.+44     	; 0x4eee <.L36>
    4ec2:	20 e0       	ldi	r18, 0x00	; 0
    4ec4:	30 e0       	ldi	r19, 0x00	; 0
    4ec6:	4a e7       	ldi	r20, 0x7A	; 122
    4ec8:	54 e4       	ldi	r21, 0x44	; 68
    4eca:	b4 01       	movw	r22, r8
    4ecc:	c5 01       	movw	r24, r10
    4ece:	0e 94 19 33 	call	0x6632	; 0x6632 <__divsf3>
    4ed2:	8e 01       	movw	r16, r28
    4ed4:	0f 5f       	subi	r16, 0xFF	; 255
    4ed6:	1f 4f       	sbci	r17, 0xFF	; 255
    4ed8:	21 e0       	ldi	r18, 0x01	; 1
    4eda:	41 e0       	ldi	r20, 0x01	; 1
    4edc:	0e 94 94 35 	call	0x6b28	; 0x6b28 <ftostrf>
    4ee0:	b8 01       	movw	r22, r16
    4ee2:	c7 01       	movw	r24, r14
    4ee4:	0e 94 69 13 	call	0x26d2	; 0x26d2 <append_str>
    4ee8:	6d ef       	ldi	r22, 0xFD	; 253
    4eea:	73 e0       	ldi	r23, 0x03	; 3
    4eec:	7c cf       	rjmp	.-264    	; 0x4de6 <.L39>

00004eee <.L36>:
    4eee:	8e 01       	movw	r16, r28
    4ef0:	0f 5f       	subi	r16, 0xFF	; 255
    4ef2:	1f 4f       	sbci	r17, 0xFF	; 255
    4ef4:	21 e0       	ldi	r18, 0x01	; 1
    4ef6:	d3 cf       	rjmp	.-90     	; 0x4e9e <.L40>

00004ef8 <.L30>:
    4ef8:	d1 14       	cp	r13, r1
    4efa:	09 f4       	brne	.+2      	; 0x4efe <.L4>

00004efc <L0>:
    4efc:	3c cf       	rjmp	.-392    	; 0x4d76 <.L21>

00004efe <.L4>:
    4efe:	20 ec       	ldi	r18, 0xC0	; 192
    4f00:	34 e0       	ldi	r19, 0x04	; 4
    4f02:	44 e7       	ldi	r20, 0x74	; 116
    4f04:	59 e4       	ldi	r21, 0x49	; 73
    4f06:	b4 01       	movw	r22, r8
    4f08:	c5 01       	movw	r24, r10
    4f0a:	0e 94 c7 34 	call	0x698e	; 0x698e <__gesf2>
    4f0e:	87 fd       	sbrc	r24, 7
    4f10:	ce cf       	rjmp	.-100    	; 0x4eae <.L35>
    4f12:	20 e0       	ldi	r18, 0x00	; 0
    4f14:	34 e2       	ldi	r19, 0x24	; 36
    4f16:	44 e7       	ldi	r20, 0x74	; 116
    4f18:	59 e4       	ldi	r21, 0x49	; 73
    4f1a:	b4 01       	movw	r22, r8
    4f1c:	c5 01       	movw	r24, r10
    4f1e:	0e 94 19 33 	call	0x6632	; 0x6632 <__divsf3>
    4f22:	8e 01       	movw	r16, r28
    4f24:	0f 5f       	subi	r16, 0xFF	; 255
    4f26:	1f 4f       	sbci	r17, 0xFF	; 255
    4f28:	21 e0       	ldi	r18, 0x01	; 1
    4f2a:	41 e0       	ldi	r20, 0x01	; 1
    4f2c:	0e 94 94 35 	call	0x6b28	; 0x6b28 <ftostrf>
    4f30:	b8 01       	movw	r22, r16
    4f32:	c7 01       	movw	r24, r14
    4f34:	0e 94 69 13 	call	0x26d2	; 0x26d2 <append_str>
    4f38:	68 e0       	ldi	r22, 0x08	; 8
    4f3a:	74 e0       	ldi	r23, 0x04	; 4
    4f3c:	54 cf       	rjmp	.-344    	; 0x4de6 <.L39>

00004f3e <calcola_e_stampa_dati_cursori>:
    4f3e:	2f 92       	push	r2
    4f40:	3f 92       	push	r3
    4f42:	4f 92       	push	r4
    4f44:	5f 92       	push	r5
    4f46:	6f 92       	push	r6
    4f48:	7f 92       	push	r7
    4f4a:	8f 92       	push	r8
    4f4c:	9f 92       	push	r9
    4f4e:	af 92       	push	r10
    4f50:	bf 92       	push	r11
    4f52:	cf 92       	push	r12
    4f54:	df 92       	push	r13
    4f56:	ef 92       	push	r14
    4f58:	ff 92       	push	r15
    4f5a:	0f 93       	push	r16
    4f5c:	1f 93       	push	r17
    4f5e:	cf 93       	push	r28
    4f60:	df 93       	push	r29
    4f62:	cd b7       	in	r28, 0x3d	; 61
    4f64:	de b7       	in	r29, 0x3e	; 62
    4f66:	c4 56       	subi	r28, 0x64	; 100
    4f68:	d1 09       	sbc	r29, r1
    4f6a:	0f b6       	in	r0, 0x3f	; 63
    4f6c:	f8 94       	cli
    4f6e:	de bf       	out	0x3e, r29	; 62
    4f70:	0f be       	out	0x3f, r0	; 63
    4f72:	cd bf       	out	0x3d, r28	; 61
    4f74:	e0 90 4b 15 	lds	r14, 0x154B	; 0x80154b <cursor_type>
    4f78:	e1 14       	cp	r14, r1
    4f7a:	09 f4       	brne	.+2      	; 0x4f7e <L0+0x2>

00004f7c <L0>:
    4f7c:	e8 c0       	rjmp	.+464    	; 0x514e <.L41>
    4f7e:	80 91 1e 01 	lds	r24, 0x011E	; 0x80011e <cursor_source>
    4f82:	0c e8       	ldi	r16, 0x8C	; 140
    4f84:	15 e1       	ldi	r17, 0x15	; 21
    4f86:	81 30       	cpi	r24, 0x01	; 1
    4f88:	11 f0       	breq	.+4      	; 0x4f8e <.L43>
    4f8a:	00 e6       	ldi	r16, 0x60	; 96
    4f8c:	15 e1       	ldi	r17, 0x15	; 21

00004f8e <.L43>:
    4f8e:	e0 91 5d 15 	lds	r30, 0x155D	; 0x80155d <current_time_base_idx>
    4f92:	94 e0       	ldi	r25, 0x04	; 4
    4f94:	e9 9f       	mul	r30, r25
    4f96:	f0 01       	movw	r30, r0
    4f98:	11 24       	eor	r1, r1
    4f9a:	e2 56       	subi	r30, 0x62	; 98
    4f9c:	fe 4f       	sbci	r31, 0xFE	; 254
    4f9e:	80 80       	ld	r8, Z
    4fa0:	91 80       	ldd	r9, Z+1	; 0x01
    4fa2:	a2 80       	ldd	r10, Z+2	; 0x02
    4fa4:	b3 80       	ldd	r11, Z+3	; 0x03
    4fa6:	90 91 15 01 	lds	r25, 0x0115	; 0x800115 <last_type.11>
    4faa:	e9 12       	cpse	r14, r25
    4fac:	ea c0       	rjmp	.+468    	; 0x5182 <.L58>
    4fae:	90 91 14 01 	lds	r25, 0x0114	; 0x800114 <last_source.10>
    4fb2:	89 13       	cpse	r24, r25
    4fb4:	e6 c0       	rjmp	.+460    	; 0x5182 <.L58>
    4fb6:	ff 24       	eor	r15, r15
    4fb8:	f3 94       	inc	r15
    4fba:	94 01       	movw	r18, r8
    4fbc:	a5 01       	movw	r20, r10
    4fbe:	60 91 55 15 	lds	r22, 0x1555	; 0x801555 <last_tdiv.9>
    4fc2:	70 91 56 15 	lds	r23, 0x1556	; 0x801556 <last_tdiv.9+0x1>
    4fc6:	80 91 57 15 	lds	r24, 0x1557	; 0x801557 <last_tdiv.9+0x2>
    4fca:	90 91 58 15 	lds	r25, 0x1558	; 0x801558 <last_tdiv.9+0x3>
    4fce:	0e 94 14 33 	call	0x6628	; 0x6628 <__cmpsf2>
    4fd2:	81 11       	cpse	r24, r1
    4fd4:	01 c0       	rjmp	.+2      	; 0x4fd8 <.L45>
    4fd6:	f1 2c       	mov	r15, r1

00004fd8 <.L45>:
    4fd8:	8f 2d       	mov	r24, r15

00004fda <.L44>:
    4fda:	81 70       	andi	r24, 0x01	; 1
    4fdc:	e1 e0       	ldi	r30, 0x01	; 1
    4fde:	ee 12       	cpse	r14, r30
    4fe0:	d7 c0       	rjmp	.+430    	; 0x5190 <.L46>
    4fe2:	e0 90 1c 01 	lds	r14, 0x011C	; 0x80011c <cursor_v_a>
    4fe6:	f0 90 1d 01 	lds	r15, 0x011D	; 0x80011d <cursor_v_a+0x1>
    4fea:	60 90 1a 01 	lds	r6, 0x011A	; 0x80011a <cursor_v_b>
    4fee:	70 90 1b 01 	lds	r7, 0x011B	; 0x80011b <cursor_v_b+0x1>
    4ff2:	20 91 53 15 	lds	r18, 0x1553	; 0x801553 <last_v_a.8>
    4ff6:	30 91 54 15 	lds	r19, 0x1554	; 0x801554 <last_v_a.8+0x1>
    4ffa:	e2 16       	cp	r14, r18
    4ffc:	f3 06       	cpc	r15, r19
    4ffe:	51 f4       	brne	.+20     	; 0x5014 <.L47>
    5000:	20 91 51 15 	lds	r18, 0x1551	; 0x801551 <last_v_b.7>
    5004:	30 91 52 15 	lds	r19, 0x1552	; 0x801552 <last_v_b.7+0x1>
    5008:	26 15       	cp	r18, r6
    500a:	37 05       	cpc	r19, r7
    500c:	19 f4       	brne	.+6      	; 0x5014 <.L47>
    500e:	81 15       	cp	r24, r1
    5010:	09 f4       	brne	.+2      	; 0x5014 <.L47>

00005012 <L0>:
    5012:	8d c0       	rjmp	.+282    	; 0x512e <.L48>

00005014 <.L47>:
    5014:	20 e0       	ldi	r18, 0x00	; 0
    5016:	30 e0       	ldi	r19, 0x00	; 0
    5018:	48 e1       	ldi	r20, 0x18	; 24
    501a:	52 e4       	ldi	r21, 0x42	; 66
    501c:	f8 01       	movw	r30, r16
    501e:	62 81       	ldd	r22, Z+2	; 0x02
    5020:	73 81       	ldd	r23, Z+3	; 0x03
    5022:	84 81       	ldd	r24, Z+4	; 0x04
    5024:	95 81       	ldd	r25, Z+5	; 0x05
    5026:	0e 94 19 33 	call	0x6632	; 0x6632 <__divsf3>
    502a:	b6 2f       	mov	r27, r22
    502c:	a7 2f       	mov	r26, r23
    502e:	d8 2e       	mov	r13, r24
    5030:	c9 2e       	mov	r12, r25
    5032:	f8 01       	movw	r30, r16
    5034:	84 85       	ldd	r24, Z+12	; 0x0c
    5036:	81 15       	cp	r24, r1
    5038:	09 f4       	brne	.+2      	; 0x503c <L0+0x2>

0000503a <L0>:
    503a:	a5 c0       	rjmp	.+330    	; 0x5186 <.L59>
    503c:	20 e0       	ldi	r18, 0x00	; 0
    503e:	30 e0       	ldi	r19, 0x00	; 0
    5040:	40 e8       	ldi	r20, 0x80	; 128
    5042:	5f eb       	ldi	r21, 0xBF	; 191

00005044 <.L49>:
    5044:	6b 2f       	mov	r22, r27
    5046:	7a 2f       	mov	r23, r26
    5048:	8d 2d       	mov	r24, r13
    504a:	9c 2d       	mov	r25, r12
    504c:	0e 94 cc 34 	call	0x6998	; 0x6998 <__mulsf3>
    5050:	1b 01       	movw	r2, r22
    5052:	2c 01       	movw	r4, r24
    5054:	f8 01       	movw	r30, r16
    5056:	02 85       	ldd	r16, Z+10	; 0x0a
    5058:	13 85       	ldd	r17, Z+11	; 0x0b
    505a:	b8 01       	movw	r22, r16
    505c:	6e 19       	sub	r22, r14
    505e:	7f 09       	sbc	r23, r15
    5060:	87 2f       	mov	r24, r23
    5062:	88 0f       	add	r24, r24
    5064:	88 0b       	sbc	r24, r24
    5066:	98 2f       	mov	r25, r24
    5068:	0e 94 c9 33 	call	0x6792	; 0x6792 <__floatsisf>
    506c:	91 01       	movw	r18, r2
    506e:	a2 01       	movw	r20, r4
    5070:	0e 94 cc 34 	call	0x6998	; 0x6998 <__mulsf3>
    5074:	6b 01       	movw	r12, r22
    5076:	7c 01       	movw	r14, r24
    5078:	b8 01       	movw	r22, r16
    507a:	66 19       	sub	r22, r6
    507c:	77 09       	sbc	r23, r7
    507e:	87 2f       	mov	r24, r23
    5080:	88 0f       	add	r24, r24
    5082:	88 0b       	sbc	r24, r24
    5084:	98 2f       	mov	r25, r24
    5086:	0e 94 c9 33 	call	0x6792	; 0x6792 <__floatsisf>
    508a:	91 01       	movw	r18, r2
    508c:	a2 01       	movw	r20, r4
    508e:	0e 94 cc 34 	call	0x6998	; 0x6998 <__mulsf3>
    5092:	2b 01       	movw	r4, r22
    5094:	3c 01       	movw	r6, r24
    5096:	02 e6       	ldi	r16, 0x62	; 98
    5098:	13 e0       	ldi	r17, 0x03	; 3
    509a:	20 e0       	ldi	r18, 0x00	; 0
    509c:	a6 01       	movw	r20, r12
    509e:	b7 01       	movw	r22, r14
    50a0:	ce 01       	movw	r24, r28
    50a2:	87 5b       	subi	r24, 0xB7	; 183
    50a4:	9f 4f       	sbci	r25, 0xFF	; 255
    50a6:	0e 94 8c 26 	call	0x4d18	; 0x4d18 <format_val_unit>
    50aa:	20 e0       	ldi	r18, 0x00	; 0
    50ac:	a2 01       	movw	r20, r4
    50ae:	b3 01       	movw	r22, r6
    50b0:	ce 01       	movw	r24, r28
    50b2:	c1 96       	adiw	r24, 0x31	; 49
    50b4:	0e 94 8c 26 	call	0x4d18	; 0x4d18 <format_val_unit>
    50b8:	92 01       	movw	r18, r4
    50ba:	a3 01       	movw	r20, r6
    50bc:	b6 01       	movw	r22, r12
    50be:	c7 01       	movw	r24, r14
    50c0:	0e 94 a7 32 	call	0x654e	; 0x654e <__subsf3>
    50c4:	ab 01       	movw	r20, r22
    50c6:	bc 01       	movw	r22, r24
    50c8:	20 e0       	ldi	r18, 0x00	; 0
    50ca:	ce 01       	movw	r24, r28
    50cc:	49 96       	adiw	r24, 0x19	; 25
    50ce:	0e 94 8c 26 	call	0x4d18	; 0x4d18 <format_val_unit>
    50d2:	2f ef       	ldi	r18, 0xFF	; 255
    50d4:	31 e0       	ldi	r19, 0x01	; 1
    50d6:	4d e5       	ldi	r20, 0x5D	; 93
    50d8:	52 e0       	ldi	r21, 0x02	; 2
    50da:	be 01       	movw	r22, r28
    50dc:	67 5b       	subi	r22, 0xB7	; 183
    50de:	7f 4f       	sbci	r23, 0xFF	; 255
    50e0:	83 e0       	ldi	r24, 0x03	; 3
    50e2:	0e 94 8a 13 	call	0x2714	; 0x2714 <drawTextButton>
    50e6:	2f ef       	ldi	r18, 0xFF	; 255
    50e8:	31 e0       	ldi	r19, 0x01	; 1
    50ea:	4d e5       	ldi	r20, 0x5D	; 93
    50ec:	52 e0       	ldi	r21, 0x02	; 2
    50ee:	be 01       	movw	r22, r28
    50f0:	6f 5c       	subi	r22, 0xCF	; 207
    50f2:	7f 4f       	sbci	r23, 0xFF	; 255
    50f4:	84 e0       	ldi	r24, 0x04	; 4
    50f6:	0e 94 8a 13 	call	0x2714	; 0x2714 <drawTextButton>
    50fa:	2f ef       	ldi	r18, 0xFF	; 255
    50fc:	31 e0       	ldi	r19, 0x01	; 1
    50fe:	4d e5       	ldi	r20, 0x5D	; 93
    5100:	52 e0       	ldi	r21, 0x02	; 2
    5102:	be 01       	movw	r22, r28
    5104:	67 5e       	subi	r22, 0xE7	; 231
    5106:	7f 4f       	sbci	r23, 0xFF	; 255
    5108:	82 e0       	ldi	r24, 0x02	; 2
    510a:	0e 94 8a 13 	call	0x2714	; 0x2714 <drawTextButton>
    510e:	80 91 1c 01 	lds	r24, 0x011C	; 0x80011c <cursor_v_a>
    5112:	90 91 1d 01 	lds	r25, 0x011D	; 0x80011d <cursor_v_a+0x1>
    5116:	80 93 53 15 	sts	0x1553, r24	; 0x801553 <last_v_a.8>
    511a:	90 93 54 15 	sts	0x1554, r25	; 0x801554 <last_v_a.8+0x1>
    511e:	80 91 1a 01 	lds	r24, 0x011A	; 0x80011a <cursor_v_b>
    5122:	90 91 1b 01 	lds	r25, 0x011B	; 0x80011b <cursor_v_b+0x1>
    5126:	80 93 51 15 	sts	0x1551, r24	; 0x801551 <last_v_b.7>
    512a:	90 93 52 15 	sts	0x1552, r25	; 0x801552 <last_v_b.7+0x1>

0000512e <.L48>:
    512e:	80 91 4b 15 	lds	r24, 0x154B	; 0x80154b <cursor_type>
    5132:	80 93 15 01 	sts	0x0115, r24	; 0x800115 <last_type.11>
    5136:	80 91 1e 01 	lds	r24, 0x011E	; 0x80011e <cursor_source>
    513a:	80 93 14 01 	sts	0x0114, r24	; 0x800114 <last_source.10>
    513e:	80 92 55 15 	sts	0x1555, r8	; 0x801555 <last_tdiv.9>
    5142:	90 92 56 15 	sts	0x1556, r9	; 0x801556 <last_tdiv.9+0x1>
    5146:	a0 92 57 15 	sts	0x1557, r10	; 0x801557 <last_tdiv.9+0x2>
    514a:	b0 92 58 15 	sts	0x1558, r11	; 0x801558 <last_tdiv.9+0x3>

0000514e <.L41>:
    514e:	cc 59       	subi	r28, 0x9C	; 156
    5150:	df 4f       	sbci	r29, 0xFF	; 255
    5152:	0f b6       	in	r0, 0x3f	; 63
    5154:	f8 94       	cli
    5156:	de bf       	out	0x3e, r29	; 62
    5158:	0f be       	out	0x3f, r0	; 63
    515a:	cd bf       	out	0x3d, r28	; 61
    515c:	df 91       	pop	r29
    515e:	cf 91       	pop	r28
    5160:	1f 91       	pop	r17
    5162:	0f 91       	pop	r16
    5164:	ff 90       	pop	r15
    5166:	ef 90       	pop	r14
    5168:	df 90       	pop	r13
    516a:	cf 90       	pop	r12
    516c:	bf 90       	pop	r11
    516e:	af 90       	pop	r10
    5170:	9f 90       	pop	r9
    5172:	8f 90       	pop	r8
    5174:	7f 90       	pop	r7
    5176:	6f 90       	pop	r6
    5178:	5f 90       	pop	r5
    517a:	4f 90       	pop	r4
    517c:	3f 90       	pop	r3
    517e:	2f 90       	pop	r2
    5180:	08 95       	ret

00005182 <.L58>:
    5182:	81 e0       	ldi	r24, 0x01	; 1
    5184:	2a cf       	rjmp	.-428    	; 0x4fda <.L44>

00005186 <.L59>:
    5186:	20 e0       	ldi	r18, 0x00	; 0
    5188:	30 e0       	ldi	r19, 0x00	; 0
    518a:	40 e8       	ldi	r20, 0x80	; 128
    518c:	5f e3       	ldi	r21, 0x3F	; 63
    518e:	5a cf       	rjmp	.-332    	; 0x5044 <.L49>

00005190 <.L46>:
    5190:	f2 e0       	ldi	r31, 0x02	; 2
    5192:	ef 12       	cpse	r14, r31
    5194:	cc cf       	rjmp	.-104    	; 0x512e <.L48>
    5196:	00 91 18 01 	lds	r16, 0x0118	; 0x800118 <cursor_h_a>
    519a:	10 91 19 01 	lds	r17, 0x0119	; 0x800119 <cursor_h_a+0x1>
    519e:	60 90 16 01 	lds	r6, 0x0116	; 0x800116 <cursor_h_b>
    51a2:	70 90 17 01 	lds	r7, 0x0117	; 0x800117 <cursor_h_b+0x1>
    51a6:	20 91 4f 15 	lds	r18, 0x154F	; 0x80154f <last_h_a.6>
    51aa:	30 91 50 15 	lds	r19, 0x1550	; 0x801550 <last_h_a.6+0x1>
    51ae:	02 17       	cp	r16, r18
    51b0:	13 07       	cpc	r17, r19
    51b2:	51 f4       	brne	.+20     	; 0x51c8 <.L50>
    51b4:	20 91 4d 15 	lds	r18, 0x154D	; 0x80154d <last_h_b.5>
    51b8:	30 91 4e 15 	lds	r19, 0x154E	; 0x80154e <last_h_b.5+0x1>
    51bc:	26 15       	cp	r18, r6
    51be:	37 05       	cpc	r19, r7
    51c0:	19 f4       	brne	.+6      	; 0x51c8 <.L50>
    51c2:	81 15       	cp	r24, r1
    51c4:	09 f4       	brne	.+2      	; 0x51c8 <.L50>

000051c6 <L0>:
    51c6:	b3 cf       	rjmp	.-154    	; 0x512e <.L48>

000051c8 <.L50>:
    51c8:	20 e0       	ldi	r18, 0x00	; 0
    51ca:	30 e0       	ldi	r19, 0x00	; 0
    51cc:	48 e4       	ldi	r20, 0x48	; 72
    51ce:	52 e4       	ldi	r21, 0x42	; 66
    51d0:	b4 01       	movw	r22, r8
    51d2:	c5 01       	movw	r24, r10
    51d4:	0e 94 19 33 	call	0x6632	; 0x6632 <__divsf3>
    51d8:	6b 01       	movw	r12, r22
    51da:	7c 01       	movw	r14, r24
    51dc:	b8 01       	movw	r22, r16
    51de:	6e 50       	subi	r22, 0x0E	; 14
    51e0:	71 40       	sbci	r23, 0x01	; 1
    51e2:	87 2f       	mov	r24, r23
    51e4:	88 0f       	add	r24, r24
    51e6:	88 0b       	sbc	r24, r24
    51e8:	98 2f       	mov	r25, r24
    51ea:	0e 94 c9 33 	call	0x6792	; 0x6792 <__floatsisf>
    51ee:	96 01       	movw	r18, r12
    51f0:	a7 01       	movw	r20, r14
    51f2:	0e 94 cc 34 	call	0x6998	; 0x6998 <__mulsf3>
    51f6:	1b 01       	movw	r2, r22
    51f8:	2c 01       	movw	r4, r24
    51fa:	b3 01       	movw	r22, r6
    51fc:	6e 50       	subi	r22, 0x0E	; 14
    51fe:	71 40       	sbci	r23, 0x01	; 1
    5200:	87 2f       	mov	r24, r23
    5202:	88 0f       	add	r24, r24
    5204:	88 0b       	sbc	r24, r24
    5206:	98 2f       	mov	r25, r24
    5208:	0e 94 c9 33 	call	0x6792	; 0x6792 <__floatsisf>
    520c:	96 01       	movw	r18, r12
    520e:	a7 01       	movw	r20, r14
    5210:	0e 94 cc 34 	call	0x6998	; 0x6998 <__mulsf3>
    5214:	a5 96       	adiw	r28, 0x25	; 37
    5216:	6c af       	std	Y+60, r22	; 0x3c
    5218:	7d af       	std	Y+61, r23	; 0x3d
    521a:	8e af       	std	Y+62, r24	; 0x3e
    521c:	9f af       	std	Y+63, r25	; 0x3f
    521e:	a5 97       	sbiw	r28, 0x25	; 37
    5220:	9b 01       	movw	r18, r22
    5222:	ac 01       	movw	r20, r24
    5224:	b1 01       	movw	r22, r2
    5226:	c2 01       	movw	r24, r4
    5228:	0e 94 a7 32 	call	0x654e	; 0x654e <__subsf3>
    522c:	6b 01       	movw	r12, r22
    522e:	7c 01       	movw	r14, r24
    5230:	40 e0       	ldi	r20, 0x00	; 0
    5232:	50 e0       	ldi	r21, 0x00	; 0
    5234:	9a 01       	movw	r18, r20
    5236:	0e 94 14 33 	call	0x6628	; 0x6628 <__cmpsf2>
    523a:	87 ff       	sbrs	r24, 7
    523c:	04 c0       	rjmp	.+8      	; 0x5246 <.L51>
    523e:	f7 fa       	bst	r15, 7
    5240:	f0 94       	com	r15
    5242:	f7 f8       	bld	r15, 7
    5244:	f0 94       	com	r15

00005246 <.L51>:
    5246:	3e 01       	movw	r6, r28
    5248:	89 e4       	ldi	r24, 0x49	; 73
    524a:	68 0e       	add	r6, r24
    524c:	71 1c       	adc	r7, r1
    524e:	0b e9       	ldi	r16, 0x9B	; 155
    5250:	14 e0       	ldi	r17, 0x04	; 4
    5252:	20 e0       	ldi	r18, 0x00	; 0
    5254:	a1 01       	movw	r20, r2
    5256:	b2 01       	movw	r22, r4
    5258:	c3 01       	movw	r24, r6
    525a:	0e 94 8c 26 	call	0x4d18	; 0x4d18 <format_val_unit>
    525e:	2e 01       	movw	r4, r28
    5260:	91 e3       	ldi	r25, 0x31	; 49
    5262:	49 0e       	add	r4, r25
    5264:	51 1c       	adc	r5, r1
    5266:	20 e0       	ldi	r18, 0x00	; 0
    5268:	a5 96       	adiw	r28, 0x25	; 37
    526a:	4c ad       	ldd	r20, Y+60	; 0x3c
    526c:	5d ad       	ldd	r21, Y+61	; 0x3d
    526e:	6e ad       	ldd	r22, Y+62	; 0x3e
    5270:	7f ad       	ldd	r23, Y+63	; 0x3f
    5272:	a5 97       	sbiw	r28, 0x25	; 37
    5274:	c2 01       	movw	r24, r4
    5276:	0e 94 8c 26 	call	0x4d18	; 0x4d18 <format_val_unit>
    527a:	1e 01       	movw	r2, r28
    527c:	e9 e1       	ldi	r30, 0x19	; 25
    527e:	2e 0e       	add	r2, r30
    5280:	31 1c       	adc	r3, r1
    5282:	20 e0       	ldi	r18, 0x00	; 0
    5284:	a6 01       	movw	r20, r12
    5286:	b7 01       	movw	r22, r14
    5288:	c1 01       	movw	r24, r2
    528a:	0e 94 8c 26 	call	0x4d18	; 0x4d18 <format_val_unit>
    528e:	2c ec       	ldi	r18, 0xCC	; 204
    5290:	3c eb       	ldi	r19, 0xBC	; 188
    5292:	4c e8       	ldi	r20, 0x8C	; 140
    5294:	5b e2       	ldi	r21, 0x2B	; 43
    5296:	b6 01       	movw	r22, r12
    5298:	c7 01       	movw	r24, r14
    529a:	0e 94 c7 34 	call	0x698e	; 0x698e <__gesf2>
    529e:	18 16       	cp	r1, r24
    52a0:	dc f5       	brge	.+118    	; 0x5318 <.L71>
    52a2:	96 01       	movw	r18, r12
    52a4:	a7 01       	movw	r20, r14
    52a6:	60 e0       	ldi	r22, 0x00	; 0
    52a8:	70 e0       	ldi	r23, 0x00	; 0
    52aa:	80 e8       	ldi	r24, 0x80	; 128
    52ac:	9f e3       	ldi	r25, 0x3F	; 63
    52ae:	0e 94 19 33 	call	0x6632	; 0x6632 <__divsf3>
    52b2:	ab 01       	movw	r20, r22
    52b4:	bc 01       	movw	r22, r24
    52b6:	03 e0       	ldi	r16, 0x03	; 3
    52b8:	14 e0       	ldi	r17, 0x04	; 4
    52ba:	21 e0       	ldi	r18, 0x01	; 1
    52bc:	ce 01       	movw	r24, r28
    52be:	01 96       	adiw	r24, 0x01	; 1
    52c0:	0e 94 8c 26 	call	0x4d18	; 0x4d18 <format_val_unit>

000052c4 <.L55>:
    52c4:	2f ef       	ldi	r18, 0xFF	; 255
    52c6:	31 e0       	ldi	r19, 0x01	; 1
    52c8:	4d e5       	ldi	r20, 0x5D	; 93
    52ca:	52 e0       	ldi	r21, 0x02	; 2
    52cc:	b3 01       	movw	r22, r6
    52ce:	83 e0       	ldi	r24, 0x03	; 3
    52d0:	0e 94 8a 13 	call	0x2714	; 0x2714 <drawTextButton>
    52d4:	2f ef       	ldi	r18, 0xFF	; 255
    52d6:	31 e0       	ldi	r19, 0x01	; 1
    52d8:	4d e5       	ldi	r20, 0x5D	; 93
    52da:	52 e0       	ldi	r21, 0x02	; 2
    52dc:	b2 01       	movw	r22, r4
    52de:	84 e0       	ldi	r24, 0x04	; 4
    52e0:	0e 94 8a 13 	call	0x2714	; 0x2714 <drawTextButton>
    52e4:	2f ef       	ldi	r18, 0xFF	; 255
    52e6:	31 e0       	ldi	r19, 0x01	; 1
    52e8:	ae 01       	movw	r20, r28
    52ea:	4f 5f       	subi	r20, 0xFF	; 255
    52ec:	5f 4f       	sbci	r21, 0xFF	; 255
    52ee:	b1 01       	movw	r22, r2
    52f0:	82 e0       	ldi	r24, 0x02	; 2
    52f2:	0e 94 8a 13 	call	0x2714	; 0x2714 <drawTextButton>
    52f6:	80 91 18 01 	lds	r24, 0x0118	; 0x800118 <cursor_h_a>
    52fa:	90 91 19 01 	lds	r25, 0x0119	; 0x800119 <cursor_h_a+0x1>
    52fe:	80 93 4f 15 	sts	0x154F, r24	; 0x80154f <last_h_a.6>
    5302:	90 93 50 15 	sts	0x1550, r25	; 0x801550 <last_h_a.6+0x1>
    5306:	80 91 16 01 	lds	r24, 0x0116	; 0x800116 <cursor_h_b>
    530a:	90 91 17 01 	lds	r25, 0x0117	; 0x800117 <cursor_h_b+0x1>
    530e:	80 93 4d 15 	sts	0x154D, r24	; 0x80154d <last_h_b.5>
    5312:	90 93 4e 15 	sts	0x154E, r25	; 0x80154e <last_h_b.5+0x1>
    5316:	0b cf       	rjmp	.-490    	; 0x512e <.L48>

00005318 <.L71>:
    5318:	6f ef       	ldi	r22, 0xFF	; 255
    531a:	73 e0       	ldi	r23, 0x03	; 3
    531c:	ce 01       	movw	r24, r28
    531e:	01 96       	adiw	r24, 0x01	; 1
    5320:	0e 94 69 13 	call	0x26d2	; 0x26d2 <append_str>
    5324:	cf cf       	rjmp	.-98     	; 0x52c4 <.L55>

00005326 <disegna_linea_cursore_v>:
    5326:	cf 93       	push	r28
    5328:	df 93       	push	r29
    532a:	00 d0       	rcall	.+0      	; 0x532c <L0>

0000532c <L0>:
    532c:	00 d0       	rcall	.+0      	; 0x532e <L0>

0000532e <L0>:
    532e:	00 d0       	rcall	.+0      	; 0x5330 <L0>

00005330 <L0>:
    5330:	cd b7       	in	r28, 0x3d	; 61
    5332:	de b7       	in	r29, 0x3e	; 62
    5334:	89 83       	std	Y+1, r24	; 0x01
    5336:	9a 83       	std	Y+2, r25	; 0x02
    5338:	6b 83       	std	Y+3, r22	; 0x03
    533a:	7c 83       	std	Y+4, r23	; 0x04
    533c:	84 e1       	ldi	r24, 0x14	; 20
    533e:	8d 83       	std	Y+5, r24	; 0x05
    5340:	1e 82       	std	Y+6, r1	; 0x06

00005342 <.L73>:
    5342:	2b 81       	ldd	r18, Y+3	; 0x03
    5344:	3c 81       	ldd	r19, Y+4	; 0x04
    5346:	44 e0       	ldi	r20, 0x04	; 4
    5348:	50 e0       	ldi	r21, 0x00	; 0
    534a:	69 81       	ldd	r22, Y+1	; 0x01
    534c:	7a 81       	ldd	r23, Y+2	; 0x02
    534e:	8d 81       	ldd	r24, Y+5	; 0x05
    5350:	9e 81       	ldd	r25, Y+6	; 0x06
    5352:	0e 94 d5 0c 	call	0x19aa	; 0x19aa <vga_drawFastHLine>
    5356:	8d 81       	ldd	r24, Y+5	; 0x05
    5358:	9e 81       	ldd	r25, Y+6	; 0x06
    535a:	08 96       	adiw	r24, 0x08	; 8
    535c:	8d 83       	std	Y+5, r24	; 0x05
    535e:	9e 83       	std	Y+6, r25	; 0x06
    5360:	8c 30       	cpi	r24, 0x0C	; 12
    5362:	92 40       	sbci	r25, 0x02	; 2
    5364:	71 f7       	brne	.-36     	; 0x5342 <.L73>
    5366:	0f 90       	pop	r0
    5368:	0f 90       	pop	r0
    536a:	0f 90       	pop	r0
    536c:	0f 90       	pop	r0
    536e:	0f 90       	pop	r0
    5370:	0f 90       	pop	r0
    5372:	df 91       	pop	r29
    5374:	cf 91       	pop	r28
    5376:	08 95       	ret

00005378 <disegna_linea_cursore_h>:
    5378:	cf 93       	push	r28
    537a:	df 93       	push	r29
    537c:	00 d0       	rcall	.+0      	; 0x537e <L0>

0000537e <L0>:
    537e:	00 d0       	rcall	.+0      	; 0x5380 <L0>

00005380 <L0>:
    5380:	00 d0       	rcall	.+0      	; 0x5382 <L0>

00005382 <L0>:
    5382:	cd b7       	in	r28, 0x3d	; 61
    5384:	de b7       	in	r29, 0x3e	; 62
    5386:	89 83       	std	Y+1, r24	; 0x01
    5388:	9a 83       	std	Y+2, r25	; 0x02
    538a:	6b 83       	std	Y+3, r22	; 0x03
    538c:	7c 83       	std	Y+4, r23	; 0x04
    538e:	88 e2       	ldi	r24, 0x28	; 40
    5390:	8d 83       	std	Y+5, r24	; 0x05
    5392:	1e 82       	std	Y+6, r1	; 0x06

00005394 <.L76>:
    5394:	2b 81       	ldd	r18, Y+3	; 0x03
    5396:	3c 81       	ldd	r19, Y+4	; 0x04
    5398:	44 e0       	ldi	r20, 0x04	; 4
    539a:	50 e0       	ldi	r21, 0x00	; 0
    539c:	6d 81       	ldd	r22, Y+5	; 0x05
    539e:	7e 81       	ldd	r23, Y+6	; 0x06
    53a0:	89 81       	ldd	r24, Y+1	; 0x01
    53a2:	9a 81       	ldd	r25, Y+2	; 0x02
    53a4:	0e 94 fc 0c 	call	0x19f8	; 0x19f8 <vga_drawFastVLine>
    53a8:	8d 81       	ldd	r24, Y+5	; 0x05
    53aa:	9e 81       	ldd	r25, Y+6	; 0x06
    53ac:	08 96       	adiw	r24, 0x08	; 8
    53ae:	8d 83       	std	Y+5, r24	; 0x05
    53b0:	9e 83       	std	Y+6, r25	; 0x06
    53b2:	88 3a       	cpi	r24, 0xA8	; 168
    53b4:	91 40       	sbci	r25, 0x01	; 1
    53b6:	71 f7       	brne	.-36     	; 0x5394 <.L76>
    53b8:	0f 90       	pop	r0
    53ba:	0f 90       	pop	r0
    53bc:	0f 90       	pop	r0
    53be:	0f 90       	pop	r0
    53c0:	0f 90       	pop	r0
    53c2:	0f 90       	pop	r0
    53c4:	df 91       	pop	r29
    53c6:	cf 91       	pop	r28
    53c8:	08 95       	ret

000053ca <aggiorna_grafica_cursori>:
    53ca:	80 91 4c 15 	lds	r24, 0x154C	; 0x80154c <old_type.4>
    53ce:	90 91 4b 15 	lds	r25, 0x154B	; 0x80154b <cursor_type>
    53d2:	98 17       	cp	r25, r24
    53d4:	09 f4       	brne	.+2      	; 0x53d8 <L0+0x2>

000053d6 <L0>:
    53d6:	4a c0       	rjmp	.+148    	; 0x546c <.L79>
    53d8:	81 30       	cpi	r24, 0x01	; 1
    53da:	79 f5       	brne	.+94     	; 0x543a <.L80>
    53dc:	80 91 12 01 	lds	r24, 0x0112	; 0x800112 <ov_a.3>
    53e0:	90 91 13 01 	lds	r25, 0x0113	; 0x800113 <ov_a.3+0x1>
    53e4:	8f 3f       	cpi	r24, 0xFF	; 255
    53e6:	98 07       	cpc	r25, r24
    53e8:	21 f0       	breq	.+8      	; 0x53f2 <.L81>
    53ea:	60 e0       	ldi	r22, 0x00	; 0
    53ec:	70 e0       	ldi	r23, 0x00	; 0
    53ee:	0e 94 93 29 	call	0x5326	; 0x5326 <disegna_linea_cursore_v>

000053f2 <.L81>:
    53f2:	80 91 10 01 	lds	r24, 0x0110	; 0x800110 <ov_b.2>
    53f6:	90 91 11 01 	lds	r25, 0x0111	; 0x800111 <ov_b.2+0x1>
    53fa:	8f 3f       	cpi	r24, 0xFF	; 255
    53fc:	98 07       	cpc	r25, r24
    53fe:	21 f0       	breq	.+8      	; 0x5408 <.L83>
    5400:	60 e0       	ldi	r22, 0x00	; 0
    5402:	70 e0       	ldi	r23, 0x00	; 0
    5404:	0e 94 93 29 	call	0x5326	; 0x5326 <disegna_linea_cursore_v>

00005408 <.L83>:
    5408:	80 91 4b 15 	lds	r24, 0x154B	; 0x80154b <cursor_type>
    540c:	80 93 4c 15 	sts	0x154C, r24	; 0x80154c <old_type.4>
    5410:	2f ef       	ldi	r18, 0xFF	; 255
    5412:	3f ef       	ldi	r19, 0xFF	; 255
    5414:	20 93 12 01 	sts	0x0112, r18	; 0x800112 <ov_a.3>
    5418:	30 93 13 01 	sts	0x0113, r19	; 0x800113 <ov_a.3+0x1>
    541c:	20 93 10 01 	sts	0x0110, r18	; 0x800110 <ov_b.2>
    5420:	30 93 11 01 	sts	0x0111, r19	; 0x800111 <ov_b.2+0x1>
    5424:	20 93 0e 01 	sts	0x010E, r18	; 0x80010e <oh_a.1>
    5428:	30 93 0f 01 	sts	0x010F, r19	; 0x80010f <oh_a.1+0x1>
    542c:	20 93 0c 01 	sts	0x010C, r18	; 0x80010c <oh_b.0>
    5430:	30 93 0d 01 	sts	0x010D, r19	; 0x80010d <oh_b.0+0x1>
    5434:	81 11       	cpse	r24, r1
    5436:	1d c0       	rjmp	.+58     	; 0x5472 <.L86>
    5438:	08 95       	ret

0000543a <.L80>:
    543a:	82 30       	cpi	r24, 0x02	; 2
    543c:	29 f7       	brne	.-54     	; 0x5408 <.L83>
    543e:	80 91 0e 01 	lds	r24, 0x010E	; 0x80010e <oh_a.1>
    5442:	90 91 0f 01 	lds	r25, 0x010F	; 0x80010f <oh_a.1+0x1>
    5446:	8f 3f       	cpi	r24, 0xFF	; 255
    5448:	98 07       	cpc	r25, r24
    544a:	21 f0       	breq	.+8      	; 0x5454 <.L85>
    544c:	60 e0       	ldi	r22, 0x00	; 0
    544e:	70 e0       	ldi	r23, 0x00	; 0
    5450:	0e 94 bc 29 	call	0x5378	; 0x5378 <disegna_linea_cursore_h>

00005454 <.L85>:
    5454:	80 91 0c 01 	lds	r24, 0x010C	; 0x80010c <oh_b.0>
    5458:	90 91 0d 01 	lds	r25, 0x010D	; 0x80010d <oh_b.0+0x1>
    545c:	8f 3f       	cpi	r24, 0xFF	; 255
    545e:	98 07       	cpc	r25, r24
    5460:	99 f2       	breq	.-90     	; 0x5408 <.L83>
    5462:	60 e0       	ldi	r22, 0x00	; 0
    5464:	70 e0       	ldi	r23, 0x00	; 0
    5466:	0e 94 bc 29 	call	0x5378	; 0x5378 <disegna_linea_cursore_h>
    546a:	ce cf       	rjmp	.-100    	; 0x5408 <.L83>

0000546c <.L79>:
    546c:	81 15       	cp	r24, r1
    546e:	09 f4       	brne	.+2      	; 0x5472 <.L86>

00005470 <L0>:
    5470:	7f c0       	rjmp	.+254    	; 0x5570 <.L78>

00005472 <.L86>:
    5472:	81 30       	cpi	r24, 0x01	; 1
    5474:	f1 f5       	brne	.+124    	; 0x54f2 <.L89>
    5476:	80 91 12 01 	lds	r24, 0x0112	; 0x800112 <ov_a.3>
    547a:	90 91 13 01 	lds	r25, 0x0113	; 0x800113 <ov_a.3+0x1>
    547e:	20 91 1c 01 	lds	r18, 0x011C	; 0x80011c <cursor_v_a>
    5482:	30 91 1d 01 	lds	r19, 0x011D	; 0x80011d <cursor_v_a+0x1>
    5486:	28 17       	cp	r18, r24
    5488:	39 07       	cpc	r19, r25
    548a:	79 f0       	breq	.+30     	; 0x54aa <.L90>
    548c:	8f 3f       	cpi	r24, 0xFF	; 255
    548e:	98 07       	cpc	r25, r24
    5490:	21 f0       	breq	.+8      	; 0x549a <.L91>
    5492:	60 e0       	ldi	r22, 0x00	; 0
    5494:	70 e0       	ldi	r23, 0x00	; 0
    5496:	0e 94 93 29 	call	0x5326	; 0x5326 <disegna_linea_cursore_v>

0000549a <.L91>:
    549a:	80 91 1c 01 	lds	r24, 0x011C	; 0x80011c <cursor_v_a>
    549e:	90 91 1d 01 	lds	r25, 0x011D	; 0x80011d <cursor_v_a+0x1>
    54a2:	80 93 12 01 	sts	0x0112, r24	; 0x800112 <ov_a.3>
    54a6:	90 93 13 01 	sts	0x0113, r25	; 0x800113 <ov_a.3+0x1>

000054aa <.L90>:
    54aa:	67 ec       	ldi	r22, 0xC7	; 199
    54ac:	71 e0       	ldi	r23, 0x01	; 1
    54ae:	0e 94 93 29 	call	0x5326	; 0x5326 <disegna_linea_cursore_v>
    54b2:	80 91 10 01 	lds	r24, 0x0110	; 0x800110 <ov_b.2>
    54b6:	90 91 11 01 	lds	r25, 0x0111	; 0x800111 <ov_b.2+0x1>
    54ba:	20 91 1a 01 	lds	r18, 0x011A	; 0x80011a <cursor_v_b>
    54be:	30 91 1b 01 	lds	r19, 0x011B	; 0x80011b <cursor_v_b+0x1>
    54c2:	28 17       	cp	r18, r24
    54c4:	39 07       	cpc	r19, r25
    54c6:	79 f0       	breq	.+30     	; 0x54e6 <.L92>
    54c8:	8f 3f       	cpi	r24, 0xFF	; 255
    54ca:	98 07       	cpc	r25, r24
    54cc:	21 f0       	breq	.+8      	; 0x54d6 <.L93>
    54ce:	60 e0       	ldi	r22, 0x00	; 0
    54d0:	70 e0       	ldi	r23, 0x00	; 0
    54d2:	0e 94 93 29 	call	0x5326	; 0x5326 <disegna_linea_cursore_v>

000054d6 <.L93>:
    54d6:	80 91 1a 01 	lds	r24, 0x011A	; 0x80011a <cursor_v_b>
    54da:	90 91 1b 01 	lds	r25, 0x011B	; 0x80011b <cursor_v_b+0x1>
    54de:	80 93 10 01 	sts	0x0110, r24	; 0x800110 <ov_b.2>
    54e2:	90 93 11 01 	sts	0x0111, r25	; 0x800111 <ov_b.2+0x1>

000054e6 <.L92>:
    54e6:	67 ec       	ldi	r22, 0xC7	; 199
    54e8:	71 e0       	ldi	r23, 0x01	; 1
    54ea:	0e 94 93 29 	call	0x5326	; 0x5326 <disegna_linea_cursore_v>

000054ee <.L94>:
    54ee:	0c 94 9f 27 	jmp	0x4f3e	; 0x4f3e <calcola_e_stampa_dati_cursori>

000054f2 <.L89>:
    54f2:	82 30       	cpi	r24, 0x02	; 2
    54f4:	e1 f7       	brne	.-8      	; 0x54ee <.L94>
    54f6:	80 91 0e 01 	lds	r24, 0x010E	; 0x80010e <oh_a.1>
    54fa:	90 91 0f 01 	lds	r25, 0x010F	; 0x80010f <oh_a.1+0x1>
    54fe:	20 91 18 01 	lds	r18, 0x0118	; 0x800118 <cursor_h_a>
    5502:	30 91 19 01 	lds	r19, 0x0119	; 0x800119 <cursor_h_a+0x1>
    5506:	28 17       	cp	r18, r24
    5508:	39 07       	cpc	r19, r25
    550a:	79 f0       	breq	.+30     	; 0x552a <.L95>
    550c:	8f 3f       	cpi	r24, 0xFF	; 255
    550e:	98 07       	cpc	r25, r24
    5510:	21 f0       	breq	.+8      	; 0x551a <.L96>
    5512:	60 e0       	ldi	r22, 0x00	; 0
    5514:	70 e0       	ldi	r23, 0x00	; 0
    5516:	0e 94 bc 29 	call	0x5378	; 0x5378 <disegna_linea_cursore_h>

0000551a <.L96>:
    551a:	80 91 18 01 	lds	r24, 0x0118	; 0x800118 <cursor_h_a>
    551e:	90 91 19 01 	lds	r25, 0x0119	; 0x800119 <cursor_h_a+0x1>
    5522:	80 93 0e 01 	sts	0x010E, r24	; 0x80010e <oh_a.1>
    5526:	90 93 0f 01 	sts	0x010F, r25	; 0x80010f <oh_a.1+0x1>

0000552a <.L95>:
    552a:	67 ec       	ldi	r22, 0xC7	; 199
    552c:	71 e0       	ldi	r23, 0x01	; 1
    552e:	0e 94 bc 29 	call	0x5378	; 0x5378 <disegna_linea_cursore_h>
    5532:	80 91 0c 01 	lds	r24, 0x010C	; 0x80010c <oh_b.0>
    5536:	90 91 0d 01 	lds	r25, 0x010D	; 0x80010d <oh_b.0+0x1>
    553a:	20 91 16 01 	lds	r18, 0x0116	; 0x800116 <cursor_h_b>
    553e:	30 91 17 01 	lds	r19, 0x0117	; 0x800117 <cursor_h_b+0x1>
    5542:	28 17       	cp	r18, r24
    5544:	39 07       	cpc	r19, r25
    5546:	79 f0       	breq	.+30     	; 0x5566 <.L97>
    5548:	8f 3f       	cpi	r24, 0xFF	; 255
    554a:	98 07       	cpc	r25, r24
    554c:	21 f0       	breq	.+8      	; 0x5556 <.L98>
    554e:	60 e0       	ldi	r22, 0x00	; 0
    5550:	70 e0       	ldi	r23, 0x00	; 0
    5552:	0e 94 bc 29 	call	0x5378	; 0x5378 <disegna_linea_cursore_h>

00005556 <.L98>:
    5556:	80 91 16 01 	lds	r24, 0x0116	; 0x800116 <cursor_h_b>
    555a:	90 91 17 01 	lds	r25, 0x0117	; 0x800117 <cursor_h_b+0x1>
    555e:	80 93 0c 01 	sts	0x010C, r24	; 0x80010c <oh_b.0>
    5562:	90 93 0d 01 	sts	0x010D, r25	; 0x80010d <oh_b.0+0x1>

00005566 <.L97>:
    5566:	67 ec       	ldi	r22, 0xC7	; 199
    5568:	71 e0       	ldi	r23, 0x01	; 1
    556a:	0e 94 bc 29 	call	0x5378	; 0x5378 <disegna_linea_cursore_h>
    556e:	bf cf       	rjmp	.-130    	; 0x54ee <.L94>

00005570 <.L78>:
    5570:	08 95       	ret

00005572 <acquire_and_draw>:
    5572:	ef 92       	push	r14
    5574:	0f 93       	push	r16
    5576:	1f 93       	push	r17
    5578:	80 91 5d 01 	lds	r24, 0x015D	; 0x80015d <is_running>
    557c:	81 11       	cpse	r24, r1
    557e:	0b c0       	rjmp	.+22     	; 0x5596 <.L2>
    5580:	80 91 5c 15 	lds	r24, 0x155C	; 0x80155c <trigger_mode>
    5584:	82 30       	cpi	r24, 0x02	; 2
    5586:	21 f4       	brne	.+8      	; 0x5590 <.L3>
    5588:	80 91 5f 15 	lds	r24, 0x155F	; 0x80155f <freeze>
    558c:	81 15       	cp	r24, r1
    558e:	19 f0       	breq	.+6      	; 0x5596 <.L2>

00005590 <.L3>:
    5590:	80 91 5e 15 	lds	r24, 0x155E	; 0x80155e <pan_flag>
    5594:	81 11       	cpse	r24, r1

00005596 <.L2>:
    5596:	0e 94 6a 1b 	call	0x36d4	; 0x36d4 <osc_read_triggered>
    559a:	80 91 59 15 	lds	r24, 0x1559	; 0x801559 <is_xy_mode>
    559e:	81 11       	cpse	r24, r1
    55a0:	2f c0       	rjmp	.+94     	; 0x5600 <.L5>
    55a2:	8f ef       	ldi	r24, 0xFF	; 255
    55a4:	91 e0       	ldi	r25, 0x01	; 1
    55a6:	0e 94 b3 24 	call	0x4966	; 0x4966 <tft_drawGrid>
    55aa:	ee 24       	eor	r14, r14
    55ac:	e3 94       	inc	r14
    55ae:	80 91 49 01 	lds	r24, 0x0149	; 0x800149 <is_vectors>
    55b2:	81 11       	cpse	r24, r1
    55b4:	01 c0       	rjmp	.+2      	; 0x55b8 <.L6>
    55b6:	e1 2c       	mov	r14, r1

000055b8 <.L6>:
    55b8:	04 ef       	ldi	r16, 0xF4	; 244
    55ba:	11 e0       	ldi	r17, 0x01	; 1
    55bc:	26 e7       	ldi	r18, 0x76	; 118
    55be:	35 e0       	ldi	r19, 0x05	; 5
    55c0:	4e e5       	ldi	r20, 0x5E	; 94
    55c2:	59 e0       	ldi	r21, 0x09	; 9
    55c4:	60 e6       	ldi	r22, 0x60	; 96
    55c6:	75 e1       	ldi	r23, 0x15	; 21
    55c8:	8c e8       	ldi	r24, 0x8C	; 140
    55ca:	95 e1       	ldi	r25, 0x15	; 21
    55cc:	0e 94 78 20 	call	0x40f0	; 0x40f0 <draw_dual_trace_from_bram>
    55d0:	40 e0       	ldi	r20, 0x00	; 0
    55d2:	68 ef       	ldi	r22, 0xF8	; 248
    55d4:	71 e0       	ldi	r23, 0x01	; 1
    55d6:	80 91 57 01 	lds	r24, 0x0157	; 0x800157 <trigger_level_12bit>
    55da:	90 91 58 01 	lds	r25, 0x0158	; 0x800158 <trigger_level_12bit+0x1>
    55de:	0e 94 fe 23 	call	0x47fc	; 0x47fc <draw_trigger_line>
    55e2:	8c e8       	ldi	r24, 0x8C	; 140
    55e4:	95 e1       	ldi	r25, 0x15	; 21
    55e6:	0e 94 9e 1b 	call	0x373c	; 0x373c <draw_ground_marker>
    55ea:	80 e6       	ldi	r24, 0x60	; 96
    55ec:	95 e1       	ldi	r25, 0x15	; 21
    55ee:	0e 94 9e 1b 	call	0x373c	; 0x373c <draw_ground_marker>
    55f2:	0e 94 8b 25 	call	0x4b16	; 0x4b16 <drawPanTrack>
    55f6:	1f 91       	pop	r17
    55f8:	0f 91       	pop	r16
    55fa:	ef 90       	pop	r14
    55fc:	0c 94 e5 29 	jmp	0x53ca	; 0x53ca <aggiorna_grafica_cursori>

00005600 <.L5>:
    5600:	8f ef       	ldi	r24, 0xFF	; 255
    5602:	91 e0       	ldi	r25, 0x01	; 1
    5604:	0e 94 1c 25 	call	0x4a38	; 0x4a38 <tft_drawGrid_XY>
    5608:	04 ef       	ldi	r16, 0xF4	; 244
    560a:	11 e0       	ldi	r17, 0x01	; 1
    560c:	26 e7       	ldi	r18, 0x76	; 118
    560e:	35 e0       	ldi	r19, 0x05	; 5
    5610:	4e e5       	ldi	r20, 0x5E	; 94
    5612:	59 e0       	ldi	r21, 0x09	; 9
    5614:	60 e6       	ldi	r22, 0x60	; 96
    5616:	75 e1       	ldi	r23, 0x15	; 21
    5618:	8c e8       	ldi	r24, 0x8C	; 140
    561a:	95 e1       	ldi	r25, 0x15	; 21
    561c:	0e 94 61 23 	call	0x46c2	; 0x46c2 <draw_xy_trace>
    5620:	1f 91       	pop	r17
    5622:	0f 91       	pop	r16
    5624:	ef 90       	pop	r14
    5626:	08 95       	ret

00005628 <cycleCoupling>:
    5628:	0f 93       	push	r16
    562a:	1f 93       	push	r17
    562c:	dc 01       	movw	r26, r24
    562e:	1d 96       	adiw	r26, 0x0d	; 13
    5630:	ec 91       	ld	r30, X
    5632:	ef 5f       	subi	r30, 0xFF	; 255
    5634:	2e 2f       	mov	r18, r30
    5636:	e3 30       	cpi	r30, 0x03	; 3
    5638:	10 f0       	brcs	.+4      	; 0x563e <.L14>
    563a:	20 e0       	ldi	r18, 0x00	; 0
    563c:	e0 e0       	ldi	r30, 0x00	; 0

0000563e <.L14>:
    563e:	dc 01       	movw	r26, r24
    5640:	1d 96       	adiw	r26, 0x0d	; 13
    5642:	2c 93       	st	X, r18
    5644:	f0 e0       	ldi	r31, 0x00	; 0
    5646:	ee 0f       	add	r30, r30
    5648:	ff 1f       	adc	r31, r31
    564a:	e8 56       	subi	r30, 0x68	; 104
    564c:	fe 4f       	sbci	r31, 0xFE	; 254
    564e:	40 81       	ld	r20, Z
    5650:	51 81       	ldd	r21, Z+1	; 0x01
    5652:	0f ef       	ldi	r16, 0xFF	; 255
    5654:	11 e0       	ldi	r17, 0x01	; 1
    5656:	21 e0       	ldi	r18, 0x01	; 1
    5658:	66 e4       	ldi	r22, 0x46	; 70
    565a:	73 e0       	ldi	r23, 0x03	; 3
    565c:	80 e0       	ldi	r24, 0x00	; 0
    565e:	0e 94 fb 16 	call	0x2df6	; 0x2df6 <drawMenuButton>
    5662:	1f 91       	pop	r17
    5664:	0f 91       	pop	r16
    5666:	08 95       	ret

00005668 <toggleBWLimit>:
    5668:	0f 93       	push	r16
    566a:	1f 93       	push	r17
    566c:	fc 01       	movw	r30, r24
    566e:	92 89       	ldd	r25, Z+18	; 0x12
    5670:	81 e0       	ldi	r24, 0x01	; 1
    5672:	91 11       	cpse	r25, r1
    5674:	80 e0       	ldi	r24, 0x00	; 0
    5676:	82 8b       	std	Z+18, r24	; 0x12
    5678:	46 e0       	ldi	r20, 0x06	; 6
    567a:	54 e0       	ldi	r21, 0x04	; 4
    567c:	91 15       	cp	r25, r1
    567e:	11 f0       	breq	.+4      	; 0x5684 <.L18>
    5680:	4a e0       	ldi	r20, 0x0A	; 10
    5682:	54 e0       	ldi	r21, 0x04	; 4

00005684 <.L18>:
    5684:	0f ef       	ldi	r16, 0xFF	; 255
    5686:	11 e0       	ldi	r17, 0x01	; 1
    5688:	21 e0       	ldi	r18, 0x01	; 1
    568a:	65 e5       	ldi	r22, 0x55	; 85
    568c:	73 e0       	ldi	r23, 0x03	; 3
    568e:	81 e0       	ldi	r24, 0x01	; 1
    5690:	0e 94 fb 16 	call	0x2df6	; 0x2df6 <drawMenuButton>
    5694:	1f 91       	pop	r17
    5696:	0f 91       	pop	r16
    5698:	08 95       	ret

0000569a <aggiornaMoltiplicatoreSonda>:
    569a:	fc 01       	movw	r30, r24
    569c:	21 89       	ldd	r18, Z+17	; 0x11
    569e:	60 e2       	ldi	r22, 0x20	; 32
    56a0:	71 e4       	ldi	r23, 0x41	; 65
    56a2:	21 30       	cpi	r18, 0x01	; 1
    56a4:	31 f0       	breq	.+12     	; 0x56b2 <.L24>
    56a6:	60 e8       	ldi	r22, 0x80	; 128
    56a8:	7f e3       	ldi	r23, 0x3F	; 63
    56aa:	22 30       	cpi	r18, 0x02	; 2
    56ac:	11 f4       	brne	.+4      	; 0x56b2 <.L24>
    56ae:	68 ec       	ldi	r22, 0xC8	; 200
    56b0:	72 e4       	ldi	r23, 0x42	; 66

000056b2 <.L24>:
    56b2:	fc 01       	movw	r30, r24
    56b4:	13 8a       	std	Z+19, r1	; 0x13
    56b6:	14 8a       	std	Z+20, r1	; 0x14
    56b8:	65 8b       	std	Z+21, r22	; 0x15
    56ba:	76 8b       	std	Z+22, r23	; 0x16
    56bc:	08 95       	ret

000056be <cycleProbe>:
    56be:	0f 93       	push	r16
    56c0:	1f 93       	push	r17
    56c2:	8c 01       	movw	r16, r24
    56c4:	dc 01       	movw	r26, r24
    56c6:	51 96       	adiw	r26, 0x11	; 17
    56c8:	8c 91       	ld	r24, X
    56ca:	8f 5f       	subi	r24, 0xFF	; 255
    56cc:	83 30       	cpi	r24, 0x03	; 3
    56ce:	08 f0       	brcs	.+2      	; 0x56d2 <.L28>
    56d0:	80 e0       	ldi	r24, 0x00	; 0

000056d2 <.L28>:
    56d2:	f8 01       	movw	r30, r16
    56d4:	81 8b       	std	Z+17, r24	; 0x11
    56d6:	c8 01       	movw	r24, r16
    56d8:	0e 94 4d 2b 	call	0x569a	; 0x569a <aggiornaMoltiplicatoreSonda>
    56dc:	d8 01       	movw	r26, r16
    56de:	51 96       	adiw	r26, 0x11	; 17
    56e0:	ec 91       	ld	r30, X
    56e2:	4f e0       	ldi	r20, 0x0F	; 15
    56e4:	54 e0       	ldi	r21, 0x04	; 4
    56e6:	e3 30       	cpi	r30, 0x03	; 3
    56e8:	38 f4       	brcc	.+14     	; 0x56f8 <.L29>
    56ea:	f0 e0       	ldi	r31, 0x00	; 0
    56ec:	ee 0f       	add	r30, r30
    56ee:	ff 1f       	adc	r31, r31
    56f0:	ee 56       	subi	r30, 0x6E	; 110
    56f2:	fe 4f       	sbci	r31, 0xFE	; 254
    56f4:	40 81       	ld	r20, Z
    56f6:	51 81       	ldd	r21, Z+1	; 0x01

000056f8 <.L29>:
    56f8:	0f ef       	ldi	r16, 0xFF	; 255
    56fa:	11 e0       	ldi	r17, 0x01	; 1
    56fc:	21 e0       	ldi	r18, 0x01	; 1
    56fe:	64 e6       	ldi	r22, 0x64	; 100
    5700:	73 e0       	ldi	r23, 0x03	; 3
    5702:	83 e0       	ldi	r24, 0x03	; 3
    5704:	0e 94 fb 16 	call	0x2df6	; 0x2df6 <drawMenuButton>
    5708:	1f 91       	pop	r17
    570a:	0f 91       	pop	r16
    570c:	08 95       	ret

0000570e <toggleFineCoarse>:
    570e:	8f 92       	push	r8
    5710:	9f 92       	push	r9
    5712:	af 92       	push	r10
    5714:	bf 92       	push	r11
    5716:	cf 92       	push	r12
    5718:	df 92       	push	r13
    571a:	ef 92       	push	r14
    571c:	ff 92       	push	r15
    571e:	0f 93       	push	r16
    5720:	1f 93       	push	r17
    5722:	cf 93       	push	r28
    5724:	df 93       	push	r29
    5726:	cd b7       	in	r28, 0x3d	; 61
    5728:	de b7       	in	r29, 0x3e	; 62
    572a:	2a 97       	sbiw	r28, 0x0a	; 10
    572c:	0f b6       	in	r0, 0x3f	; 63
    572e:	f8 94       	cli
    5730:	de bf       	out	0x3e, r29	; 62
    5732:	0f be       	out	0x3f, r0	; 63
    5734:	cd bf       	out	0x3d, r28	; 61
    5736:	89 87       	std	Y+9, r24	; 0x09
    5738:	9a 87       	std	Y+10, r25	; 0x0a
    573a:	6f 83       	std	Y+7, r22	; 0x07
    573c:	78 87       	std	Y+8, r23	; 0x08
    573e:	dc 01       	movw	r26, r24
    5740:	5b 96       	adiw	r26, 0x1b	; 27
    5742:	8c 91       	ld	r24, X
    5744:	91 e0       	ldi	r25, 0x01	; 1
    5746:	81 11       	cpse	r24, r1
    5748:	90 e0       	ldi	r25, 0x00	; 0
    574a:	e9 85       	ldd	r30, Y+9	; 0x09
    574c:	fa 85       	ldd	r31, Y+10	; 0x0a
    574e:	93 8f       	std	Z+27, r25	; 0x1b
    5750:	11 e0       	ldi	r17, 0x01	; 1
    5752:	ec 58       	subi	r30, 0x8C	; 140
    5754:	f5 41       	sbci	r31, 0x15	; 21
    5756:	09 f0       	breq	.+2      	; 0x575a <.L34>
    5758:	13 e0       	ldi	r17, 0x03	; 3

0000575a <.L34>:
    575a:	a9 85       	ldd	r26, Y+9	; 0x09
    575c:	ba 85       	ldd	r27, Y+10	; 0x0a
    575e:	12 96       	adiw	r26, 0x02	; 2
    5760:	2d 91       	ld	r18, X+
    5762:	3d 91       	ld	r19, X+
    5764:	4d 91       	ld	r20, X+
    5766:	5d 91       	ld	r21, X+
    5768:	2b 83       	std	Y+3, r18	; 0x03
    576a:	3c 83       	std	Y+4, r19	; 0x04
    576c:	4d 83       	std	Y+5, r20	; 0x05
    576e:	5e 83       	std	Y+6, r21	; 0x06
    5770:	81 11       	cpse	r24, r1
    5772:	61 c0       	rjmp	.+194    	; 0x5836 <.L35>
    5774:	20 e0       	ldi	r18, 0x00	; 0
    5776:	30 e0       	ldi	r19, 0x00	; 0
    5778:	48 ec       	ldi	r20, 0xC8	; 200
    577a:	52 e4       	ldi	r21, 0x42	; 66
    577c:	6b 81       	ldd	r22, Y+3	; 0x03
    577e:	7c 81       	ldd	r23, Y+4	; 0x04
    5780:	8d 81       	ldd	r24, Y+5	; 0x05
    5782:	9e 81       	ldd	r25, Y+6	; 0x06
    5784:	0e 94 cc 34 	call	0x6998	; 0x6998 <__mulsf3>
    5788:	0e 94 8b 33 	call	0x6716	; 0x6716 <__fixsfsi>
    578c:	4b 01       	movw	r8, r22
    578e:	7b 01       	movw	r14, r22
    5790:	89 e1       	ldi	r24, 0x19	; 25
    5792:	94 e0       	ldi	r25, 0x04	; 4
    5794:	0e 94 5a 07 	call	0xeb4	; 0xeb4 <uart_print>
    5798:	81 2f       	mov	r24, r17
    579a:	90 e0       	ldi	r25, 0x00	; 0
    579c:	0e 94 b7 07 	call	0xf6e	; 0xf6e <uart_print_int16>
    57a0:	8d e1       	ldi	r24, 0x1D	; 29
    57a2:	94 e0       	ldi	r25, 0x04	; 4
    57a4:	0e 94 5a 07 	call	0xeb4	; 0xeb4 <uart_print>
    57a8:	c4 01       	movw	r24, r8
    57aa:	0e 94 b7 07 	call	0xf6e	; 0xf6e <uart_print_int16>
    57ae:	8b e5       	ldi	r24, 0x5B	; 91
    57b0:	92 e0       	ldi	r25, 0x02	; 2
    57b2:	0e 94 5a 07 	call	0xeb4	; 0xeb4 <uart_print>
    57b6:	41 e0       	ldi	r20, 0x01	; 1
    57b8:	50 e0       	ldi	r21, 0x00	; 0
    57ba:	61 e0       	ldi	r22, 0x01	; 1
    57bc:	81 2f       	mov	r24, r17
    57be:	0e 94 14 09 	call	0x1228	; 0x1228 <configure_encoder>
    57c2:	48 ee       	ldi	r20, 0xE8	; 232
    57c4:	53 e0       	ldi	r21, 0x03	; 3
    57c6:	62 e0       	ldi	r22, 0x02	; 2
    57c8:	81 2f       	mov	r24, r17
    57ca:	0e 94 14 09 	call	0x1228	; 0x1228 <configure_encoder>
    57ce:	41 e0       	ldi	r20, 0x01	; 1
    57d0:	50 e0       	ldi	r21, 0x00	; 0
    57d2:	63 e0       	ldi	r22, 0x03	; 3
    57d4:	81 2f       	mov	r24, r17
    57d6:	0e 94 14 09 	call	0x1228	; 0x1228 <configure_encoder>
    57da:	a4 01       	movw	r20, r8
    57dc:	60 e0       	ldi	r22, 0x00	; 0
    57de:	81 2f       	mov	r24, r17
    57e0:	0e 94 14 09 	call	0x1228	; 0x1228 <configure_encoder>

000057e4 <.L36>:
    57e4:	af 81       	ldd	r26, Y+7	; 0x07
    57e6:	b8 85       	ldd	r27, Y+8	; 0x08
    57e8:	ed 92       	st	X+, r14
    57ea:	fd 92       	st	X+, r15
    57ec:	e9 85       	ldd	r30, Y+9	; 0x09
    57ee:	fa 85       	ldd	r31, Y+10	; 0x0a
    57f0:	83 8d       	ldd	r24, Z+27	; 0x1b
    57f2:	21 e0       	ldi	r18, 0x01	; 1
    57f4:	44 e1       	ldi	r20, 0x14	; 20
    57f6:	54 e0       	ldi	r21, 0x04	; 4
    57f8:	81 11       	cpse	r24, r1
    57fa:	03 c0       	rjmp	.+6      	; 0x5802 <.L41>
    57fc:	20 e0       	ldi	r18, 0x00	; 0
    57fe:	4a eb       	ldi	r20, 0xBA	; 186
    5800:	53 e0       	ldi	r21, 0x03	; 3

00005802 <.L41>:
    5802:	0f ef       	ldi	r16, 0xFF	; 255
    5804:	11 e0       	ldi	r17, 0x01	; 1
    5806:	6e e5       	ldi	r22, 0x5E	; 94
    5808:	73 e0       	ldi	r23, 0x03	; 3
    580a:	82 e0       	ldi	r24, 0x02	; 2
    580c:	0e 94 fb 16 	call	0x2df6	; 0x2df6 <drawMenuButton>
    5810:	2a 96       	adiw	r28, 0x0a	; 10
    5812:	0f b6       	in	r0, 0x3f	; 63
    5814:	f8 94       	cli
    5816:	de bf       	out	0x3e, r29	; 62
    5818:	0f be       	out	0x3f, r0	; 63
    581a:	cd bf       	out	0x3d, r28	; 61
    581c:	df 91       	pop	r29
    581e:	cf 91       	pop	r28
    5820:	1f 91       	pop	r17
    5822:	0f 91       	pop	r16
    5824:	ff 90       	pop	r15
    5826:	ef 90       	pop	r14
    5828:	df 90       	pop	r13
    582a:	cf 90       	pop	r12
    582c:	bf 90       	pop	r11
    582e:	af 90       	pop	r10
    5830:	9f 90       	pop	r9
    5832:	8f 90       	pop	r8
    5834:	08 95       	ret

00005836 <.L35>:
    5836:	e6 e0       	ldi	r30, 0x06	; 6
    5838:	f2 e0       	ldi	r31, 0x02	; 2
    583a:	e9 83       	std	Y+1, r30	; 0x01
    583c:	fa 83       	std	Y+2, r31	; 0x02
    583e:	00 e0       	ldi	r16, 0x00	; 0
    5840:	81 2c       	mov	r8, r1
    5842:	91 2c       	mov	r9, r1
    5844:	92 e4       	ldi	r25, 0x42	; 66
    5846:	a9 2e       	mov	r10, r25
    5848:	98 ec       	ldi	r25, 0xC8	; 200
    584a:	b9 2e       	mov	r11, r25

0000584c <.L39>:
    584c:	a9 81       	ldd	r26, Y+1	; 0x01
    584e:	ba 81       	ldd	r27, Y+2	; 0x02
    5850:	2d 91       	ld	r18, X+
    5852:	3d 91       	ld	r19, X+
    5854:	4d 91       	ld	r20, X+
    5856:	5d 91       	ld	r21, X+
    5858:	a9 83       	std	Y+1, r26	; 0x01
    585a:	ba 83       	std	Y+2, r27	; 0x02
    585c:	6b 81       	ldd	r22, Y+3	; 0x03
    585e:	7c 81       	ldd	r23, Y+4	; 0x04
    5860:	8d 81       	ldd	r24, Y+5	; 0x05
    5862:	9e 81       	ldd	r25, Y+6	; 0x06
    5864:	0e 94 a7 32 	call	0x654e	; 0x654e <__subsf3>
    5868:	6b 01       	movw	r12, r22
    586a:	7c 01       	movw	r14, r24
    586c:	e8 94       	clt
    586e:	f7 f8       	bld	r15, 7
    5870:	94 01       	movw	r18, r8
    5872:	4b 2d       	mov	r20, r11
    5874:	5a 2d       	mov	r21, r10
    5876:	b6 01       	movw	r22, r12
    5878:	c7 01       	movw	r24, r14
    587a:	0e 94 14 33 	call	0x6628	; 0x6628 <__cmpsf2>
    587e:	87 ff       	sbrs	r24, 7
    5880:	06 c0       	rjmp	.+12     	; 0x588e <.L37>
    5882:	e9 85       	ldd	r30, Y+9	; 0x09
    5884:	fa 85       	ldd	r31, Y+10	; 0x0a
    5886:	07 87       	std	Z+15, r16	; 0x0f
    5888:	46 01       	movw	r8, r12
    588a:	be 2c       	mov	r11, r14
    588c:	af 2c       	mov	r10, r15

0000588e <.L37>:
    588e:	0f 5f       	subi	r16, 0xFF	; 255
    5890:	0a 30       	cpi	r16, 0x0A	; 10
    5892:	e1 f6       	brne	.-72     	; 0x584c <.L39>
    5894:	a9 85       	ldd	r26, Y+9	; 0x09
    5896:	ba 85       	ldd	r27, Y+10	; 0x0a
    5898:	1f 96       	adiw	r26, 0x0f	; 15
    589a:	ec 91       	ld	r30, X
    589c:	b4 e0       	ldi	r27, 0x04	; 4
    589e:	eb 9f       	mul	r30, r27
    58a0:	f0 01       	movw	r30, r0
    58a2:	11 24       	eor	r1, r1
    58a4:	ea 5f       	subi	r30, 0xFA	; 250
    58a6:	fd 4f       	sbci	r31, 0xFD	; 253
    58a8:	80 81       	ld	r24, Z
    58aa:	91 81       	ldd	r25, Z+1	; 0x01
    58ac:	a2 81       	ldd	r26, Z+2	; 0x02
    58ae:	b3 81       	ldd	r27, Z+3	; 0x03
    58b0:	e9 85       	ldd	r30, Y+9	; 0x09
    58b2:	fa 85       	ldd	r31, Y+10	; 0x0a
    58b4:	82 83       	std	Z+2, r24	; 0x02
    58b6:	93 83       	std	Z+3, r25	; 0x03
    58b8:	a4 83       	std	Z+4, r26	; 0x04
    58ba:	b5 83       	std	Z+5, r27	; 0x05
    58bc:	40 e0       	ldi	r20, 0x00	; 0
    58be:	50 e0       	ldi	r21, 0x00	; 0
    58c0:	61 e0       	ldi	r22, 0x01	; 1
    58c2:	81 2f       	mov	r24, r17
    58c4:	0e 94 14 09 	call	0x1228	; 0x1228 <configure_encoder>
    58c8:	49 e0       	ldi	r20, 0x09	; 9
    58ca:	50 e0       	ldi	r21, 0x00	; 0
    58cc:	62 e0       	ldi	r22, 0x02	; 2
    58ce:	81 2f       	mov	r24, r17
    58d0:	0e 94 14 09 	call	0x1228	; 0x1228 <configure_encoder>
    58d4:	41 e0       	ldi	r20, 0x01	; 1
    58d6:	50 e0       	ldi	r21, 0x00	; 0
    58d8:	63 e0       	ldi	r22, 0x03	; 3
    58da:	81 2f       	mov	r24, r17
    58dc:	0e 94 14 09 	call	0x1228	; 0x1228 <configure_encoder>
    58e0:	a9 85       	ldd	r26, Y+9	; 0x09
    58e2:	ba 85       	ldd	r27, Y+10	; 0x0a
    58e4:	1f 96       	adiw	r26, 0x0f	; 15
    58e6:	4c 91       	ld	r20, X
    58e8:	50 e0       	ldi	r21, 0x00	; 0
    58ea:	60 e0       	ldi	r22, 0x00	; 0
    58ec:	81 2f       	mov	r24, r17
    58ee:	0e 94 14 09 	call	0x1228	; 0x1228 <configure_encoder>
    58f2:	e9 85       	ldd	r30, Y+9	; 0x09
    58f4:	fa 85       	ldd	r31, Y+10	; 0x0a
    58f6:	e7 84       	ldd	r14, Z+15	; 0x0f
    58f8:	f1 2c       	mov	r15, r1
    58fa:	74 cf       	rjmp	.-280    	; 0x57e4 <.L36>

000058fc <toggleInvert>:
    58fc:	0f 93       	push	r16
    58fe:	1f 93       	push	r17
    5900:	fc 01       	movw	r30, r24
    5902:	94 85       	ldd	r25, Z+12	; 0x0c
    5904:	21 e0       	ldi	r18, 0x01	; 1
    5906:	91 11       	cpse	r25, r1
    5908:	20 e0       	ldi	r18, 0x00	; 0
    590a:	24 87       	std	Z+12, r18	; 0x0c
    590c:	4c e0       	ldi	r20, 0x0C	; 12
    590e:	53 e0       	ldi	r21, 0x03	; 3
    5910:	91 15       	cp	r25, r1
    5912:	11 f0       	breq	.+4      	; 0x5918 <.L52>
    5914:	4f e0       	ldi	r20, 0x0F	; 15
    5916:	53 e0       	ldi	r21, 0x03	; 3

00005918 <.L52>:
    5918:	0f ef       	ldi	r16, 0xFF	; 255
    591a:	11 e0       	ldi	r17, 0x01	; 1
    591c:	6a e6       	ldi	r22, 0x6A	; 106
    591e:	73 e0       	ldi	r23, 0x03	; 3
    5920:	84 e0       	ldi	r24, 0x04	; 4
    5922:	0e 94 fb 16 	call	0x2df6	; 0x2df6 <drawMenuButton>
    5926:	1f 91       	pop	r17
    5928:	0f 91       	pop	r16
    592a:	08 95       	ret

0000592c <handle_channel_button>:
    592c:	0f 93       	push	r16
    592e:	1f 93       	push	r17
    5930:	cf 93       	push	r28
    5932:	df 93       	push	r29
    5934:	91 e0       	ldi	r25, 0x01	; 1
    5936:	a0 e6       	ldi	r26, 0x60	; 96
    5938:	b5 e1       	ldi	r27, 0x15	; 21
    593a:	ec e8       	ldi	r30, 0x8C	; 140
    593c:	f5 e1       	ldi	r31, 0x15	; 21
    593e:	81 30       	cpi	r24, 0x01	; 1
    5940:	29 f0       	breq	.+10     	; 0x594c <.L58>
    5942:	ac e8       	ldi	r26, 0x8C	; 140
    5944:	b5 e1       	ldi	r27, 0x15	; 21
    5946:	e0 e6       	ldi	r30, 0x60	; 96
    5948:	f5 e1       	ldi	r31, 0x15	; 21
    594a:	92 e0       	ldi	r25, 0x02	; 2

0000594c <.L58>:
    594c:	20 81       	ld	r18, Z
    594e:	21 11       	cpse	r18, r1
    5950:	0e c0       	rjmp	.+28     	; 0x596e <.L59>
    5952:	81 e0       	ldi	r24, 0x01	; 1
    5954:	80 83       	st	Z, r24

00005956 <.L61>:
    5956:	81 e0       	ldi	r24, 0x01	; 1
    5958:	81 83       	std	Z+1, r24	; 0x01
    595a:	11 96       	adiw	r26, 0x01	; 1
    595c:	1c 92       	st	X, r1

0000595e <.L60>:
    595e:	90 93 5f 01 	sts	0x015F, r25	; 0x80015f <currentMenu>
    5962:	df 91       	pop	r29
    5964:	cf 91       	pop	r28
    5966:	1f 91       	pop	r17
    5968:	0f 91       	pop	r16
    596a:	0c 94 56 17 	jmp	0x2eac	; 0x2eac <updateSidebarLabels>

0000596e <.L59>:
    596e:	21 81       	ldd	r18, Z+1	; 0x01
    5970:	21 15       	cp	r18, r1
    5972:	89 f3       	breq	.-30     	; 0x5956 <.L61>
    5974:	20 91 5f 01 	lds	r18, 0x015F	; 0x80015f <currentMenu>
    5978:	29 13       	cpse	r18, r25
    597a:	ed cf       	rjmp	.-38     	; 0x5956 <.L61>
    597c:	81 50       	subi	r24, 0x01	; 1
    597e:	10 82       	st	Z, r1
    5980:	11 82       	std	Z+1, r1	; 0x01
    5982:	00 e0       	ldi	r16, 0x00	; 0
    5984:	10 e0       	ldi	r17, 0x00	; 0
    5986:	c8 2f       	mov	r28, r24
    5988:	d0 e0       	ldi	r29, 0x00	; 0
    598a:	cc 0f       	add	r28, r28
    598c:	dd 1f       	adc	r29, r29
    598e:	c0 5a       	subi	r28, 0xA0	; 160
    5990:	de 4f       	sbci	r29, 0xFE	; 254

00005992 <.L62>:
    5992:	c8 01       	movw	r24, r16
    5994:	88 0f       	add	r24, r24
    5996:	99 1f       	adc	r25, r25
    5998:	e8 81       	ld	r30, Y
    599a:	f9 81       	ldd	r31, Y+1	; 0x01
    599c:	e8 0f       	add	r30, r24
    599e:	f9 1f       	adc	r31, r25
    59a0:	60 81       	ld	r22, Z
    59a2:	71 81       	ldd	r23, Z+1	; 0x01
    59a4:	40 e0       	ldi	r20, 0x00	; 0
    59a6:	50 e0       	ldi	r21, 0x00	; 0
    59a8:	c8 01       	movw	r24, r16
    59aa:	44 96       	adiw	r24, 0x14	; 20
    59ac:	0e 94 93 09 	call	0x1326	; 0x1326 <vga_pixel_fast>
    59b0:	0f 5f       	subi	r16, 0xFF	; 255
    59b2:	1f 4f       	sbci	r17, 0xFF	; 255
    59b4:	04 3f       	cpi	r16, 0xF4	; 244
    59b6:	81 e0       	ldi	r24, 0x01	; 1
    59b8:	18 07       	cpc	r17, r24
    59ba:	59 f7       	brne	.-42     	; 0x5992 <.L62>
    59bc:	90 e0       	ldi	r25, 0x00	; 0
    59be:	cf cf       	rjmp	.-98     	; 0x595e <.L60>

000059c0 <init_channels>:
    59c0:	81 e0       	ldi	r24, 0x01	; 1
    59c2:	80 93 8c 15 	sts	0x158C, r24	; 0x80158c <ch1>
    59c6:	80 93 8d 15 	sts	0x158D, r24	; 0x80158d <ch1+0x1>
    59ca:	a0 e8       	ldi	r26, 0x80	; 128
    59cc:	bf e3       	ldi	r27, 0x3F	; 63
    59ce:	10 92 8e 15 	sts	0x158E, r1	; 0x80158e <ch1+0x2>
    59d2:	10 92 8f 15 	sts	0x158F, r1	; 0x80158f <ch1+0x3>
    59d6:	a0 93 90 15 	sts	0x1590, r26	; 0x801590 <ch1+0x4>
    59da:	b0 93 91 15 	sts	0x1591, r27	; 0x801591 <ch1+0x5>
    59de:	2c e3       	ldi	r18, 0x3C	; 60
    59e0:	20 93 96 15 	sts	0x1596, r18	; 0x801596 <ch1+0xa>
    59e4:	10 92 97 15 	sts	0x1597, r1	; 0x801597 <ch1+0xb>
    59e8:	10 92 99 15 	sts	0x1599, r1	; 0x801599 <ch1+0xd>
    59ec:	10 92 9d 15 	sts	0x159D, r1	; 0x80159d <ch1+0x11>
    59f0:	10 92 98 15 	sts	0x1598, r1	; 0x801598 <ch1+0xc>
    59f4:	26 e0       	ldi	r18, 0x06	; 6
    59f6:	20 93 9b 15 	sts	0x159B, r18	; 0x80159b <ch1+0xf>
    59fa:	48 ef       	ldi	r20, 0xF8	; 248
    59fc:	51 e0       	ldi	r21, 0x01	; 1
    59fe:	40 93 aa 15 	sts	0x15AA, r20	; 0x8015aa <ch1+0x1e>
    5a02:	50 93 ab 15 	sts	0x15AB, r21	; 0x8015ab <ch1+0x1f>
    5a06:	10 92 9e 15 	sts	0x159E, r1	; 0x80159e <ch1+0x12>
    5a0a:	10 92 9f 15 	sts	0x159F, r1	; 0x80159f <ch1+0x13>
    5a0e:	10 92 a0 15 	sts	0x15A0, r1	; 0x8015a0 <ch1+0x14>
    5a12:	a0 93 a1 15 	sts	0x15A1, r26	; 0x8015a1 <ch1+0x15>
    5a16:	b0 93 a2 15 	sts	0x15A2, r27	; 0x8015a2 <ch1+0x16>
    5a1a:	10 92 60 15 	sts	0x1560, r1	; 0x801560 <ch2>
    5a1e:	10 92 61 15 	sts	0x1561, r1	; 0x801561 <ch2+0x1>
    5a22:	10 92 62 15 	sts	0x1562, r1	; 0x801562 <ch2+0x2>
    5a26:	10 92 63 15 	sts	0x1563, r1	; 0x801563 <ch2+0x3>
    5a2a:	a0 93 64 15 	sts	0x1564, r26	; 0x801564 <ch2+0x4>
    5a2e:	b0 93 65 15 	sts	0x1565, r27	; 0x801565 <ch2+0x5>
    5a32:	46 e4       	ldi	r20, 0x46	; 70
    5a34:	40 93 6a 15 	sts	0x156A, r20	; 0x80156a <ch2+0xa>
    5a38:	10 92 6b 15 	sts	0x156B, r1	; 0x80156b <ch2+0xb>
    5a3c:	10 92 6d 15 	sts	0x156D, r1	; 0x80156d <ch2+0xd>
    5a40:	10 92 71 15 	sts	0x1571, r1	; 0x801571 <ch2+0x11>
    5a44:	10 92 6c 15 	sts	0x156C, r1	; 0x80156c <ch2+0xc>
    5a48:	20 93 6f 15 	sts	0x156F, r18	; 0x80156f <ch2+0xf>
    5a4c:	2f e3       	ldi	r18, 0x3F	; 63
    5a4e:	20 93 7e 15 	sts	0x157E, r18	; 0x80157e <ch2+0x1e>
    5a52:	10 92 7f 15 	sts	0x157F, r1	; 0x80157f <ch2+0x1f>
    5a56:	10 92 72 15 	sts	0x1572, r1	; 0x801572 <ch2+0x12>
    5a5a:	10 92 73 15 	sts	0x1573, r1	; 0x801573 <ch2+0x13>
    5a5e:	10 92 74 15 	sts	0x1574, r1	; 0x801574 <ch2+0x14>
    5a62:	a0 93 75 15 	sts	0x1575, r26	; 0x801575 <ch2+0x15>
    5a66:	b0 93 76 15 	sts	0x1576, r27	; 0x801576 <ch2+0x16>
    5a6a:	08 95       	ret

00005a6c <updateChannelVoltDiv>:
    5a6c:	0f 93       	push	r16
    5a6e:	1f 93       	push	r17
    5a70:	cf 93       	push	r28
    5a72:	df 93       	push	r29
    5a74:	00 d0       	rcall	.+0      	; 0x5a76 <L0>

00005a76 <L0>:
    5a76:	00 d0       	rcall	.+0      	; 0x5a78 <L0>

00005a78 <L0>:
    5a78:	cd b7       	in	r28, 0x3d	; 61
    5a7a:	de b7       	in	r29, 0x3e	; 62
    5a7c:	8b 83       	std	Y+3, r24	; 0x03
    5a7e:	9c 83       	std	Y+4, r25	; 0x04
    5a80:	8b 01       	movw	r16, r22
    5a82:	49 83       	std	Y+1, r20	; 0x01
    5a84:	5a 83       	std	Y+2, r21	; 0x02
    5a86:	fa 01       	movw	r30, r20
    5a88:	80 81       	ld	r24, Z
    5a8a:	91 81       	ldd	r25, Z+1	; 0x01
    5a8c:	86 17       	cp	r24, r22
    5a8e:	97 07       	cpc	r25, r23
    5a90:	09 f4       	brne	.+2      	; 0x5a94 <L0+0x2>

00005a92 <L0>:
    5a92:	65 c0       	rjmp	.+202    	; 0x5b5e <.L69>
    5a94:	eb 81       	ldd	r30, Y+3	; 0x03
    5a96:	fc 81       	ldd	r31, Y+4	; 0x04
    5a98:	83 8d       	ldd	r24, Z+27	; 0x1b
    5a9a:	81 11       	cpse	r24, r1
    5a9c:	51 c0       	rjmp	.+162    	; 0x5b40 <.L72>
    5a9e:	67 87       	std	Z+15, r22	; 0x0f
    5aa0:	e6 2f       	mov	r30, r22
    5aa2:	f0 e0       	ldi	r31, 0x00	; 0
    5aa4:	ee 0f       	add	r30, r30
    5aa6:	ff 1f       	adc	r31, r31
    5aa8:	ee 0f       	add	r30, r30
    5aaa:	ff 1f       	adc	r31, r31
    5aac:	ea 5f       	subi	r30, 0xFA	; 250
    5aae:	fd 4f       	sbci	r31, 0xFD	; 253
    5ab0:	30 81       	ld	r19, Z
    5ab2:	21 81       	ldd	r18, Z+1	; 0x01
    5ab4:	82 81       	ldd	r24, Z+2	; 0x02
    5ab6:	93 81       	ldd	r25, Z+3	; 0x03

00005ab8 <.L73>:
    5ab8:	bc 01       	movw	r22, r24
    5aba:	eb 81       	ldd	r30, Y+3	; 0x03
    5abc:	fc 81       	ldd	r31, Y+4	; 0x04
    5abe:	32 83       	std	Z+2, r19	; 0x02
    5ac0:	23 83       	std	Z+3, r18	; 0x03
    5ac2:	84 83       	std	Z+4, r24	; 0x04
    5ac4:	75 83       	std	Z+5, r23	; 0x05
    5ac6:	e9 81       	ldd	r30, Y+1	; 0x01
    5ac8:	fa 81       	ldd	r31, Y+2	; 0x02
    5aca:	00 83       	st	Z, r16
    5acc:	11 83       	std	Z+1, r17	; 0x01
    5ace:	80 91 54 01 	lds	r24, 0x0154	; 0x800154 <trigger_source>
    5ad2:	81 30       	cpi	r24, 0x01	; 1
    5ad4:	a9 f4       	brne	.+42     	; 0x5b00 <.L74>
    5ad6:	8b 81       	ldd	r24, Y+3	; 0x03
    5ad8:	9c 81       	ldd	r25, Y+4	; 0x04
    5ada:	8c 58       	subi	r24, 0x8C	; 140
    5adc:	95 41       	sbci	r25, 0x15	; 21
    5ade:	09 f0       	breq	.+2      	; 0x5ae2 <L0+0x2>

00005ae0 <L0>:
    5ae0:	3e c0       	rjmp	.+124    	; 0x5b5e <.L69>
    5ae2:	60 91 8e 15 	lds	r22, 0x158E	; 0x80158e <ch1+0x2>
    5ae6:	70 91 8f 15 	lds	r23, 0x158F	; 0x80158f <ch1+0x3>
    5aea:	80 91 90 15 	lds	r24, 0x1590	; 0x801590 <ch1+0x4>
    5aee:	90 91 91 15 	lds	r25, 0x1591	; 0x801591 <ch1+0x5>
    5af2:	0e 94 fe 25 	call	0x4bfc	; 0x4bfc <calcola_step_trigger>
    5af6:	ac 01       	movw	r20, r24
    5af8:	63 e0       	ldi	r22, 0x03	; 3
    5afa:	85 e0       	ldi	r24, 0x05	; 5
    5afc:	0e 94 14 09 	call	0x1228	; 0x1228 <configure_encoder>

00005b00 <.L74>:
    5b00:	80 91 54 01 	lds	r24, 0x0154	; 0x800154 <trigger_source>
    5b04:	82 30       	cpi	r24, 0x02	; 2
    5b06:	59 f5       	brne	.+86     	; 0x5b5e <.L69>
    5b08:	8b 81       	ldd	r24, Y+3	; 0x03
    5b0a:	9c 81       	ldd	r25, Y+4	; 0x04
    5b0c:	80 56       	subi	r24, 0x60	; 96
    5b0e:	95 41       	sbci	r25, 0x15	; 21
    5b10:	31 f5       	brne	.+76     	; 0x5b5e <.L69>
    5b12:	60 91 62 15 	lds	r22, 0x1562	; 0x801562 <ch2+0x2>
    5b16:	70 91 63 15 	lds	r23, 0x1563	; 0x801563 <ch2+0x3>
    5b1a:	80 91 64 15 	lds	r24, 0x1564	; 0x801564 <ch2+0x4>
    5b1e:	90 91 65 15 	lds	r25, 0x1565	; 0x801565 <ch2+0x5>
    5b22:	0e 94 fe 25 	call	0x4bfc	; 0x4bfc <calcola_step_trigger>
    5b26:	ac 01       	movw	r20, r24
    5b28:	63 e0       	ldi	r22, 0x03	; 3
    5b2a:	85 e0       	ldi	r24, 0x05	; 5
    5b2c:	0f 90       	pop	r0
    5b2e:	0f 90       	pop	r0
    5b30:	0f 90       	pop	r0
    5b32:	0f 90       	pop	r0
    5b34:	df 91       	pop	r29
    5b36:	cf 91       	pop	r28
    5b38:	1f 91       	pop	r17
    5b3a:	0f 91       	pop	r16
    5b3c:	0c 94 14 09 	jmp	0x1228	; 0x1228 <configure_encoder>

00005b40 <.L72>:
    5b40:	81 2f       	mov	r24, r17
    5b42:	88 0f       	add	r24, r24
    5b44:	88 0b       	sbc	r24, r24
    5b46:	98 2f       	mov	r25, r24
    5b48:	0e 94 c9 33 	call	0x6792	; 0x6792 <__floatsisf>
    5b4c:	20 e0       	ldi	r18, 0x00	; 0
    5b4e:	30 e0       	ldi	r19, 0x00	; 0
    5b50:	48 ec       	ldi	r20, 0xC8	; 200
    5b52:	52 e4       	ldi	r21, 0x42	; 66
    5b54:	0e 94 19 33 	call	0x6632	; 0x6632 <__divsf3>
    5b58:	36 2f       	mov	r19, r22
    5b5a:	27 2f       	mov	r18, r23
    5b5c:	ad cf       	rjmp	.-166    	; 0x5ab8 <.L73>

00005b5e <.L69>:
    5b5e:	0f 90       	pop	r0
    5b60:	0f 90       	pop	r0
    5b62:	0f 90       	pop	r0
    5b64:	0f 90       	pop	r0
    5b66:	df 91       	pop	r29
    5b68:	cf 91       	pop	r28
    5b6a:	1f 91       	pop	r17
    5b6c:	0f 91       	pop	r16
    5b6e:	08 95       	ret

00005b70 <set_display_mode>:
    5b70:	0f 93       	push	r16
    5b72:	1f 93       	push	r17
    5b74:	80 93 59 15 	sts	0x1559, r24	; 0x801559 <is_xy_mode>
    5b78:	00 e0       	ldi	r16, 0x00	; 0
    5b7a:	10 e0       	ldi	r17, 0x00	; 0
    5b7c:	2c e7       	ldi	r18, 0x7C	; 124
    5b7e:	31 e0       	ldi	r19, 0x01	; 1
    5b80:	44 ef       	ldi	r20, 0xF4	; 244
    5b82:	51 e0       	ldi	r21, 0x01	; 1
    5b84:	68 e2       	ldi	r22, 0x28	; 40
    5b86:	70 e0       	ldi	r23, 0x00	; 0
    5b88:	84 e1       	ldi	r24, 0x14	; 20
    5b8a:	90 e0       	ldi	r25, 0x00	; 0
    5b8c:	0e 94 eb 09 	call	0x13d6	; 0x13d6 <vga_fillRect>
    5b90:	80 91 59 15 	lds	r24, 0x1559	; 0x801559 <is_xy_mode>
    5b94:	81 15       	cp	r24, r1
    5b96:	29 f0       	breq	.+10     	; 0x5ba2 <.L77>
    5b98:	81 e0       	ldi	r24, 0x01	; 1
    5b9a:	80 93 8c 15 	sts	0x158C, r24	; 0x80158c <ch1>
    5b9e:	80 93 60 15 	sts	0x1560, r24	; 0x801560 <ch2>

00005ba2 <.L77>:
    5ba2:	1f 91       	pop	r17
    5ba4:	0f 91       	pop	r16
    5ba6:	0c 94 56 17 	jmp	0x2eac	; 0x2eac <updateSidebarLabels>

00005baa <vga_test_bars>:
    5baa:	cf 92       	push	r12
    5bac:	df 92       	push	r13
    5bae:	ef 92       	push	r14
    5bb0:	ff 92       	push	r15
    5bb2:	0f 93       	push	r16
    5bb4:	1f 93       	push	r17
    5bb6:	cf 93       	push	r28
    5bb8:	df 93       	push	r29
    5bba:	cd b7       	in	r28, 0x3d	; 61
    5bbc:	de b7       	in	r29, 0x3e	; 62
    5bbe:	60 97       	sbiw	r28, 0x10	; 16
    5bc0:	0f b6       	in	r0, 0x3f	; 63
    5bc2:	f8 94       	cli
    5bc4:	de bf       	out	0x3e, r29	; 62
    5bc6:	0f be       	out	0x3f, r0	; 63
    5bc8:	cd bf       	out	0x3d, r28	; 61
    5bca:	80 e1       	ldi	r24, 0x10	; 16
    5bcc:	e2 e8       	ldi	r30, 0x82	; 130
    5bce:	f1 e0       	ldi	r31, 0x01	; 1
    5bd0:	de 01       	movw	r26, r28
    5bd2:	11 96       	adiw	r26, 0x01	; 1

00005bd4 <.L01>:
    5bd4:	01 90       	ld	r0, Z+
    5bd6:	0d 92       	st	X+, r0
    5bd8:	8a 95       	dec	r24
    5bda:	e1 f7       	brne	.-8      	; 0x5bd4 <.L01>
    5bdc:	ce 01       	movw	r24, r28
    5bde:	01 96       	adiw	r24, 0x01	; 1
    5be0:	7c 01       	movw	r14, r24
    5be2:	c1 2c       	mov	r12, r1
    5be4:	d1 2c       	mov	r13, r1

00005be6 <.L82>:
    5be6:	f7 01       	movw	r30, r14
    5be8:	01 91       	ld	r16, Z+
    5bea:	11 91       	ld	r17, Z+
    5bec:	7f 01       	movw	r14, r30
    5bee:	20 ee       	ldi	r18, 0xE0	; 224
    5bf0:	31 e0       	ldi	r19, 0x01	; 1
    5bf2:	40 e5       	ldi	r20, 0x50	; 80
    5bf4:	50 e0       	ldi	r21, 0x00	; 0
    5bf6:	60 e0       	ldi	r22, 0x00	; 0
    5bf8:	70 e0       	ldi	r23, 0x00	; 0
    5bfa:	c6 01       	movw	r24, r12
    5bfc:	0e 94 eb 09 	call	0x13d6	; 0x13d6 <vga_fillRect>
    5c00:	f0 e5       	ldi	r31, 0x50	; 80
    5c02:	cf 0e       	add	r12, r31
    5c04:	d1 1c       	adc	r13, r1
    5c06:	80 e8       	ldi	r24, 0x80	; 128
    5c08:	c8 16       	cp	r12, r24
    5c0a:	82 e0       	ldi	r24, 0x02	; 2
    5c0c:	d8 06       	cpc	r13, r24
    5c0e:	59 f7       	brne	.-42     	; 0x5be6 <.L82>
    5c10:	60 96       	adiw	r28, 0x10	; 16
    5c12:	0f b6       	in	r0, 0x3f	; 63
    5c14:	f8 94       	cli
    5c16:	de bf       	out	0x3e, r29	; 62
    5c18:	0f be       	out	0x3f, r0	; 63
    5c1a:	cd bf       	out	0x3d, r28	; 61
    5c1c:	df 91       	pop	r29
    5c1e:	cf 91       	pop	r28
    5c20:	1f 91       	pop	r17
    5c22:	0f 91       	pop	r16
    5c24:	ff 90       	pop	r15
    5c26:	ef 90       	pop	r14
    5c28:	df 90       	pop	r13
    5c2a:	cf 90       	pop	r12
    5c2c:	08 95       	ret

00005c2e <vga_test_brightness>:
    5c2e:	8f 92       	push	r8
    5c30:	9f 92       	push	r9
    5c32:	af 92       	push	r10
    5c34:	bf 92       	push	r11
    5c36:	cf 92       	push	r12
    5c38:	df 92       	push	r13
    5c3a:	ef 92       	push	r14
    5c3c:	ff 92       	push	r15
    5c3e:	0f 93       	push	r16
    5c40:	1f 93       	push	r17
    5c42:	cf 93       	push	r28
    5c44:	df 93       	push	r29
    5c46:	c1 2c       	mov	r12, r1
    5c48:	d1 2c       	mov	r13, r1
    5c4a:	56 01       	movw	r10, r12
    5c4c:	45 01       	movw	r8, r10
    5c4e:	e5 01       	movw	r28, r10
    5c50:	75 01       	movw	r14, r10

00005c52 <.L85>:
    5c52:	84 01       	movw	r16, r8
    5c54:	28 e7       	ldi	r18, 0x78	; 120
    5c56:	30 e0       	ldi	r19, 0x00	; 0
    5c58:	40 e5       	ldi	r20, 0x50	; 80
    5c5a:	50 e0       	ldi	r21, 0x00	; 0
    5c5c:	60 e0       	ldi	r22, 0x00	; 0
    5c5e:	70 e0       	ldi	r23, 0x00	; 0
    5c60:	ce 01       	movw	r24, r28
    5c62:	0e 94 eb 09 	call	0x13d6	; 0x13d6 <vga_fillRect>
    5c66:	85 01       	movw	r16, r10
    5c68:	28 e7       	ldi	r18, 0x78	; 120
    5c6a:	30 e0       	ldi	r19, 0x00	; 0
    5c6c:	40 e5       	ldi	r20, 0x50	; 80
    5c6e:	50 e0       	ldi	r21, 0x00	; 0
    5c70:	b9 01       	movw	r22, r18
    5c72:	ce 01       	movw	r24, r28
    5c74:	0e 94 eb 09 	call	0x13d6	; 0x13d6 <vga_fillRect>
    5c78:	87 01       	movw	r16, r14
    5c7a:	28 e7       	ldi	r18, 0x78	; 120
    5c7c:	30 e0       	ldi	r19, 0x00	; 0
    5c7e:	40 e5       	ldi	r20, 0x50	; 80
    5c80:	50 e0       	ldi	r21, 0x00	; 0
    5c82:	60 ef       	ldi	r22, 0xF0	; 240
    5c84:	70 e0       	ldi	r23, 0x00	; 0
    5c86:	ce 01       	movw	r24, r28
    5c88:	0e 94 eb 09 	call	0x13d6	; 0x13d6 <vga_fillRect>
    5c8c:	86 01       	movw	r16, r12
    5c8e:	28 e7       	ldi	r18, 0x78	; 120
    5c90:	30 e0       	ldi	r19, 0x00	; 0
    5c92:	40 e5       	ldi	r20, 0x50	; 80
    5c94:	50 e0       	ldi	r21, 0x00	; 0
    5c96:	68 e6       	ldi	r22, 0x68	; 104
    5c98:	71 e0       	ldi	r23, 0x01	; 1
    5c9a:	ce 01       	movw	r24, r28
    5c9c:	0e 94 eb 09 	call	0x13d6	; 0x13d6 <vga_fillRect>
    5ca0:	8f ef       	ldi	r24, 0xFF	; 255
    5ca2:	e8 1a       	sub	r14, r24
    5ca4:	f8 0a       	sbc	r15, r24
    5ca6:	c0 5b       	subi	r28, 0xB0	; 176
    5ca8:	df 4f       	sbci	r29, 0xFF	; 255
    5caa:	80 e4       	ldi	r24, 0x40	; 64
    5cac:	88 0e       	add	r8, r24
    5cae:	91 1c       	adc	r9, r1
    5cb0:	88 e0       	ldi	r24, 0x08	; 8
    5cb2:	a8 0e       	add	r10, r24
    5cb4:	b1 1c       	adc	r11, r1
    5cb6:	89 e4       	ldi	r24, 0x49	; 73
    5cb8:	c8 0e       	add	r12, r24
    5cba:	d1 1c       	adc	r13, r1
    5cbc:	88 e0       	ldi	r24, 0x08	; 8
    5cbe:	e8 16       	cp	r14, r24
    5cc0:	f1 04       	cpc	r15, r1
    5cc2:	39 f6       	brne	.-114    	; 0x5c52 <.L85>
    5cc4:	df 91       	pop	r29
    5cc6:	cf 91       	pop	r28
    5cc8:	1f 91       	pop	r17
    5cca:	0f 91       	pop	r16
    5ccc:	ff 90       	pop	r15
    5cce:	ef 90       	pop	r14
    5cd0:	df 90       	pop	r13
    5cd2:	cf 90       	pop	r12
    5cd4:	bf 90       	pop	r11
    5cd6:	af 90       	pop	r10
    5cd8:	9f 90       	pop	r9
    5cda:	8f 90       	pop	r8
    5cdc:	08 95       	ret

00005cde <scope_main>:
    5cde:	cf 93       	push	r28
    5ce0:	df 93       	push	r29
    5ce2:	00 d0       	rcall	.+0      	; 0x5ce4 <L0>

00005ce4 <L0>:
    5ce4:	cd b7       	in	r28, 0x3d	; 61
    5ce6:	de b7       	in	r29, 0x3e	; 62
    5ce8:	61 e0       	ldi	r22, 0x01	; 1
    5cea:	81 e0       	ldi	r24, 0x01	; 1
    5cec:	0e 94 e1 08 	call	0x11c2	; 0x11c2 <LED_SetCH>
    5cf0:	2f e7       	ldi	r18, 0x7F	; 127
    5cf2:	8f e4       	ldi	r24, 0x4F	; 79
    5cf4:	92 e1       	ldi	r25, 0x12	; 18

00005cf6 <.L11>:
    5cf6:	21 50       	subi	r18, 0x01	; 1
    5cf8:	80 40       	sbci	r24, 0x00	; 0
    5cfa:	90 40       	sbci	r25, 0x00	; 0
    5cfc:	e1 f7       	brne	.-8      	; 0x5cf6 <.L11>
    5cfe:	00 c0       	rjmp	.+0      	; 0x5d00 <L0>

00005d00 <L0>:
    5d00:	00 00       	nop
    5d02:	61 e0       	ldi	r22, 0x01	; 1
    5d04:	82 e0       	ldi	r24, 0x02	; 2
    5d06:	0e 94 e1 08 	call	0x11c2	; 0x11c2 <LED_SetCH>
    5d0a:	2f e7       	ldi	r18, 0x7F	; 127
    5d0c:	8f e4       	ldi	r24, 0x4F	; 79
    5d0e:	92 e1       	ldi	r25, 0x12	; 18

00005d10 <.L12>:
    5d10:	21 50       	subi	r18, 0x01	; 1
    5d12:	80 40       	sbci	r24, 0x00	; 0
    5d14:	90 40       	sbci	r25, 0x00	; 0
    5d16:	e1 f7       	brne	.-8      	; 0x5d10 <.L12>
    5d18:	00 c0       	rjmp	.+0      	; 0x5d1a <L0>

00005d1a <L0>:
    5d1a:	00 00       	nop
    5d1c:	83 e0       	ldi	r24, 0x03	; 3
    5d1e:	0e 94 f3 08 	call	0x11e6	; 0x11e6 <LED_SetRunStop>
    5d22:	0e 94 9f 19 	call	0x333e	; 0x333e <drawStaticInterface>
    5d26:	0e 94 fe 1b 	call	0x37fc	; 0x37fc <init_timer_polling>
    5d2a:	0e 94 e0 2c 	call	0x59c0	; 0x59c0 <init_channels>
    5d2e:	0e 94 8b 1f 	call	0x3f16	; 0x3f16 <conf_encoder>
    5d32:	83 e1       	ldi	r24, 0x13	; 19
    5d34:	0e 94 53 1b 	call	0x36a6	; 0x36a6 <set_base_time>
    5d38:	80 91 57 01 	lds	r24, 0x0157	; 0x800157 <trigger_level_12bit>
    5d3c:	90 91 58 01 	lds	r25, 0x0158	; 0x800158 <trigger_level_12bit+0x1>
    5d40:	0e 94 d3 1a 	call	0x35a6	; 0x35a6 <set_trigger_level>
    5d44:	40 91 54 01 	lds	r20, 0x0154	; 0x800154 <trigger_source>
    5d48:	60 e0       	ldi	r22, 0x00	; 0
    5d4a:	80 e0       	ldi	r24, 0x00	; 0
    5d4c:	0e 94 d8 1a 	call	0x35b0	; 0x35b0 <set_trigger_mode>
    5d50:	e0 91 64 01 	lds	r30, 0x0164	; 0x800164 <misure>
    5d54:	f0 91 65 01 	lds	r31, 0x0165	; 0x800165 <misure+0x1>
    5d58:	81 e0       	ldi	r24, 0x01	; 1
    5d5a:	86 8b       	std	Z+22, r24	; 0x16
    5d5c:	17 8a       	std	Z+23, r1	; 0x17
    5d5e:	14 8a       	std	Z+20, r1	; 0x14
    5d60:	15 8a       	std	Z+21, r1	; 0x15
    5d62:	8c e8       	ldi	r24, 0x8C	; 140
    5d64:	95 e1       	ldi	r25, 0x15	; 21
    5d66:	0e 94 03 1b 	call	0x3606	; 0x3606 <aggiorna_parametri_hw>
    5d6a:	80 e6       	ldi	r24, 0x60	; 96
    5d6c:	95 e1       	ldi	r25, 0x15	; 21
    5d6e:	0e 94 03 1b 	call	0x3606	; 0x3606 <aggiorna_parametri_hw>
    5d72:	84 e1       	ldi	r24, 0x14	; 20
    5d74:	0e 94 89 26 	call	0x4d12	; 0x4d12 <scope_set_hysteresis>
    5d78:	81 e0       	ldi	r24, 0x01	; 1
    5d7a:	0e 94 ba 14 	call	0x2974	; 0x2974 <update_status_bar>
    5d7e:	2f e7       	ldi	r18, 0x7F	; 127
    5d80:	8d e8       	ldi	r24, 0x8D	; 141
    5d82:	9b e5       	ldi	r25, 0x5B	; 91

00005d84 <.L13>:
    5d84:	21 50       	subi	r18, 0x01	; 1
    5d86:	80 40       	sbci	r24, 0x00	; 0
    5d88:	90 40       	sbci	r25, 0x00	; 0
    5d8a:	e1 f7       	brne	.-8      	; 0x5d84 <.L13>
    5d8c:	00 c0       	rjmp	.+0      	; 0x5d8e <L0>

00005d8e <L0>:
    5d8e:	00 00       	nop
    5d90:	60 e0       	ldi	r22, 0x00	; 0
    5d92:	81 e0       	ldi	r24, 0x01	; 1
    5d94:	0e 94 e1 08 	call	0x11c2	; 0x11c2 <LED_SetCH>
    5d98:	60 e0       	ldi	r22, 0x00	; 0
    5d9a:	82 e0       	ldi	r24, 0x02	; 2
    5d9c:	0e 94 e1 08 	call	0x11c2	; 0x11c2 <LED_SetCH>
    5da0:	82 e0       	ldi	r24, 0x02	; 2
    5da2:	0e 94 f3 08 	call	0x11e6	; 0x11e6 <LED_SetRunStop>
    5da6:	ff 24       	eor	r15, r15
    5da8:	f3 94       	inc	r15

00005daa <.L162>:
    5daa:	10 92 5e 15 	sts	0x155E, r1	; 0x80155e <pan_flag>
    5dae:	be 01       	movw	r22, r28
    5db0:	6f 5f       	subi	r22, 0xFF	; 255
    5db2:	7f 4f       	sbci	r23, 0xFF	; 255
    5db4:	ce 01       	movw	r24, r28
    5db6:	02 96       	adiw	r24, 0x02	; 2
    5db8:	0e 94 06 09 	call	0x120c	; 0x120c <keypad_poll>
    5dbc:	81 15       	cp	r24, r1
    5dbe:	21 f1       	breq	.+72     	; 0x5e08 <.L88>
    5dc0:	1a 81       	ldd	r17, Y+2	; 0x02
    5dc2:	1f 3f       	cpi	r17, 0xFF	; 255
    5dc4:	09 f1       	breq	.+66     	; 0x5e08 <.L88>
    5dc6:	ef ef       	ldi	r30, 0xFF	; 255
    5dc8:	e1 0f       	add	r30, r17
    5dca:	e2 31       	cpi	r30, 0x12	; 18
    5dcc:	68 f4       	brcc	.+26     	; 0x5de8 <.L89>
    5dce:	f0 e0       	ldi	r31, 0x00	; 0
    5dd0:	ed 5c       	subi	r30, 0xCD	; 205
    5dd2:	f7 4c       	sbci	r31, 0xC7	; 199
    5dd4:	0c 94 38 32 	jmp	0x6470	; 0x6470 <__tablejump2__>

00005dd8 <.L102>:
    5dd8:	10 92 5f 01 	sts	0x015F, r1	; 0x80015f <currentMenu>
    5ddc:	10 92 4b 15 	sts	0x154B, r1	; 0x80154b <cursor_type>
    5de0:	0e 94 d3 1d 	call	0x3ba6	; 0x3ba6 <routine_autoset_dual>

00005de4 <.L186>:
    5de4:	0e 94 56 17 	call	0x2eac	; 0x2eac <updateSidebarLabels>

00005de8 <.L89>:
    5de8:	80 91 5f 01 	lds	r24, 0x015F	; 0x80015f <currentMenu>
    5dec:	84 30       	cpi	r24, 0x04	; 4
    5dee:	09 f4       	brne	.+2      	; 0x5df2 <L0+0x2>

00005df0 <L0>:
    5df0:	6e c1       	rjmp	.+732    	; 0x60ce <.L108>
    5df2:	08 f0       	brcs	.+2      	; 0x5df6 <L0+0x2>

00005df4 <L0>:
    5df4:	04 c1       	rjmp	.+520    	; 0x5ffe <.L109>
    5df6:	82 30       	cpi	r24, 0x02	; 2
    5df8:	09 f4       	brne	.+2      	; 0x5dfc <L0+0x2>

00005dfa <L0>:
    5dfa:	43 c1       	rjmp	.+646    	; 0x6082 <.L110>
    5dfc:	83 30       	cpi	r24, 0x03	; 3
    5dfe:	09 f4       	brne	.+2      	; 0x5e02 <L0+0x2>

00005e00 <L0>:
    5e00:	9f c1       	rjmp	.+830    	; 0x6140 <.L111>
    5e02:	81 30       	cpi	r24, 0x01	; 1
    5e04:	09 f4       	brne	.+2      	; 0x5e08 <.L88>

00005e06 <L0>:
    5e06:	0f c1       	rjmp	.+542    	; 0x6026 <.L112>

00005e08 <.L88>:
    5e08:	0e 94 24 09 	call	0x1248	; 0x1248 <update_all_encoders>
    5e0c:	10 91 a6 04 	lds	r17, 0x04A6	; 0x8004a6 <__data_end+0x8>
    5e10:	80 91 59 01 	lds	r24, 0x0159	; 0x800159 <prev_time_div_sel>
    5e14:	81 17       	cp	r24, r17
    5e16:	91 f0       	breq	.+36     	; 0x5e3c <.L152>
    5e18:	81 2f       	mov	r24, r17
    5e1a:	0e 94 53 1b 	call	0x36a6	; 0x36a6 <set_base_time>
    5e1e:	10 93 59 01 	sts	0x0159, r17	; 0x800159 <prev_time_div_sel>
    5e22:	10 93 5b 01 	sts	0x015B, r17	; 0x80015b <time_div_sel>
    5e26:	f0 92 5a 01 	sts	0x015A, r15	; 0x80015a <time_div_sel_changed>
    5e2a:	10 93 5d 15 	sts	0x155D, r17	; 0x80155d <current_time_base_idx>
    5e2e:	10 92 5f 15 	sts	0x155F, r1	; 0x80155f <freeze>
    5e32:	f0 92 5d 01 	sts	0x015D, r15	; 0x80015d <is_running>
    5e36:	f5 be       	out	0x35, r15	; 53
    5e38:	0e 94 56 17 	call	0x2eac	; 0x2eac <updateSidebarLabels>

00005e3c <.L152>:
    5e3c:	00 91 a8 04 	lds	r16, 0x04A8	; 0x8004a8 <__data_end+0xa>
    5e40:	10 91 a9 04 	lds	r17, 0x04A9	; 0x8004a9 <__data_end+0xb>
    5e44:	80 91 4d 01 	lds	r24, 0x014D	; 0x80014d <prev_enc_trig_val>
    5e48:	90 91 4e 01 	lds	r25, 0x014E	; 0x80014e <prev_enc_trig_val+0x1>
    5e4c:	80 17       	cp	r24, r16
    5e4e:	91 07       	cpc	r25, r17
    5e50:	a9 f0       	breq	.+42     	; 0x5e7c <.L153>
    5e52:	80 91 51 05 	lds	r24, 0x0551	; 0x800551 <current_enc_mode>
    5e56:	81 30       	cpi	r24, 0x01	; 1
    5e58:	09 f0       	breq	.+2      	; 0x5e5c <L0+0x2>

00005e5a <L0>:
    5e5a:	37 c2       	rjmp	.+1134   	; 0x62ca <.L154>
    5e5c:	11 30       	cpi	r17, 0x01	; 1
    5e5e:	0c f4       	brge	.+2      	; 0x5e62 <L0+0x2>

00005e60 <L0>:
    5e60:	2d c2       	rjmp	.+1114   	; 0x62bc <.L155>
    5e62:	0f ef       	ldi	r16, 0xFF	; 255
    5e64:	10 e0       	ldi	r17, 0x00	; 0

00005e66 <.L156>:
    5e66:	00 93 53 01 	sts	0x0153, r16	; 0x800153 <trigger_hysteresis>
    5e6a:	80 2f       	mov	r24, r16
    5e6c:	0e 94 89 26 	call	0x4d12	; 0x4d12 <scope_set_hysteresis>
    5e70:	0e 94 56 17 	call	0x2eac	; 0x2eac <updateSidebarLabels>

00005e74 <.L157>:
    5e74:	00 93 4d 01 	sts	0x014D, r16	; 0x80014d <prev_enc_trig_val>
    5e78:	10 93 4e 01 	sts	0x014E, r17	; 0x80014e <prev_enc_trig_val+0x1>

00005e7c <.L153>:
    5e7c:	00 91 aa 04 	lds	r16, 0x04AA	; 0x8004aa <__data_end+0xc>
    5e80:	10 91 ab 04 	lds	r17, 0x04AB	; 0x8004ab <__data_end+0xd>
    5e84:	80 91 51 01 	lds	r24, 0x0151	; 0x800151 <prev_view_offset>
    5e88:	90 91 52 01 	lds	r25, 0x0152	; 0x800152 <prev_view_offset+0x1>
    5e8c:	80 17       	cp	r24, r16
    5e8e:	91 07       	cpc	r25, r17
    5e90:	79 f0       	breq	.+30     	; 0x5eb0 <.L158>
    5e92:	c8 01       	movw	r24, r16
    5e94:	0e 94 4b 1b 	call	0x3696	; 0x3696 <osc_write_view_offset>
    5e98:	0e 94 da 19 	call	0x33b4	; 0x33b4 <osc_arm_readout>
    5e9c:	00 93 51 01 	sts	0x0151, r16	; 0x800151 <prev_view_offset>
    5ea0:	10 93 52 01 	sts	0x0152, r17	; 0x800152 <prev_view_offset+0x1>
    5ea4:	00 93 c5 04 	sts	0x04C5, r16	; 0x8004c5 <view_offset>
    5ea8:	10 93 c6 04 	sts	0x04C6, r17	; 0x8004c6 <view_offset+0x1>
    5eac:	f0 92 5e 15 	sts	0x155E, r15	; 0x80155e <pan_flag>

00005eb0 <.L158>:
    5eb0:	80 91 5f 01 	lds	r24, 0x015F	; 0x80015f <currentMenu>
    5eb4:	86 30       	cpi	r24, 0x06	; 6
    5eb6:	09 f0       	breq	.+2      	; 0x5eba <L0+0x2>

00005eb8 <L0>:
    5eb8:	24 c2       	rjmp	.+1096   	; 0x6302 <.L159>
    5eba:	80 91 4b 15 	lds	r24, 0x154B	; 0x80154b <cursor_type>
    5ebe:	81 30       	cpi	r24, 0x01	; 1
    5ec0:	09 f0       	breq	.+2      	; 0x5ec4 <L0+0x2>

00005ec2 <L0>:
    5ec2:	0b c2       	rjmp	.+1046   	; 0x62da <.L160>
    5ec4:	80 91 9e 04 	lds	r24, 0x049E	; 0x80049e <__data_end>
    5ec8:	90 91 9f 04 	lds	r25, 0x049F	; 0x80049f <__data_end+0x1>
    5ecc:	80 93 1c 01 	sts	0x011C, r24	; 0x80011c <cursor_v_a>
    5ed0:	90 93 1d 01 	sts	0x011D, r25	; 0x80011d <cursor_v_a+0x1>
    5ed4:	80 91 a2 04 	lds	r24, 0x04A2	; 0x8004a2 <__data_end+0x4>
    5ed8:	90 91 a3 04 	lds	r25, 0x04A3	; 0x8004a3 <__data_end+0x5>
    5edc:	80 93 1a 01 	sts	0x011A, r24	; 0x80011a <cursor_v_b>
    5ee0:	90 93 1b 01 	sts	0x011B, r25	; 0x80011b <cursor_v_b+0x1>

00005ee4 <.L161>:
    5ee4:	60 91 a0 04 	lds	r22, 0x04A0	; 0x8004a0 <__data_end+0x2>
    5ee8:	70 91 a1 04 	lds	r23, 0x04A1	; 0x8004a1 <__data_end+0x3>
    5eec:	42 ea       	ldi	r20, 0xA2	; 162
    5eee:	5d e1       	ldi	r21, 0x1D	; 29
    5ef0:	8c e8       	ldi	r24, 0x8C	; 140
    5ef2:	95 e1       	ldi	r25, 0x15	; 21
    5ef4:	0e 94 36 2d 	call	0x5a6c	; 0x5a6c <updateChannelVoltDiv>
    5ef8:	60 91 a4 04 	lds	r22, 0x04A4	; 0x8004a4 <__data_end+0x6>
    5efc:	70 91 a5 04 	lds	r23, 0x04A5	; 0x8004a5 <__data_end+0x7>
    5f00:	40 ea       	ldi	r20, 0xA0	; 160
    5f02:	5d e1       	ldi	r21, 0x1D	; 29
    5f04:	80 e6       	ldi	r24, 0x60	; 96
    5f06:	95 e1       	ldi	r25, 0x15	; 21
    5f08:	0e 94 36 2d 	call	0x5a6c	; 0x5a6c <updateChannelVoltDiv>
    5f0c:	0e 94 b9 2a 	call	0x5572	; 0x5572 <acquire_and_draw>
    5f10:	80 e0       	ldi	r24, 0x00	; 0
    5f12:	0e 94 ba 14 	call	0x2974	; 0x2974 <update_status_bar>
    5f16:	8c e8       	ldi	r24, 0x8C	; 140
    5f18:	95 e1       	ldi	r25, 0x15	; 21
    5f1a:	0e 94 03 1b 	call	0x3606	; 0x3606 <aggiorna_parametri_hw>
    5f1e:	80 e6       	ldi	r24, 0x60	; 96
    5f20:	95 e1       	ldi	r25, 0x15	; 21
    5f22:	0e 94 03 1b 	call	0x3606	; 0x3606 <aggiorna_parametri_hw>
    5f26:	41 cf       	rjmp	.-382    	; 0x5daa <.L162>

00005f28 <.L101>:
    5f28:	80 91 5f 01 	lds	r24, 0x015F	; 0x80015f <currentMenu>
    5f2c:	86 30       	cpi	r24, 0x06	; 6
    5f2e:	09 f4       	brne	.+2      	; 0x5f32 <L0+0x2>

00005f30 <L0>:
    5f30:	5b cf       	rjmp	.-330    	; 0x5de8 <.L89>
    5f32:	86 e0       	ldi	r24, 0x06	; 6

00005f34 <.L189>:
    5f34:	80 93 5f 01 	sts	0x015F, r24	; 0x80015f <currentMenu>
    5f38:	55 cf       	rjmp	.-342    	; 0x5de4 <.L186>

00005f3a <.L99>:
    5f3a:	80 91 5c 15 	lds	r24, 0x155C	; 0x80155c <trigger_mode>
    5f3e:	82 30       	cpi	r24, 0x02	; 2
    5f40:	89 f4       	brne	.+34     	; 0x5f64 <.L104>
    5f42:	81 e0       	ldi	r24, 0x01	; 1
    5f44:	80 93 5d 01 	sts	0x015D, r24	; 0x80015d <is_running>

00005f48 <.L105>:
    5f48:	10 92 5c 15 	sts	0x155C, r1	; 0x80155c <trigger_mode>
    5f4c:	40 91 54 01 	lds	r20, 0x0154	; 0x800154 <trigger_source>
    5f50:	60 91 5b 15 	lds	r22, 0x155B	; 0x80155b <trigger_slope>
    5f54:	80 e0       	ldi	r24, 0x00	; 0
    5f56:	0e 94 d8 1a 	call	0x35b0	; 0x35b0 <set_trigger_mode>
    5f5a:	10 92 5f 15 	sts	0x155F, r1	; 0x80155f <freeze>
    5f5e:	81 e0       	ldi	r24, 0x01	; 1
    5f60:	85 bf       	out	0x35, r24	; 53
    5f62:	07 c0       	rjmp	.+14     	; 0x5f72 <.L188>

00005f64 <.L104>:
    5f64:	80 91 5d 01 	lds	r24, 0x015D	; 0x80015d <is_running>
    5f68:	8f 25       	eor	r24, r15
    5f6a:	80 93 5d 01 	sts	0x015D, r24	; 0x80015d <is_running>
    5f6e:	81 11       	cpse	r24, r1
    5f70:	eb cf       	rjmp	.-42     	; 0x5f48 <.L105>

00005f72 <.L188>:
    5f72:	81 e0       	ldi	r24, 0x01	; 1
    5f74:	0e 94 ba 14 	call	0x2974	; 0x2974 <update_status_bar>
    5f78:	37 cf       	rjmp	.-402    	; 0x5de8 <.L89>

00005f7a <.L100>:
    5f7a:	82 e0       	ldi	r24, 0x02	; 2
    5f7c:	80 93 5c 15 	sts	0x155C, r24	; 0x80155c <trigger_mode>
    5f80:	40 91 54 01 	lds	r20, 0x0154	; 0x800154 <trigger_source>
    5f84:	60 91 5b 15 	lds	r22, 0x155B	; 0x80155b <trigger_slope>
    5f88:	0e 94 d8 1a 	call	0x35b0	; 0x35b0 <set_trigger_mode>
    5f8c:	10 92 5f 15 	sts	0x155F, r1	; 0x80155f <freeze>
    5f90:	f0 92 5d 01 	sts	0x015D, r15	; 0x80015d <is_running>
    5f94:	f5 be       	out	0x35, r15	; 53
    5f96:	ed cf       	rjmp	.-38     	; 0x5f72 <.L188>

00005f98 <.L97>:
    5f98:	23 e0       	ldi	r18, 0x03	; 3
    5f9a:	20 93 5f 01 	sts	0x015F, r18	; 0x80015f <currentMenu>
    5f9e:	22 cf       	rjmp	.-444    	; 0x5de4 <.L186>

00005fa0 <.L103>:
    5fa0:	84 e0       	ldi	r24, 0x04	; 4
    5fa2:	c8 cf       	rjmp	.-112    	; 0x5f34 <.L189>

00005fa4 <.L96>:
    5fa4:	81 e0       	ldi	r24, 0x01	; 1

00005fa6 <.L190>:
    5fa6:	0e 94 96 2c 	call	0x592c	; 0x592c <handle_channel_button>
    5faa:	1e cf       	rjmp	.-452    	; 0x5de8 <.L89>

00005fac <.L95>:
    5fac:	82 e0       	ldi	r24, 0x02	; 2
    5fae:	fb cf       	rjmp	.-10     	; 0x5fa6 <.L190>

00005fb0 <.L98>:
    5fb0:	97 e0       	ldi	r25, 0x07	; 7
    5fb2:	90 93 5f 01 	sts	0x015F, r25	; 0x80015f <currentMenu>
    5fb6:	16 cf       	rjmp	.-468    	; 0x5de4 <.L186>

00005fb8 <.L94>:
    5fb8:	66 ee       	ldi	r22, 0xE6	; 230
    5fba:	70 e0       	ldi	r23, 0x00	; 0
    5fbc:	80 e0       	ldi	r24, 0x00	; 0

00005fbe <.L187>:
    5fbe:	0e 94 45 1f 	call	0x3e8a	; 0x3e8a <write_encoder>
    5fc2:	12 cf       	rjmp	.-476    	; 0x5de8 <.L89>

00005fc4 <.L93>:
    5fc4:	66 ee       	ldi	r22, 0xE6	; 230
    5fc6:	70 e0       	ldi	r23, 0x00	; 0
    5fc8:	82 e0       	ldi	r24, 0x02	; 2
    5fca:	f9 cf       	rjmp	.-14     	; 0x5fbe <.L187>

00005fcc <.L92>:
    5fcc:	80 91 51 05 	lds	r24, 0x0551	; 0x800551 <current_enc_mode>
    5fd0:	81 30       	cpi	r24, 0x01	; 1
    5fd2:	69 f4       	brne	.+26     	; 0x5fee <.L107>
    5fd4:	84 e1       	ldi	r24, 0x14	; 20
    5fd6:	80 93 53 01 	sts	0x0153, r24	; 0x800153 <trigger_hysteresis>
    5fda:	0e 94 89 26 	call	0x4d12	; 0x4d12 <scope_set_hysteresis>
    5fde:	40 91 53 01 	lds	r20, 0x0153	; 0x800153 <trigger_hysteresis>
    5fe2:	50 e0       	ldi	r21, 0x00	; 0
    5fe4:	60 e0       	ldi	r22, 0x00	; 0
    5fe6:	85 e0       	ldi	r24, 0x05	; 5
    5fe8:	0e 94 14 09 	call	0x1228	; 0x1228 <configure_encoder>
    5fec:	fd ce       	rjmp	.-518    	; 0x5de8 <.L89>

00005fee <.L107>:
    5fee:	60 e0       	ldi	r22, 0x00	; 0
    5ff0:	78 e0       	ldi	r23, 0x08	; 8
    5ff2:	85 e0       	ldi	r24, 0x05	; 5
    5ff4:	e4 cf       	rjmp	.-56     	; 0x5fbe <.L187>

00005ff6 <.L90>:
    5ff6:	60 e0       	ldi	r22, 0x00	; 0
    5ff8:	70 e0       	ldi	r23, 0x00	; 0
    5ffa:	86 e0       	ldi	r24, 0x06	; 6
    5ffc:	e0 cf       	rjmp	.-64     	; 0x5fbe <.L187>

00005ffe <.L109>:
    5ffe:	86 30       	cpi	r24, 0x06	; 6
    6000:	09 f4       	brne	.+2      	; 0x6004 <L0+0x2>

00006002 <L0>:
    6002:	f7 c0       	rjmp	.+494    	; 0x61f2 <.L113>
    6004:	87 30       	cpi	r24, 0x07	; 7
    6006:	09 f0       	breq	.+2      	; 0x600a <L0+0x2>

00006008 <L0>:
    6008:	ff ce       	rjmp	.-514    	; 0x5e08 <.L88>
    600a:	19 30       	cpi	r17, 0x09	; 9
    600c:	09 f4       	brne	.+2      	; 0x6010 <L0+0x2>

0000600e <L0>:
    600e:	4b c1       	rjmp	.+662    	; 0x62a6 <.L148>
    6010:	1c 30       	cpi	r17, 0x0C	; 12
    6012:	09 f0       	breq	.+2      	; 0x6016 <L0+0x2>

00006014 <L0>:
    6014:	f9 ce       	rjmp	.-526    	; 0x5e08 <.L88>
    6016:	81 e0       	ldi	r24, 0x01	; 1
    6018:	90 91 59 15 	lds	r25, 0x1559	; 0x801559 <is_xy_mode>
    601c:	91 11       	cpse	r25, r1
    601e:	80 e0       	ldi	r24, 0x00	; 0
    6020:	0e 94 b8 2d 	call	0x5b70	; 0x5b70 <set_display_mode>
    6024:	72 c0       	rjmp	.+228    	; 0x610a <.L195>

00006026 <.L112>:
    6026:	16 30       	cpi	r17, 0x06	; 6
    6028:	01 f1       	breq	.+64     	; 0x606a <.L115>
    602a:	80 f4       	brcc	.+32     	; 0x604c <.L116>
    602c:	11 15       	cp	r17, r1
    602e:	21 f1       	breq	.+72     	; 0x6078 <.L117>
    6030:	13 30       	cpi	r17, 0x03	; 3
    6032:	09 f0       	breq	.+2      	; 0x6036 <L0+0x2>

00006034 <L0>:
    6034:	e9 ce       	rjmp	.-558    	; 0x5e08 <.L88>
    6036:	8c e8       	ldi	r24, 0x8C	; 140
    6038:	95 e1       	ldi	r25, 0x15	; 21
    603a:	0e 94 5f 2b 	call	0x56be	; 0x56be <cycleProbe>
    603e:	8f ef       	ldi	r24, 0xFF	; 255
    6040:	9f ef       	ldi	r25, 0xFF	; 255
    6042:	80 93 a2 1d 	sts	0x1DA2, r24	; 0x801da2 <last_enc1>
    6046:	90 93 a3 1d 	sts	0x1DA3, r25	; 0x801da3 <last_enc1+0x1>
    604a:	de ce       	rjmp	.-580    	; 0x5e08 <.L88>

0000604c <.L116>:
    604c:	19 30       	cpi	r17, 0x09	; 9
    604e:	41 f0       	breq	.+16     	; 0x6060 <.L119>
    6050:	8c e8       	ldi	r24, 0x8C	; 140
    6052:	95 e1       	ldi	r25, 0x15	; 21
    6054:	1c 30       	cpi	r17, 0x0C	; 12
    6056:	09 f0       	breq	.+2      	; 0x605a <.L199>

00006058 <L0>:
    6058:	d7 ce       	rjmp	.-594    	; 0x5e08 <.L88>

0000605a <.L199>:
    605a:	0e 94 14 2b 	call	0x5628	; 0x5628 <cycleCoupling>
    605e:	d4 ce       	rjmp	.-600    	; 0x5e08 <.L88>

00006060 <.L119>:
    6060:	8c e8       	ldi	r24, 0x8C	; 140
    6062:	95 e1       	ldi	r25, 0x15	; 21

00006064 <.L198>:
    6064:	0e 94 34 2b 	call	0x5668	; 0x5668 <toggleBWLimit>
    6068:	cf ce       	rjmp	.-610    	; 0x5e08 <.L88>

0000606a <.L115>:
    606a:	62 ea       	ldi	r22, 0xA2	; 162
    606c:	7d e1       	ldi	r23, 0x1D	; 29
    606e:	8c e8       	ldi	r24, 0x8C	; 140
    6070:	95 e1       	ldi	r25, 0x15	; 21

00006072 <.L197>:
    6072:	0e 94 87 2b 	call	0x570e	; 0x570e <toggleFineCoarse>
    6076:	c8 ce       	rjmp	.-624    	; 0x5e08 <.L88>

00006078 <.L117>:
    6078:	8c e8       	ldi	r24, 0x8C	; 140
    607a:	95 e1       	ldi	r25, 0x15	; 21

0000607c <.L196>:
    607c:	0e 94 7e 2c 	call	0x58fc	; 0x58fc <toggleInvert>
    6080:	c3 ce       	rjmp	.-634    	; 0x5e08 <.L88>

00006082 <.L110>:
    6082:	16 30       	cpi	r17, 0x06	; 6
    6084:	e1 f0       	breq	.+56     	; 0x60be <.L120>
    6086:	80 f4       	brcc	.+32     	; 0x60a8 <.L121>
    6088:	11 15       	cp	r17, r1
    608a:	f1 f0       	breq	.+60     	; 0x60c8 <.L122>
    608c:	13 30       	cpi	r17, 0x03	; 3
    608e:	09 f0       	breq	.+2      	; 0x6092 <L0+0x2>

00006090 <L0>:
    6090:	bb ce       	rjmp	.-650    	; 0x5e08 <.L88>
    6092:	80 e6       	ldi	r24, 0x60	; 96
    6094:	95 e1       	ldi	r25, 0x15	; 21
    6096:	0e 94 5f 2b 	call	0x56be	; 0x56be <cycleProbe>
    609a:	8f ef       	ldi	r24, 0xFF	; 255
    609c:	9f ef       	ldi	r25, 0xFF	; 255
    609e:	80 93 a0 1d 	sts	0x1DA0, r24	; 0x801da0 <last_enc2>
    60a2:	90 93 a1 1d 	sts	0x1DA1, r25	; 0x801da1 <last_enc2+0x1>
    60a6:	b0 ce       	rjmp	.-672    	; 0x5e08 <.L88>

000060a8 <.L121>:
    60a8:	19 30       	cpi	r17, 0x09	; 9
    60aa:	31 f0       	breq	.+12     	; 0x60b8 <.L124>
    60ac:	1c 30       	cpi	r17, 0x0C	; 12
    60ae:	09 f0       	breq	.+2      	; 0x60b2 <L0+0x2>

000060b0 <L0>:
    60b0:	ab ce       	rjmp	.-682    	; 0x5e08 <.L88>
    60b2:	80 e6       	ldi	r24, 0x60	; 96
    60b4:	95 e1       	ldi	r25, 0x15	; 21
    60b6:	d1 cf       	rjmp	.-94     	; 0x605a <.L199>

000060b8 <.L124>:
    60b8:	80 e6       	ldi	r24, 0x60	; 96
    60ba:	95 e1       	ldi	r25, 0x15	; 21
    60bc:	d3 cf       	rjmp	.-90     	; 0x6064 <.L198>

000060be <.L120>:
    60be:	60 ea       	ldi	r22, 0xA0	; 160
    60c0:	7d e1       	ldi	r23, 0x1D	; 29
    60c2:	80 e6       	ldi	r24, 0x60	; 96
    60c4:	95 e1       	ldi	r25, 0x15	; 21
    60c6:	d5 cf       	rjmp	.-86     	; 0x6072 <.L197>

000060c8 <.L122>:
    60c8:	80 e6       	ldi	r24, 0x60	; 96
    60ca:	95 e1       	ldi	r25, 0x15	; 21
    60cc:	d7 cf       	rjmp	.-82     	; 0x607c <.L196>

000060ce <.L108>:
    60ce:	19 30       	cpi	r17, 0x09	; 9
    60d0:	09 f1       	breq	.+66     	; 0x6114 <.L125>
    60d2:	78 f4       	brcc	.+30     	; 0x60f2 <.L126>
    60d4:	13 30       	cpi	r17, 0x03	; 3
    60d6:	51 f1       	breq	.+84     	; 0x612c <.L127>
    60d8:	16 30       	cpi	r17, 0x06	; 6
    60da:	09 f0       	breq	.+2      	; 0x60de <L0+0x2>

000060dc <L0>:
    60dc:	95 ce       	rjmp	.-726    	; 0x5e08 <.L88>
    60de:	e0 91 64 01 	lds	r30, 0x0164	; 0x800164 <misure>
    60e2:	f0 91 65 01 	lds	r31, 0x0165	; 0x800165 <misure+0x1>
    60e6:	81 e0       	ldi	r24, 0x01	; 1
    60e8:	94 89       	ldd	r25, Z+20	; 0x14
    60ea:	91 11       	cpse	r25, r1
    60ec:	80 e0       	ldi	r24, 0x00	; 0
    60ee:	84 8b       	std	Z+20, r24	; 0x14
    60f0:	0c c0       	rjmp	.+24     	; 0x610a <.L195>

000060f2 <.L126>:
    60f2:	1c 30       	cpi	r17, 0x0C	; 12
    60f4:	09 f0       	breq	.+2      	; 0x60f8 <L0+0x2>

000060f6 <L0>:
    60f6:	88 ce       	rjmp	.-752    	; 0x5e08 <.L88>
    60f8:	e0 91 64 01 	lds	r30, 0x0164	; 0x800164 <misure>
    60fc:	f0 91 65 01 	lds	r31, 0x0165	; 0x800165 <misure+0x1>
    6100:	86 89       	ldd	r24, Z+22	; 0x16
    6102:	8f 5f       	subi	r24, 0xFF	; 255
    6104:	83 30       	cpi	r24, 0x03	; 3
    6106:	20 f4       	brcc	.+8      	; 0x6110 <.L129>

00006108 <.L193>:
    6108:	86 8b       	std	Z+22, r24	; 0x16

0000610a <.L195>:
    610a:	0e 94 56 17 	call	0x2eac	; 0x2eac <updateSidebarLabels>
    610e:	7c ce       	rjmp	.-776    	; 0x5e08 <.L88>

00006110 <.L129>:
    6110:	81 e0       	ldi	r24, 0x01	; 1
    6112:	fa cf       	rjmp	.-12     	; 0x6108 <.L193>

00006114 <.L125>:
    6114:	e0 91 64 01 	lds	r30, 0x0164	; 0x800164 <misure>
    6118:	f0 91 65 01 	lds	r31, 0x0165	; 0x800165 <misure+0x1>
    611c:	87 89       	ldd	r24, Z+23	; 0x17
    611e:	8f 5f       	subi	r24, 0xFF	; 255
    6120:	83 30       	cpi	r24, 0x03	; 3
    6122:	10 f4       	brcc	.+4      	; 0x6128 <.L131>
    6124:	87 8b       	std	Z+23, r24	; 0x17
    6126:	f1 cf       	rjmp	.-30     	; 0x610a <.L195>

00006128 <.L131>:
    6128:	17 8a       	std	Z+23, r1	; 0x17
    612a:	ef cf       	rjmp	.-34     	; 0x610a <.L195>

0000612c <.L127>:
    612c:	e0 91 64 01 	lds	r30, 0x0164	; 0x800164 <misure>
    6130:	f0 91 65 01 	lds	r31, 0x0165	; 0x800165 <misure+0x1>
    6134:	81 e0       	ldi	r24, 0x01	; 1
    6136:	95 89       	ldd	r25, Z+21	; 0x15
    6138:	91 11       	cpse	r25, r1
    613a:	80 e0       	ldi	r24, 0x00	; 0
    613c:	85 8b       	std	Z+21, r24	; 0x15
    613e:	e5 cf       	rjmp	.-54     	; 0x610a <.L195>

00006140 <.L111>:
    6140:	19 30       	cpi	r17, 0x09	; 9
    6142:	49 f1       	breq	.+82     	; 0x6196 <.L135>
    6144:	a0 f4       	brcc	.+40     	; 0x616e <.L136>
    6146:	13 30       	cpi	r17, 0x03	; 3
    6148:	81 f1       	breq	.+96     	; 0x61aa <.L137>
    614a:	16 30       	cpi	r17, 0x06	; 6
    614c:	09 f0       	breq	.+2      	; 0x6150 <L0+0x2>

0000614e <L0>:
    614e:	5c ce       	rjmp	.-840    	; 0x5e08 <.L88>
    6150:	80 91 5c 15 	lds	r24, 0x155C	; 0x80155c <trigger_mode>
    6154:	8f 5f       	subi	r24, 0xFF	; 255
    6156:	98 2f       	mov	r25, r24
    6158:	82 30       	cpi	r24, 0x02	; 2
    615a:	10 f0       	brcs	.+4      	; 0x6160 <.L141>
    615c:	80 e0       	ldi	r24, 0x00	; 0
    615e:	90 e0       	ldi	r25, 0x00	; 0

00006160 <.L141>:
    6160:	90 93 5c 15 	sts	0x155C, r25	; 0x80155c <trigger_mode>
    6164:	40 91 54 01 	lds	r20, 0x0154	; 0x800154 <trigger_source>
    6168:	60 91 5b 15 	lds	r22, 0x155B	; 0x80155b <trigger_slope>
    616c:	11 c0       	rjmp	.+34     	; 0x6190 <.L201>

0000616e <.L136>:
    616e:	1c 30       	cpi	r17, 0x0C	; 12
    6170:	09 f0       	breq	.+2      	; 0x6174 <L0+0x2>

00006172 <L0>:
    6172:	4a ce       	rjmp	.-876    	; 0x5e08 <.L88>
    6174:	40 91 54 01 	lds	r20, 0x0154	; 0x800154 <trigger_source>
    6178:	4f 5f       	subi	r20, 0xFF	; 255
    617a:	84 2f       	mov	r24, r20
    617c:	43 30       	cpi	r20, 0x03	; 3
    617e:	10 f0       	brcs	.+4      	; 0x6184 <.L139>
    6180:	81 e0       	ldi	r24, 0x01	; 1
    6182:	41 e0       	ldi	r20, 0x01	; 1

00006184 <.L139>:
    6184:	80 93 54 01 	sts	0x0154, r24	; 0x800154 <trigger_source>
    6188:	60 91 5b 15 	lds	r22, 0x155B	; 0x80155b <trigger_slope>

0000618c <.L200>:
    618c:	80 91 5c 15 	lds	r24, 0x155C	; 0x80155c <trigger_mode>

00006190 <.L201>:
    6190:	0e 94 d8 1a 	call	0x35b0	; 0x35b0 <set_trigger_mode>
    6194:	ba cf       	rjmp	.-140    	; 0x610a <.L195>

00006196 <.L135>:
    6196:	61 e0       	ldi	r22, 0x01	; 1
    6198:	80 91 5b 15 	lds	r24, 0x155B	; 0x80155b <trigger_slope>
    619c:	81 11       	cpse	r24, r1
    619e:	60 e0       	ldi	r22, 0x00	; 0
    61a0:	60 93 5b 15 	sts	0x155B, r22	; 0x80155b <trigger_slope>
    61a4:	40 91 54 01 	lds	r20, 0x0154	; 0x800154 <trigger_source>
    61a8:	f1 cf       	rjmp	.-30     	; 0x618c <.L200>

000061aa <.L137>:
    61aa:	80 91 51 05 	lds	r24, 0x0551	; 0x800551 <current_enc_mode>
    61ae:	81 11       	cpse	r24, r1
    61b0:	1d c0       	rjmp	.+58     	; 0x61ec <.L142>
    61b2:	81 e0       	ldi	r24, 0x01	; 1
    61b4:	80 93 51 05 	sts	0x0551, r24	; 0x800551 <current_enc_mode>
    61b8:	40 e0       	ldi	r20, 0x00	; 0
    61ba:	50 e0       	ldi	r21, 0x00	; 0
    61bc:	61 e0       	ldi	r22, 0x01	; 1
    61be:	85 e0       	ldi	r24, 0x05	; 5
    61c0:	0e 94 14 09 	call	0x1228	; 0x1228 <configure_encoder>
    61c4:	4f ef       	ldi	r20, 0xFF	; 255
    61c6:	50 e0       	ldi	r21, 0x00	; 0
    61c8:	62 e0       	ldi	r22, 0x02	; 2
    61ca:	85 e0       	ldi	r24, 0x05	; 5
    61cc:	0e 94 14 09 	call	0x1228	; 0x1228 <configure_encoder>
    61d0:	41 e0       	ldi	r20, 0x01	; 1
    61d2:	50 e0       	ldi	r21, 0x00	; 0
    61d4:	63 e0       	ldi	r22, 0x03	; 3
    61d6:	85 e0       	ldi	r24, 0x05	; 5
    61d8:	0e 94 14 09 	call	0x1228	; 0x1228 <configure_encoder>
    61dc:	40 91 53 01 	lds	r20, 0x0153	; 0x800153 <trigger_hysteresis>
    61e0:	50 e0       	ldi	r21, 0x00	; 0
    61e2:	60 e0       	ldi	r22, 0x00	; 0
    61e4:	85 e0       	ldi	r24, 0x05	; 5
    61e6:	0e 94 14 09 	call	0x1228	; 0x1228 <configure_encoder>
    61ea:	8f cf       	rjmp	.-226    	; 0x610a <.L195>

000061ec <.L142>:
    61ec:	0e 94 a9 1f 	call	0x3f52	; 0x3f52 <set_trig_enc_default>
    61f0:	8c cf       	rjmp	.-232    	; 0x610a <.L195>

000061f2 <.L113>:
    61f2:	19 30       	cpi	r17, 0x09	; 9
    61f4:	09 f4       	brne	.+2      	; 0x61f8 <L0+0x2>

000061f6 <L0>:
    61f6:	4d c0       	rjmp	.+154    	; 0x6292 <.L143>
    61f8:	1c 30       	cpi	r17, 0x0C	; 12
    61fa:	09 f0       	breq	.+2      	; 0x61fe <L0+0x2>

000061fc <L0>:
    61fc:	05 ce       	rjmp	.-1014   	; 0x5e08 <.L88>
    61fe:	80 91 4b 15 	lds	r24, 0x154B	; 0x80154b <cursor_type>
    6202:	8f 5f       	subi	r24, 0xFF	; 255
    6204:	80 93 4b 15 	sts	0x154B, r24	; 0x80154b <cursor_type>
    6208:	83 30       	cpi	r24, 0x03	; 3
    620a:	38 f1       	brcs	.+78     	; 0x625a <.L144>
    620c:	10 92 4b 15 	sts	0x154B, r1	; 0x80154b <cursor_type>
    6210:	60 e0       	ldi	r22, 0x00	; 0
    6212:	81 e0       	ldi	r24, 0x01	; 1
    6214:	0e 94 e1 08 	call	0x11c2	; 0x11c2 <LED_SetCH>
    6218:	60 e0       	ldi	r22, 0x00	; 0

0000621a <.L194>:
    621a:	82 e0       	ldi	r24, 0x02	; 2
    621c:	0e 94 e1 08 	call	0x11c2	; 0x11c2 <LED_SetCH>
    6220:	80 91 4b 15 	lds	r24, 0x154B	; 0x80154b <cursor_type>
    6224:	81 30       	cpi	r24, 0x01	; 1
    6226:	f9 f4       	brne	.+62     	; 0x6266 <.L146>
    6228:	60 91 1c 01 	lds	r22, 0x011C	; 0x80011c <cursor_v_a>
    622c:	70 91 1d 01 	lds	r23, 0x011D	; 0x80011d <cursor_v_a+0x1>
    6230:	01 e0       	ldi	r16, 0x01	; 1
    6232:	10 e0       	ldi	r17, 0x00	; 0
    6234:	27 e1       	ldi	r18, 0x17	; 23
    6236:	31 e0       	ldi	r19, 0x01	; 1
    6238:	48 e2       	ldi	r20, 0x28	; 40
    623a:	50 e0       	ldi	r21, 0x00	; 0
    623c:	80 e0       	ldi	r24, 0x00	; 0
    623e:	0e 94 30 09 	call	0x1260	; 0x1260 <setup_encoder>
    6242:	60 91 1a 01 	lds	r22, 0x011A	; 0x80011a <cursor_v_b>
    6246:	70 91 1b 01 	lds	r23, 0x011B	; 0x80011b <cursor_v_b+0x1>
    624a:	27 e1       	ldi	r18, 0x17	; 23
    624c:	31 e0       	ldi	r19, 0x01	; 1
    624e:	48 e2       	ldi	r20, 0x28	; 40
    6250:	50 e0       	ldi	r21, 0x00	; 0

00006252 <.L191>:
    6252:	82 e0       	ldi	r24, 0x02	; 2
    6254:	0e 94 30 09 	call	0x1260	; 0x1260 <setup_encoder>
    6258:	58 cf       	rjmp	.-336    	; 0x610a <.L195>

0000625a <.L144>:
    625a:	61 e0       	ldi	r22, 0x01	; 1
    625c:	81 e0       	ldi	r24, 0x01	; 1
    625e:	0e 94 e1 08 	call	0x11c2	; 0x11c2 <LED_SetCH>
    6262:	61 e0       	ldi	r22, 0x01	; 1
    6264:	da cf       	rjmp	.-76     	; 0x621a <.L194>

00006266 <.L146>:
    6266:	60 91 18 01 	lds	r22, 0x0118	; 0x800118 <cursor_h_a>
    626a:	70 91 19 01 	lds	r23, 0x0119	; 0x800119 <cursor_h_a+0x1>
    626e:	01 e0       	ldi	r16, 0x01	; 1
    6270:	10 e0       	ldi	r17, 0x00	; 0
    6272:	24 ea       	ldi	r18, 0xA4	; 164
    6274:	31 e0       	ldi	r19, 0x01	; 1
    6276:	44 e1       	ldi	r20, 0x14	; 20
    6278:	50 e0       	ldi	r21, 0x00	; 0
    627a:	80 e0       	ldi	r24, 0x00	; 0
    627c:	0e 94 30 09 	call	0x1260	; 0x1260 <setup_encoder>
    6280:	60 91 16 01 	lds	r22, 0x0116	; 0x800116 <cursor_h_b>
    6284:	70 91 17 01 	lds	r23, 0x0117	; 0x800117 <cursor_h_b+0x1>
    6288:	24 ea       	ldi	r18, 0xA4	; 164
    628a:	31 e0       	ldi	r19, 0x01	; 1
    628c:	44 e1       	ldi	r20, 0x14	; 20
    628e:	50 e0       	ldi	r21, 0x00	; 0
    6290:	e0 cf       	rjmp	.-64     	; 0x6252 <.L191>

00006292 <.L143>:
    6292:	80 91 1e 01 	lds	r24, 0x011E	; 0x80011e <cursor_source>
    6296:	8f 5f       	subi	r24, 0xFF	; 255
    6298:	83 30       	cpi	r24, 0x03	; 3
    629a:	18 f4       	brcc	.+6      	; 0x62a2 <.L147>

0000629c <.L192>:
    629c:	80 93 1e 01 	sts	0x011E, r24	; 0x80011e <cursor_source>
    62a0:	34 cf       	rjmp	.-408    	; 0x610a <.L195>

000062a2 <.L147>:
    62a2:	81 e0       	ldi	r24, 0x01	; 1
    62a4:	fb cf       	rjmp	.-10     	; 0x629c <.L192>

000062a6 <.L148>:
    62a6:	80 91 49 01 	lds	r24, 0x0149	; 0x800149 <is_vectors>
    62aa:	8f 5f       	subi	r24, 0xFF	; 255
    62ac:	82 30       	cpi	r24, 0x02	; 2
    62ae:	18 f4       	brcc	.+6      	; 0x62b6 <.L150>
    62b0:	80 93 49 01 	sts	0x0149, r24	; 0x800149 <is_vectors>
    62b4:	2a cf       	rjmp	.-428    	; 0x610a <.L195>

000062b6 <.L150>:
    62b6:	10 92 49 01 	sts	0x0149, r1	; 0x800149 <is_vectors>
    62ba:	27 cf       	rjmp	.-434    	; 0x610a <.L195>

000062bc <.L155>:
    62bc:	10 16       	cp	r1, r16
    62be:	11 06       	cpc	r1, r17
    62c0:	0c f4       	brge	.+2      	; 0x62c4 <L0+0x2>

000062c2 <L0>:
    62c2:	d1 cd       	rjmp	.-1118   	; 0x5e66 <.L156>
    62c4:	01 e0       	ldi	r16, 0x01	; 1
    62c6:	10 e0       	ldi	r17, 0x00	; 0
    62c8:	ce cd       	rjmp	.-1124   	; 0x5e66 <.L156>

000062ca <.L154>:
    62ca:	00 93 57 01 	sts	0x0157, r16	; 0x800157 <trigger_level_12bit>
    62ce:	10 93 58 01 	sts	0x0158, r17	; 0x800158 <trigger_level_12bit+0x1>
    62d2:	c8 01       	movw	r24, r16
    62d4:	0e 94 d3 1a 	call	0x35a6	; 0x35a6 <set_trigger_level>
    62d8:	cd cd       	rjmp	.-1126   	; 0x5e74 <.L157>

000062da <.L160>:
    62da:	82 30       	cpi	r24, 0x02	; 2
    62dc:	09 f0       	breq	.+2      	; 0x62e0 <L0+0x2>

000062de <L0>:
    62de:	02 ce       	rjmp	.-1020   	; 0x5ee4 <.L161>
    62e0:	80 91 9e 04 	lds	r24, 0x049E	; 0x80049e <__data_end>
    62e4:	90 91 9f 04 	lds	r25, 0x049F	; 0x80049f <__data_end+0x1>
    62e8:	80 93 18 01 	sts	0x0118, r24	; 0x800118 <cursor_h_a>
    62ec:	90 93 19 01 	sts	0x0119, r25	; 0x800119 <cursor_h_a+0x1>
    62f0:	80 91 a2 04 	lds	r24, 0x04A2	; 0x8004a2 <__data_end+0x4>
    62f4:	90 91 a3 04 	lds	r25, 0x04A3	; 0x8004a3 <__data_end+0x5>
    62f8:	80 93 16 01 	sts	0x0116, r24	; 0x800116 <cursor_h_b>
    62fc:	90 93 17 01 	sts	0x0117, r25	; 0x800117 <cursor_h_b+0x1>
    6300:	f1 cd       	rjmp	.-1054   	; 0x5ee4 <.L161>

00006302 <.L159>:
    6302:	80 91 9e 04 	lds	r24, 0x049E	; 0x80049e <__data_end>
    6306:	90 91 9f 04 	lds	r25, 0x049F	; 0x80049f <__data_end+0x1>
    630a:	80 93 96 15 	sts	0x1596, r24	; 0x801596 <ch1+0xa>
    630e:	90 93 97 15 	sts	0x1597, r25	; 0x801597 <ch1+0xb>
    6312:	80 91 a2 04 	lds	r24, 0x04A2	; 0x8004a2 <__data_end+0x4>
    6316:	90 91 a3 04 	lds	r25, 0x04A3	; 0x8004a3 <__data_end+0x5>
    631a:	80 93 6a 15 	sts	0x156A, r24	; 0x80156a <ch2+0xa>
    631e:	90 93 6b 15 	sts	0x156B, r25	; 0x80156b <ch2+0xb>
    6322:	e0 cd       	rjmp	.-1088   	; 0x5ee4 <.L161>

00006324 <main>:
    6324:	60 e0       	ldi	r22, 0x00	; 0
    6326:	7b e4       	ldi	r23, 0x4B	; 75
    6328:	80 e0       	ldi	r24, 0x00	; 0
    632a:	90 e0       	ldi	r25, 0x00	; 0
    632c:	0e 94 3c 07 	call	0xe78	; 0xe78 <uart_init>
    6330:	8e e2       	ldi	r24, 0x2E	; 46
    6332:	92 e0       	ldi	r25, 0x02	; 2
    6334:	0e 94 5a 07 	call	0xeb4	; 0xeb4 <uart_print>
    6338:	85 e4       	ldi	r24, 0x45	; 69
    633a:	92 e0       	ldi	r25, 0x02	; 2
    633c:	0e 94 5a 07 	call	0xeb4	; 0xeb4 <uart_print>
    6340:	0e 94 04 09 	call	0x1208	; 0x1208 <keypad_init>
    6344:	0e 94 da 08 	call	0x11b4	; 0x11b4 <LED_Init>
    6348:	2f ef       	ldi	r18, 0xFF	; 255
    634a:	8a e1       	ldi	r24, 0x1A	; 26
    634c:	97 eb       	ldi	r25, 0xB7	; 183

0000634e <.L11>:
    634e:	21 50       	subi	r18, 0x01	; 1
    6350:	80 40       	sbci	r24, 0x00	; 0
    6352:	90 40       	sbci	r25, 0x00	; 0
    6354:	e1 f7       	brne	.-8      	; 0x634e <.L11>
    6356:	00 c0       	rjmp	.+0      	; 0x6358 <L0>

00006358 <L0>:
    6358:	00 00       	nop
    635a:	61 e0       	ldi	r22, 0x01	; 1
    635c:	80 e0       	ldi	r24, 0x00	; 0
    635e:	0e 94 68 09 	call	0x12d0	; 0x12d0 <video_config>
    6362:	8f ef       	ldi	r24, 0xFF	; 255
    6364:	91 e0       	ldi	r25, 0x01	; 1
    6366:	0e 94 c7 09 	call	0x138e	; 0x138e <vga_clear_screen>
    636a:	82 e0       	ldi	r24, 0x02	; 2
    636c:	0e 94 7a 09 	call	0x12f4	; 0x12f4 <vga_setTextFont>
    6370:	81 e0       	ldi	r24, 0x01	; 1
    6372:	0e 94 80 09 	call	0x1300	; 0x1300 <vga_setTextSize>
    6376:	60 e0       	ldi	r22, 0x00	; 0
    6378:	70 e0       	ldi	r23, 0x00	; 0
    637a:	8f ef       	ldi	r24, 0xFF	; 255
    637c:	91 e0       	ldi	r25, 0x01	; 1
    637e:	0e 94 8a 09 	call	0x1314	; 0x1314 <vga_setTextColor>
    6382:	2f ef       	ldi	r18, 0xFF	; 255
    6384:	8a e1       	ldi	r24, 0x1A	; 26
    6386:	97 eb       	ldi	r25, 0xB7	; 183

00006388 <.L12>:
    6388:	21 50       	subi	r18, 0x01	; 1
    638a:	80 40       	sbci	r24, 0x00	; 0
    638c:	90 40       	sbci	r25, 0x00	; 0
    638e:	e1 f7       	brne	.-8      	; 0x6388 <.L12>
    6390:	00 c0       	rjmp	.+0      	; 0x6392 <L0>

00006392 <L0>:
    6392:	00 00       	nop
    6394:	0e 94 6f 2e 	call	0x5cde	; 0x5cde <scope_main>
    6398:	80 e0       	ldi	r24, 0x00	; 0
    639a:	90 e0       	ldi	r25, 0x00	; 0
    639c:	08 95       	ret

0000639e <__udivmodhi4>:
    639e:	aa 1b       	sub	r26, r26

000063a0 <.Loc.1>:
    63a0:	bb 1b       	sub	r27, r27

000063a2 <.Loc.2>:
    63a2:	51 e1       	ldi	r21, 0x11	; 17

000063a4 <.Loc.3>:
    63a4:	07 c0       	rjmp	.+14     	; 0x63b4 <__udivmodhi4_ep>

000063a6 <__udivmodhi4_loop>:
    63a6:	aa 1f       	adc	r26, r26

000063a8 <.Loc.5>:
    63a8:	bb 1f       	adc	r27, r27

000063aa <.Loc.6>:
    63aa:	a6 17       	cp	r26, r22

000063ac <.Loc.7>:
    63ac:	b7 07       	cpc	r27, r23

000063ae <.Loc.8>:
    63ae:	10 f0       	brcs	.+4      	; 0x63b4 <__udivmodhi4_ep>

000063b0 <.Loc.9>:
    63b0:	a6 1b       	sub	r26, r22

000063b2 <.Loc.10>:
    63b2:	b7 0b       	sbc	r27, r23

000063b4 <__udivmodhi4_ep>:
    63b4:	88 1f       	adc	r24, r24

000063b6 <.Loc.12>:
    63b6:	99 1f       	adc	r25, r25

000063b8 <.Loc.13>:
    63b8:	5a 95       	dec	r21

000063ba <.Loc.14>:
    63ba:	a9 f7       	brne	.-22     	; 0x63a6 <__udivmodhi4_loop>

000063bc <.Loc.15>:
    63bc:	80 95       	com	r24

000063be <.Loc.16>:
    63be:	90 95       	com	r25

000063c0 <.Loc.17>:
    63c0:	bc 01       	movw	r22, r24

000063c2 <.Loc.18>:
    63c2:	cd 01       	movw	r24, r26

000063c4 <.Loc.19>:
    63c4:	08 95       	ret

000063c6 <__divmodhi4>:
    63c6:	97 fb       	bst	r25, 7

000063c8 <.Loc.1>:
    63c8:	07 2e       	mov	r0, r23

000063ca <.Loc.2>:
    63ca:	16 f4       	brtc	.+4      	; 0x63d0 <.L01>

000063cc <.Loc.3>:
    63cc:	00 94       	com	r0

000063ce <.Loc.4>:
    63ce:	07 d0       	rcall	.+14     	; 0x63de <__divmodhi4_neg1>

000063d0 <.L01>:
    63d0:	77 fd       	sbrc	r23, 7

000063d2 <.Loc.6>:
    63d2:	09 d0       	rcall	.+18     	; 0x63e6 <__divmodhi4_neg2>

000063d4 <.Loc.7>:
    63d4:	0e 94 cf 31 	call	0x639e	; 0x639e <__udivmodhi4>

000063d8 <.Loc.8>:
    63d8:	07 fc       	sbrc	r0, 7

000063da <.Loc.9>:
    63da:	05 d0       	rcall	.+10     	; 0x63e6 <__divmodhi4_neg2>

000063dc <.Loc.10>:
    63dc:	3e f4       	brtc	.+14     	; 0x63ec <__divmodhi4_exit>

000063de <__divmodhi4_neg1>:
    63de:	90 95       	com	r25

000063e0 <.Loc.12>:
    63e0:	81 95       	neg	r24

000063e2 <.Loc.13>:
    63e2:	9f 4f       	sbci	r25, 0xFF	; 255

000063e4 <.Loc.14>:
    63e4:	08 95       	ret

000063e6 <__divmodhi4_neg2>:
    63e6:	70 95       	com	r23

000063e8 <.Loc.16>:
    63e8:	61 95       	neg	r22

000063ea <.Loc.17>:
    63ea:	7f 4f       	sbci	r23, 0xFF	; 255

000063ec <__divmodhi4_exit>:
    63ec:	08 95       	ret

000063ee <__udivmodsi4>:
    63ee:	a1 e2       	ldi	r26, 0x21	; 33

000063f0 <.Loc.1>:
    63f0:	1a 2e       	mov	r1, r26

000063f2 <.Loc.2>:
    63f2:	aa 1b       	sub	r26, r26

000063f4 <.Loc.3>:
    63f4:	bb 1b       	sub	r27, r27

000063f6 <.Loc.4>:
    63f6:	fd 01       	movw	r30, r26

000063f8 <.Loc.5>:
    63f8:	0d c0       	rjmp	.+26     	; 0x6414 <__udivmodsi4_ep>

000063fa <__udivmodsi4_loop>:
    63fa:	aa 1f       	adc	r26, r26

000063fc <.Loc.7>:
    63fc:	bb 1f       	adc	r27, r27

000063fe <.Loc.8>:
    63fe:	ee 1f       	adc	r30, r30

00006400 <.Loc.9>:
    6400:	ff 1f       	adc	r31, r31

00006402 <.Loc.10>:
    6402:	a2 17       	cp	r26, r18

00006404 <.Loc.11>:
    6404:	b3 07       	cpc	r27, r19

00006406 <.Loc.12>:
    6406:	e4 07       	cpc	r30, r20

00006408 <.Loc.13>:
    6408:	f5 07       	cpc	r31, r21

0000640a <.Loc.14>:
    640a:	20 f0       	brcs	.+8      	; 0x6414 <__udivmodsi4_ep>

0000640c <.Loc.15>:
    640c:	a2 1b       	sub	r26, r18

0000640e <.Loc.16>:
    640e:	b3 0b       	sbc	r27, r19

00006410 <.Loc.17>:
    6410:	e4 0b       	sbc	r30, r20

00006412 <.Loc.18>:
    6412:	f5 0b       	sbc	r31, r21

00006414 <__udivmodsi4_ep>:
    6414:	66 1f       	adc	r22, r22

00006416 <.Loc.20>:
    6416:	77 1f       	adc	r23, r23

00006418 <.Loc.21>:
    6418:	88 1f       	adc	r24, r24

0000641a <.Loc.22>:
    641a:	99 1f       	adc	r25, r25

0000641c <.Loc.23>:
    641c:	1a 94       	dec	r1

0000641e <.Loc.24>:
    641e:	69 f7       	brne	.-38     	; 0x63fa <__udivmodsi4_loop>

00006420 <.Loc.25>:
    6420:	60 95       	com	r22

00006422 <.Loc.26>:
    6422:	70 95       	com	r23

00006424 <.Loc.27>:
    6424:	80 95       	com	r24

00006426 <.Loc.28>:
    6426:	90 95       	com	r25

00006428 <.Loc.29>:
    6428:	9b 01       	movw	r18, r22

0000642a <.Loc.30>:
    642a:	ac 01       	movw	r20, r24

0000642c <.Loc.31>:
    642c:	bd 01       	movw	r22, r26

0000642e <.Loc.32>:
    642e:	cf 01       	movw	r24, r30

00006430 <.Loc.33>:
    6430:	08 95       	ret

00006432 <__divmodsi4>:
    6432:	05 2e       	mov	r0, r21

00006434 <.Loc.1>:
    6434:	97 fb       	bst	r25, 7

00006436 <.Loc.2>:
    6436:	1e f4       	brtc	.+6      	; 0x643e <.L01>

00006438 <.Loc.3>:
    6438:	00 94       	com	r0

0000643a <.Loc.4>:
    643a:	0e 94 30 32 	call	0x6460	; 0x6460 <__negsi2>

0000643e <.L01>:
    643e:	57 fd       	sbrc	r21, 7

00006440 <.Loc.6>:
    6440:	07 d0       	rcall	.+14     	; 0x6450 <__divmodsi4_neg2>

00006442 <.Loc.7>:
    6442:	0e 94 f7 31 	call	0x63ee	; 0x63ee <__udivmodsi4>

00006446 <.Loc.8>:
    6446:	07 fc       	sbrc	r0, 7

00006448 <.Loc.9>:
    6448:	03 d0       	rcall	.+6      	; 0x6450 <__divmodsi4_neg2>

0000644a <.Loc.10>:
    644a:	4e f4       	brtc	.+18     	; 0x645e <__divmodsi4_exit>

0000644c <.Loc.11>:
    644c:	0c 94 30 32 	jmp	0x6460	; 0x6460 <__negsi2>

00006450 <__divmodsi4_neg2>:
    6450:	50 95       	com	r21

00006452 <.Loc.13>:
    6452:	40 95       	com	r20

00006454 <.Loc.14>:
    6454:	30 95       	com	r19

00006456 <.Loc.15>:
    6456:	21 95       	neg	r18

00006458 <.Loc.16>:
    6458:	3f 4f       	sbci	r19, 0xFF	; 255

0000645a <.Loc.17>:
    645a:	4f 4f       	sbci	r20, 0xFF	; 255

0000645c <.Loc.18>:
    645c:	5f 4f       	sbci	r21, 0xFF	; 255

0000645e <__divmodsi4_exit>:
    645e:	08 95       	ret

00006460 <__negsi2>:
    6460:	90 95       	com	r25
    6462:	80 95       	com	r24
    6464:	70 95       	com	r23
    6466:	61 95       	neg	r22
    6468:	7f 4f       	sbci	r23, 0xFF	; 255
    646a:	8f 4f       	sbci	r24, 0xFF	; 255
    646c:	9f 4f       	sbci	r25, 0xFF	; 255

0000646e <.Loc.1>:
    646e:	08 95       	ret

00006470 <__tablejump2__>:
    6470:	ee 0f       	add	r30, r30

00006472 <.Loc.1>:
    6472:	ff 1f       	adc	r31, r31

00006474 <.Loc.2>:
    6474:	00 24       	eor	r0, r0

00006476 <.Loc.3>:
    6476:	00 1c       	adc	r0, r0

00006478 <.Loc.4>:
    6478:	0b be       	out	0x3b, r0	; 59

0000647a <.Loc.5>:
    647a:	07 90       	elpm	r0, Z+

0000647c <.Loc.6>:
    647c:	f6 91       	elpm	r31, Z

0000647e <.Loc.7>:
    647e:	e0 2d       	mov	r30, r0

00006480 <.Loc.8>:
    6480:	09 94       	ijmp

00006482 <__muluhisi3>:
    6482:	0e 94 8f 32 	call	0x651e	; 0x651e <__umulhisi3>

00006486 <.Loc.1>:
    6486:	a5 9f       	mul	r26, r21

00006488 <.Loc.2>:
    6488:	90 0d       	add	r25, r0

0000648a <.Loc.3>:
    648a:	b4 9f       	mul	r27, r20

0000648c <.Loc.4>:
    648c:	90 0d       	add	r25, r0

0000648e <.Loc.5>:
    648e:	a4 9f       	mul	r26, r20

00006490 <.Loc.6>:
    6490:	80 0d       	add	r24, r0

00006492 <.Loc.7>:
    6492:	91 1d       	adc	r25, r1

00006494 <.Loc.8>:
    6494:	11 24       	eor	r1, r1

00006496 <.Loc.9>:
    6496:	08 95       	ret

00006498 <__mulsidi3>:
    6498:	97 fb       	bst	r25, 7

0000649a <.Loc.1>:
    649a:	57 ff       	sbrs	r21, 7

0000649c <.Loc.2>:
    649c:	0c 94 5c 32 	jmp	0x64b8	; 0x64b8 <__umulsidi3_helper>

000064a0 <.Loc.3>:
    64a0:	9f 93       	push	r25

000064a2 <.Loc.4>:
    64a2:	8f 93       	push	r24

000064a4 <.Loc.5>:
    64a4:	0e 94 5c 32 	call	0x64b8	; 0x64b8 <__umulsidi3_helper>

000064a8 <.Loc.6>:
    64a8:	6e 1b       	sub	r22, r30

000064aa <.Loc.7>:
    64aa:	7f 0b       	sbc	r23, r31

000064ac <.Loc.8>:
    64ac:	af 91       	pop	r26

000064ae <.Loc.9>:
    64ae:	bf 91       	pop	r27

000064b0 <.Loc.10>:
    64b0:	8a 0b       	sbc	r24, r26

000064b2 <.Loc.11>:
    64b2:	9b 0b       	sbc	r25, r27

000064b4 <.Loc.12>:
    64b4:	08 95       	ret

000064b6 <__umulsidi3>:
    64b6:	e8 94       	clt

000064b8 <__umulsidi3_helper>:
    64b8:	df 93       	push	r29
    64ba:	cf 93       	push	r28

000064bc <.Loc.2>:
    64bc:	fc 01       	movw	r30, r24

000064be <.Loc.3>:
    64be:	db 01       	movw	r26, r22

000064c0 <.Loc.4>:
    64c0:	0e 94 8f 32 	call	0x651e	; 0x651e <__umulhisi3>

000064c4 <.Loc.5>:
    64c4:	7f 93       	push	r23
    64c6:	6f 93       	push	r22

000064c8 <.Loc.6>:
    64c8:	e9 01       	movw	r28, r18

000064ca <.Loc.7>:
    64ca:	9a 01       	movw	r18, r20

000064cc <.Loc.8>:
    64cc:	ac 01       	movw	r20, r24

000064ce <.Loc.9>:
    64ce:	bf 93       	push	r27
    64d0:	af 93       	push	r26

000064d2 <.Loc.10>:
    64d2:	3f 93       	push	r19
    64d4:	2f 93       	push	r18

000064d6 <.Loc.11>:
    64d6:	df 01       	movw	r26, r30

000064d8 <.Loc.12>:
    64d8:	0e 94 8f 32 	call	0x651e	; 0x651e <__umulhisi3>

000064dc <.Loc.13>:
    64dc:	26 f4       	brtc	.+8      	; 0x64e6 <.L01>

000064de <.Loc.14>:
    64de:	6c 1b       	sub	r22, r28

000064e0 <.Loc.15>:
    64e0:	7d 0b       	sbc	r23, r29

000064e2 <.Loc.16>:
    64e2:	82 0b       	sbc	r24, r18

000064e4 <.Loc.17>:
    64e4:	93 0b       	sbc	r25, r19

000064e6 <.L01>:
    64e6:	9e 01       	movw	r18, r28

000064e8 <.Loc.19>:
    64e8:	eb 01       	movw	r28, r22

000064ea <.Loc.20>:
    64ea:	fc 01       	movw	r30, r24

000064ec <.Loc.21>:
    64ec:	0e 94 9e 32 	call	0x653c	; 0x653c <__muldi3_6>

000064f0 <.Loc.22>:
    64f0:	af 91       	pop	r26
    64f2:	bf 91       	pop	r27

000064f4 <.Loc.23>:
    64f4:	2f 91       	pop	r18
    64f6:	3f 91       	pop	r19

000064f8 <.Loc.24>:
    64f8:	0e 94 9e 32 	call	0x653c	; 0x653c <__muldi3_6>

000064fc <.Loc.25>:
    64fc:	be 01       	movw	r22, r28

000064fe <.Loc.26>:
    64fe:	cf 01       	movw	r24, r30

00006500 <.Loc.27>:
    6500:	f9 01       	movw	r30, r18

00006502 <.Loc.28>:
    6502:	2f 91       	pop	r18
    6504:	3f 91       	pop	r19

00006506 <.Loc.29>:
    6506:	cf 91       	pop	r28
    6508:	df 91       	pop	r29

0000650a <.Loc.30>:
    650a:	08 95       	ret

0000650c <__adddi3>:
    650c:	2a 0d       	add	r18, r10
    650e:	3b 1d       	adc	r19, r11
    6510:	4c 1d       	adc	r20, r12
    6512:	5d 1d       	adc	r21, r13

00006514 <.Loc.1>:
    6514:	6e 1d       	adc	r22, r14
    6516:	7f 1d       	adc	r23, r15
    6518:	80 1f       	adc	r24, r16
    651a:	91 1f       	adc	r25, r17

0000651c <.Loc.2>:
    651c:	08 95       	ret

0000651e <__umulhisi3>:
    651e:	a2 9f       	mul	r26, r18

00006520 <.Loc.1>:
    6520:	b0 01       	movw	r22, r0

00006522 <.Loc.2>:
    6522:	b3 9f       	mul	r27, r19

00006524 <.Loc.3>:
    6524:	c0 01       	movw	r24, r0

00006526 <.Loc.4>:
    6526:	a3 9f       	mul	r26, r19

00006528 <.Loc.5>:
    6528:	70 0d       	add	r23, r0

0000652a <.Loc.6>:
    652a:	81 1d       	adc	r24, r1

0000652c <.Loc.7>:
    652c:	11 24       	eor	r1, r1

0000652e <.Loc.8>:
    652e:	91 1d       	adc	r25, r1

00006530 <.Loc.9>:
    6530:	b2 9f       	mul	r27, r18

00006532 <.Loc.10>:
    6532:	70 0d       	add	r23, r0

00006534 <.Loc.11>:
    6534:	81 1d       	adc	r24, r1

00006536 <.Loc.12>:
    6536:	11 24       	eor	r1, r1

00006538 <.Loc.13>:
    6538:	91 1d       	adc	r25, r1

0000653a <.Loc.14>:
    653a:	08 95       	ret

0000653c <__muldi3_6>:
    653c:	0e 94 8f 32 	call	0x651e	; 0x651e <__umulhisi3>

00006540 <.Loc.1>:
    6540:	46 0f       	add	r20, r22

00006542 <.Loc.2>:
    6542:	57 1f       	adc	r21, r23

00006544 <.Loc.3>:
    6544:	c8 1f       	adc	r28, r24

00006546 <.Loc.4>:
    6546:	d9 1f       	adc	r29, r25

00006548 <.Loc.5>:
    6548:	08 f4       	brcc	.+2      	; 0x654c <.L01>

0000654a <.Loc.6>:
    654a:	31 96       	adiw	r30, 0x01	; 1

0000654c <.L01>:
    654c:	08 95       	ret

0000654e <__subsf3>:
    654e:	50 58       	subi	r21, 0x80	; 128

00006550 <__addsf3>:
    6550:	bb 27       	eor	r27, r27
    6552:	aa 27       	eor	r26, r26
    6554:	0e 94 bf 32 	call	0x657e	; 0x657e <__addsf3x>
    6558:	0c 94 8d 34 	jmp	0x691a	; 0x691a <__fp_round>

0000655c <.L01>:
    655c:	0e 94 7f 34 	call	0x68fe	; 0x68fe <__fp_pscA>
    6560:	38 f0       	brcs	.+14     	; 0x6570 <.L_nan>
    6562:	0e 94 86 34 	call	0x690c	; 0x690c <__fp_pscB>
    6566:	20 f0       	brcs	.+8      	; 0x6570 <.L_nan>
    6568:	39 f4       	brne	.+14     	; 0x6578 <.L_inf>
    656a:	9f 3f       	cpi	r25, 0xFF	; 255
    656c:	19 f4       	brne	.+6      	; 0x6574 <.L_infB>
    656e:	26 f4       	brtc	.+8      	; 0x6578 <.L_inf>

00006570 <.L_nan>:
    6570:	0c 94 6c 34 	jmp	0x68d8	; 0x68d8 <__fp_nan>

00006574 <.L_infB>:
    6574:	0e f4       	brtc	.+2      	; 0x6578 <.L_inf>
    6576:	e0 95       	com	r30

00006578 <.L_inf>:
    6578:	e7 fb       	bst	r30, 7
    657a:	0c 94 66 34 	jmp	0x68cc	; 0x68cc <__fp_inf>

0000657e <__addsf3x>:
    657e:	e9 2f       	mov	r30, r25
    6580:	0e 94 9e 34 	call	0x693c	; 0x693c <__fp_split3>
    6584:	58 f3       	brcs	.-42     	; 0x655c <.L01>
    6586:	ba 17       	cp	r27, r26
    6588:	62 07       	cpc	r22, r18
    658a:	73 07       	cpc	r23, r19
    658c:	84 07       	cpc	r24, r20
    658e:	95 07       	cpc	r25, r21
    6590:	20 f0       	brcs	.+8      	; 0x659a <.L21>
    6592:	79 f4       	brne	.+30     	; 0x65b2 <.L41>
    6594:	a6 f5       	brtc	.+104    	; 0x65fe <.L_add>
    6596:	0c 94 c0 34 	jmp	0x6980	; 0x6980 <__fp_zero>

0000659a <.L21>:
    659a:	0e f4       	brtc	.+2      	; 0x659e <.L31>
    659c:	e0 95       	com	r30

0000659e <.L31>:
    659e:	0b 2e       	mov	r0, r27
    65a0:	ba 2f       	mov	r27, r26
    65a2:	a0 2d       	mov	r26, r0
    65a4:	0b 01       	movw	r0, r22
    65a6:	b9 01       	movw	r22, r18
    65a8:	90 01       	movw	r18, r0
    65aa:	0c 01       	movw	r0, r24
    65ac:	ca 01       	movw	r24, r20
    65ae:	a0 01       	movw	r20, r0
    65b0:	11 24       	eor	r1, r1

000065b2 <.L41>:
    65b2:	ff 27       	eor	r31, r31
    65b4:	59 1b       	sub	r21, r25

000065b6 <.L51>:
    65b6:	99 f0       	breq	.+38     	; 0x65de <.L71>
    65b8:	59 3f       	cpi	r21, 0xF9	; 249
    65ba:	50 f4       	brcc	.+20     	; 0x65d0 <.L61>
    65bc:	50 3e       	cpi	r21, 0xE0	; 224
    65be:	68 f1       	brcs	.+90     	; 0x661a <.L_ret>
    65c0:	1a 16       	cp	r1, r26
    65c2:	f0 40       	sbci	r31, 0x00	; 0
    65c4:	a2 2f       	mov	r26, r18
    65c6:	23 2f       	mov	r18, r19
    65c8:	34 2f       	mov	r19, r20
    65ca:	44 27       	eor	r20, r20
    65cc:	58 5f       	subi	r21, 0xF8	; 248
    65ce:	f3 cf       	rjmp	.-26     	; 0x65b6 <.L51>

000065d0 <.L61>:
    65d0:	46 95       	lsr	r20
    65d2:	37 95       	ror	r19
    65d4:	27 95       	ror	r18
    65d6:	a7 95       	ror	r26
    65d8:	f0 40       	sbci	r31, 0x00	; 0
    65da:	53 95       	inc	r21
    65dc:	c9 f7       	brne	.-14     	; 0x65d0 <.L61>

000065de <.L71>:
    65de:	7e f4       	brtc	.+30     	; 0x65fe <.L_add>
    65e0:	1f 16       	cp	r1, r31
    65e2:	ba 0b       	sbc	r27, r26
    65e4:	62 0b       	sbc	r22, r18
    65e6:	73 0b       	sbc	r23, r19
    65e8:	84 0b       	sbc	r24, r20
    65ea:	ba f0       	brmi	.+46     	; 0x661a <.L_ret>

000065ec <.L81>:
    65ec:	91 50       	subi	r25, 0x01	; 1
    65ee:	a1 f0       	breq	.+40     	; 0x6618 <.L91>
    65f0:	ff 0f       	add	r31, r31
    65f2:	bb 1f       	adc	r27, r27
    65f4:	66 1f       	adc	r22, r22
    65f6:	77 1f       	adc	r23, r23
    65f8:	88 1f       	adc	r24, r24
    65fa:	c2 f7       	brpl	.-16     	; 0x65ec <.L81>
    65fc:	0e c0       	rjmp	.+28     	; 0x661a <.L_ret>

000065fe <.L_add>:
    65fe:	ba 0f       	add	r27, r26
    6600:	62 1f       	adc	r22, r18
    6602:	73 1f       	adc	r23, r19
    6604:	84 1f       	adc	r24, r20
    6606:	48 f4       	brcc	.+18     	; 0x661a <.L_ret>
    6608:	87 95       	ror	r24
    660a:	77 95       	ror	r23
    660c:	67 95       	ror	r22
    660e:	b7 95       	ror	r27
    6610:	f7 95       	ror	r31
    6612:	9e 3f       	cpi	r25, 0xFE	; 254
    6614:	08 f0       	brcs	.+2      	; 0x6618 <.L91>
    6616:	b0 cf       	rjmp	.-160    	; 0x6578 <.L_inf>

00006618 <.L91>:
    6618:	93 95       	inc	r25

0000661a <.L_ret>:
    661a:	88 0f       	add	r24, r24
    661c:	08 f0       	brcs	.+2      	; 0x6620 <.L11>
    661e:	99 27       	eor	r25, r25

00006620 <.L11>:
    6620:	ee 0f       	add	r30, r30
    6622:	97 95       	ror	r25
    6624:	87 95       	ror	r24
    6626:	08 95       	ret

00006628 <__cmpsf2>:
    6628:	0e 94 42 34 	call	0x6884	; 0x6884 <__fp_cmp>
    662c:	08 f4       	brcc	.+2      	; 0x6630 <.L11>
    662e:	81 e0       	ldi	r24, 0x01	; 1

00006630 <.L11>:
    6630:	08 95       	ret

00006632 <__divsf3>:
    6632:	0e 94 2d 33 	call	0x665a	; 0x665a <__divsf3x>
    6636:	0c 94 8d 34 	jmp	0x691a	; 0x691a <__fp_round>

0000663a <.L01>:
    663a:	0e 94 86 34 	call	0x690c	; 0x690c <__fp_pscB>
    663e:	58 f0       	brcs	.+22     	; 0x6656 <.L_nan>
    6640:	0e 94 7f 34 	call	0x68fe	; 0x68fe <__fp_pscA>
    6644:	40 f0       	brcs	.+16     	; 0x6656 <.L_nan>
    6646:	29 f4       	brne	.+10     	; 0x6652 <.L_zr>
    6648:	5f 3f       	cpi	r21, 0xFF	; 255
    664a:	29 f0       	breq	.+10     	; 0x6656 <.L_nan>

0000664c <.L_inf>:
    664c:	0c 94 66 34 	jmp	0x68cc	; 0x68cc <__fp_inf>

00006650 <.L11>:
    6650:	51 11       	cpse	r21, r1

00006652 <.L_zr>:
    6652:	0c 94 c1 34 	jmp	0x6982	; 0x6982 <__fp_szero>

00006656 <.L_nan>:
    6656:	0c 94 6c 34 	jmp	0x68d8	; 0x68d8 <__fp_nan>

0000665a <__divsf3x>:
    665a:	0e 94 9e 34 	call	0x693c	; 0x693c <__fp_split3>
    665e:	68 f3       	brcs	.-38     	; 0x663a <.L01>

00006660 <__divsf3_pse>:
    6660:	99 23       	and	r25, r25
    6662:	b1 f3       	breq	.-20     	; 0x6650 <.L11>
    6664:	55 23       	and	r21, r21
    6666:	91 f3       	breq	.-28     	; 0x664c <.L_inf>
    6668:	95 1b       	sub	r25, r21
    666a:	55 0b       	sbc	r21, r21
    666c:	bb 27       	eor	r27, r27
    666e:	aa 27       	eor	r26, r26

00006670 <.L21>:
    6670:	62 17       	cp	r22, r18
    6672:	73 07       	cpc	r23, r19
    6674:	84 07       	cpc	r24, r20
    6676:	38 f0       	brcs	.+14     	; 0x6686 <.L31>
    6678:	9f 5f       	subi	r25, 0xFF	; 255
    667a:	5f 4f       	sbci	r21, 0xFF	; 255
    667c:	22 0f       	add	r18, r18
    667e:	33 1f       	adc	r19, r19
    6680:	44 1f       	adc	r20, r20
    6682:	aa 1f       	adc	r26, r26
    6684:	a9 f3       	breq	.-22     	; 0x6670 <.L21>

00006686 <.L31>:
    6686:	35 d0       	rcall	.+106    	; 0x66f2 <.L_div>
    6688:	0e 2e       	mov	r0, r30
    668a:	3a f0       	brmi	.+14     	; 0x669a <.L51>

0000668c <.L41>:
    668c:	e0 e8       	ldi	r30, 0x80	; 128
    668e:	32 d0       	rcall	.+100    	; 0x66f4 <.L_div1>
    6690:	91 50       	subi	r25, 0x01	; 1
    6692:	50 40       	sbci	r21, 0x00	; 0
    6694:	e6 95       	lsr	r30
    6696:	00 1c       	adc	r0, r0
    6698:	ca f7       	brpl	.-14     	; 0x668c <.L41>

0000669a <.L51>:
    669a:	2b d0       	rcall	.+86     	; 0x66f2 <.L_div>
    669c:	fe 2f       	mov	r31, r30
    669e:	29 d0       	rcall	.+82     	; 0x66f2 <.L_div>
    66a0:	66 0f       	add	r22, r22
    66a2:	77 1f       	adc	r23, r23
    66a4:	88 1f       	adc	r24, r24
    66a6:	bb 1f       	adc	r27, r27
    66a8:	26 17       	cp	r18, r22
    66aa:	37 07       	cpc	r19, r23
    66ac:	48 07       	cpc	r20, r24
    66ae:	ab 07       	cpc	r26, r27
    66b0:	b0 e8       	ldi	r27, 0x80	; 128
    66b2:	09 f0       	breq	.+2      	; 0x66b6 <.L42>
    66b4:	bb 0b       	sbc	r27, r27

000066b6 <.L42>:
    66b6:	80 2d       	mov	r24, r0
    66b8:	bf 01       	movw	r22, r30
    66ba:	ff 27       	eor	r31, r31
    66bc:	93 58       	subi	r25, 0x83	; 131
    66be:	5f 4f       	sbci	r21, 0xFF	; 255
    66c0:	3a f0       	brmi	.+14     	; 0x66d0 <.L131>
    66c2:	9e 3f       	cpi	r25, 0xFE	; 254
    66c4:	51 05       	cpc	r21, r1
    66c6:	78 f0       	brcs	.+30     	; 0x66e6 <.L151>
    66c8:	0c 94 66 34 	jmp	0x68cc	; 0x68cc <__fp_inf>

000066cc <.L121>:
    66cc:	0c 94 c1 34 	jmp	0x6982	; 0x6982 <__fp_szero>

000066d0 <.L131>:
    66d0:	5f 3f       	cpi	r21, 0xFF	; 255
    66d2:	e4 f3       	brlt	.-8      	; 0x66cc <.L121>
    66d4:	98 3e       	cpi	r25, 0xE8	; 232
    66d6:	d4 f3       	brlt	.-12     	; 0x66cc <.L121>

000066d8 <.L141>:
    66d8:	86 95       	lsr	r24
    66da:	77 95       	ror	r23
    66dc:	67 95       	ror	r22
    66de:	b7 95       	ror	r27
    66e0:	f7 95       	ror	r31
    66e2:	9f 5f       	subi	r25, 0xFF	; 255
    66e4:	c9 f7       	brne	.-14     	; 0x66d8 <.L141>

000066e6 <.L151>:
    66e6:	88 0f       	add	r24, r24
    66e8:	91 1d       	adc	r25, r1
    66ea:	96 95       	lsr	r25
    66ec:	87 95       	ror	r24
    66ee:	97 f9       	bld	r25, 7
    66f0:	08 95       	ret

000066f2 <.L_div>:
    66f2:	e1 e0       	ldi	r30, 0x01	; 1

000066f4 <.L_div1>:
    66f4:	66 0f       	add	r22, r22
    66f6:	77 1f       	adc	r23, r23
    66f8:	88 1f       	adc	r24, r24
    66fa:	bb 1f       	adc	r27, r27
    66fc:	62 17       	cp	r22, r18
    66fe:	73 07       	cpc	r23, r19
    6700:	84 07       	cpc	r24, r20
    6702:	ba 07       	cpc	r27, r26
    6704:	20 f0       	brcs	.+8      	; 0x670e <.L22>
    6706:	62 1b       	sub	r22, r18
    6708:	73 0b       	sbc	r23, r19
    670a:	84 0b       	sbc	r24, r20
    670c:	ba 0b       	sbc	r27, r26

0000670e <.L22>:
    670e:	ee 1f       	adc	r30, r30
    6710:	88 f7       	brcc	.-30     	; 0x66f4 <.L_div1>
    6712:	e0 95       	com	r30
    6714:	08 95       	ret

00006716 <__fixsfsi>:
    6716:	0e 94 92 33 	call	0x6724	; 0x6724 <__fixunssfsi>
    671a:	68 94       	set
    671c:	b1 11       	cpse	r27, r1
    671e:	0c 94 c1 34 	jmp	0x6982	; 0x6982 <__fp_szero>
    6722:	08 95       	ret

00006724 <__fixunssfsi>:
    6724:	0e 94 a6 34 	call	0x694c	; 0x694c <__fp_splitA>
    6728:	88 f0       	brcs	.+34     	; 0x674c <.L_err>
    672a:	9f 57       	subi	r25, 0x7F	; 127
    672c:	98 f0       	brcs	.+38     	; 0x6754 <.L_zr>
    672e:	b9 2f       	mov	r27, r25
    6730:	99 27       	eor	r25, r25
    6732:	b7 51       	subi	r27, 0x17	; 23
    6734:	b0 f0       	brcs	.+44     	; 0x6762 <.L41>
    6736:	e1 f0       	breq	.+56     	; 0x6770 <.L_sign>

00006738 <.L11>:
    6738:	66 0f       	add	r22, r22
    673a:	77 1f       	adc	r23, r23
    673c:	88 1f       	adc	r24, r24
    673e:	99 1f       	adc	r25, r25
    6740:	1a f0       	brmi	.+6      	; 0x6748 <.L21>
    6742:	ba 95       	dec	r27
    6744:	c9 f7       	brne	.-14     	; 0x6738 <.L11>
    6746:	14 c0       	rjmp	.+40     	; 0x6770 <.L_sign>

00006748 <.L21>:
    6748:	b1 30       	cpi	r27, 0x01	; 1
    674a:	91 f0       	breq	.+36     	; 0x6770 <.L_sign>

0000674c <.L_err>:
    674c:	0e 94 c0 34 	call	0x6980	; 0x6980 <__fp_zero>
    6750:	b1 e0       	ldi	r27, 0x01	; 1
    6752:	08 95       	ret

00006754 <.L_zr>:
    6754:	0c 94 c0 34 	jmp	0x6980	; 0x6980 <__fp_zero>

00006758 <.L31>:
    6758:	67 2f       	mov	r22, r23
    675a:	78 2f       	mov	r23, r24
    675c:	88 27       	eor	r24, r24
    675e:	b8 5f       	subi	r27, 0xF8	; 248
    6760:	39 f0       	breq	.+14     	; 0x6770 <.L_sign>

00006762 <.L41>:
    6762:	b9 3f       	cpi	r27, 0xF9	; 249
    6764:	cc f3       	brlt	.-14     	; 0x6758 <.L31>

00006766 <.L51>:
    6766:	86 95       	lsr	r24
    6768:	77 95       	ror	r23
    676a:	67 95       	ror	r22
    676c:	b3 95       	inc	r27
    676e:	d9 f7       	brne	.-10     	; 0x6766 <.L51>

00006770 <.L_sign>:
    6770:	3e f4       	brtc	.+14     	; 0x6780 <.L61>
    6772:	90 95       	com	r25
    6774:	80 95       	com	r24
    6776:	70 95       	com	r23
    6778:	61 95       	neg	r22
    677a:	7f 4f       	sbci	r23, 0xFF	; 255
    677c:	8f 4f       	sbci	r24, 0xFF	; 255
    677e:	9f 4f       	sbci	r25, 0xFF	; 255

00006780 <.L61>:
    6780:	08 95       	ret

00006782 <__floatdisf>:
    6782:	97 fb       	bst	r25, 7
    6784:	16 f4       	brtc	.+4      	; 0x678a <.L11>
    6786:	0e 94 6f 34 	call	0x68de	; 0x68de <__fp_negdi>

0000678a <.L11>:
    678a:	0c 94 05 34 	jmp	0x680a	; 0x680a <__fp_di2sf>

0000678e <__floatunsisf>:
    678e:	e8 94       	clt
    6790:	09 c0       	rjmp	.+18     	; 0x67a4 <.L11>

00006792 <__floatsisf>:
    6792:	97 fb       	bst	r25, 7
    6794:	3e f4       	brtc	.+14     	; 0x67a4 <.L11>
    6796:	90 95       	com	r25
    6798:	80 95       	com	r24
    679a:	70 95       	com	r23
    679c:	61 95       	neg	r22
    679e:	7f 4f       	sbci	r23, 0xFF	; 255
    67a0:	8f 4f       	sbci	r24, 0xFF	; 255
    67a2:	9f 4f       	sbci	r25, 0xFF	; 255

000067a4 <.L11>:
    67a4:	99 23       	and	r25, r25
    67a6:	a9 f0       	breq	.+42     	; 0x67d2 <.L41>
    67a8:	f9 2f       	mov	r31, r25
    67aa:	96 e9       	ldi	r25, 0x96	; 150
    67ac:	bb 27       	eor	r27, r27

000067ae <.L21>:
    67ae:	93 95       	inc	r25
    67b0:	f6 95       	lsr	r31
    67b2:	87 95       	ror	r24
    67b4:	77 95       	ror	r23
    67b6:	67 95       	ror	r22
    67b8:	b7 95       	ror	r27
    67ba:	f1 11       	cpse	r31, r1
    67bc:	f8 cf       	rjmp	.-16     	; 0x67ae <.L21>
    67be:	fa f4       	brpl	.+62     	; 0x67fe <.L_pack>
    67c0:	bb 0f       	add	r27, r27
    67c2:	11 f4       	brne	.+4      	; 0x67c8 <.L31>
    67c4:	60 ff       	sbrs	r22, 0
    67c6:	1b c0       	rjmp	.+54     	; 0x67fe <.L_pack>

000067c8 <.L31>:
    67c8:	6f 5f       	subi	r22, 0xFF	; 255
    67ca:	7f 4f       	sbci	r23, 0xFF	; 255
    67cc:	8f 4f       	sbci	r24, 0xFF	; 255
    67ce:	9f 4f       	sbci	r25, 0xFF	; 255
    67d0:	16 c0       	rjmp	.+44     	; 0x67fe <.L_pack>

000067d2 <.L41>:
    67d2:	88 23       	and	r24, r24
    67d4:	11 f0       	breq	.+4      	; 0x67da <.L51>
    67d6:	96 e9       	ldi	r25, 0x96	; 150
    67d8:	11 c0       	rjmp	.+34     	; 0x67fc <.L81>

000067da <.L51>:
    67da:	77 23       	and	r23, r23
    67dc:	21 f0       	breq	.+8      	; 0x67e6 <.L61>
    67de:	9e e8       	ldi	r25, 0x8E	; 142
    67e0:	87 2f       	mov	r24, r23
    67e2:	76 2f       	mov	r23, r22
    67e4:	05 c0       	rjmp	.+10     	; 0x67f0 <.L71>

000067e6 <.L61>:
    67e6:	66 23       	and	r22, r22
    67e8:	71 f0       	breq	.+28     	; 0x6806 <.L91>
    67ea:	96 e8       	ldi	r25, 0x86	; 134
    67ec:	86 2f       	mov	r24, r22
    67ee:	70 e0       	ldi	r23, 0x00	; 0

000067f0 <.L71>:
    67f0:	60 e0       	ldi	r22, 0x00	; 0
    67f2:	2a f0       	brmi	.+10     	; 0x67fe <.L_pack>

000067f4 <.L101>:
    67f4:	9a 95       	dec	r25
    67f6:	66 0f       	add	r22, r22
    67f8:	77 1f       	adc	r23, r23
    67fa:	88 1f       	adc	r24, r24

000067fc <.L81>:
    67fc:	da f7       	brpl	.-10     	; 0x67f4 <.L101>

000067fe <.L_pack>:
    67fe:	88 0f       	add	r24, r24
    6800:	96 95       	lsr	r25
    6802:	87 95       	ror	r24
    6804:	97 f9       	bld	r25, 7

00006806 <.L91>:
    6806:	08 95       	ret

00006808 <__floatundisf>:
    6808:	e8 94       	clt

0000680a <__fp_di2sf>:
    680a:	f9 2f       	mov	r31, r25
    680c:	96 eb       	ldi	r25, 0xB6	; 182
    680e:	ff 23       	and	r31, r31
    6810:	81 f0       	breq	.+32     	; 0x6832 <.L_tstA2>
    6812:	12 16       	cp	r1, r18
    6814:	13 06       	cpc	r1, r19
    6816:	14 06       	cpc	r1, r20
    6818:	44 0b       	sbc	r20, r20

0000681a <.L11>:
    681a:	93 95       	inc	r25
    681c:	f6 95       	lsr	r31
    681e:	87 95       	ror	r24
    6820:	77 95       	ror	r23
    6822:	67 95       	ror	r22
    6824:	57 95       	ror	r21
    6826:	40 40       	sbci	r20, 0x00	; 0
    6828:	ff 23       	and	r31, r31
    682a:	b9 f7       	brne	.-18     	; 0x681a <.L11>
    682c:	1b c0       	rjmp	.+54     	; 0x6864 <.L_round>

0000682e <.L21>:
    682e:	99 27       	eor	r25, r25
    6830:	08 95       	ret

00006832 <.L_tstA2>:
    6832:	88 23       	and	r24, r24
    6834:	51 f4       	brne	.+20     	; 0x684a <.L41>

00006836 <.L31>:
    6836:	98 50       	subi	r25, 0x08	; 8
    6838:	d2 f7       	brpl	.-12     	; 0x682e <.L21>
    683a:	87 2b       	or	r24, r23
    683c:	76 2f       	mov	r23, r22
    683e:	65 2f       	mov	r22, r21
    6840:	54 2f       	mov	r21, r20
    6842:	43 2f       	mov	r20, r19
    6844:	32 2f       	mov	r19, r18
    6846:	20 e0       	ldi	r18, 0x00	; 0
    6848:	b1 f3       	breq	.-20     	; 0x6836 <.L31>

0000684a <.L41>:
    684a:	12 16       	cp	r1, r18
    684c:	13 06       	cpc	r1, r19
    684e:	14 06       	cpc	r1, r20
    6850:	44 0b       	sbc	r20, r20
    6852:	88 23       	and	r24, r24
    6854:	3a f0       	brmi	.+14     	; 0x6864 <.L_round>

00006856 <.L51>:
    6856:	9a 95       	dec	r25
    6858:	44 0f       	add	r20, r20
    685a:	55 1f       	adc	r21, r21
    685c:	66 1f       	adc	r22, r22
    685e:	77 1f       	adc	r23, r23
    6860:	88 1f       	adc	r24, r24
    6862:	ca f7       	brpl	.-14     	; 0x6856 <.L51>

00006864 <.L_round>:
    6864:	55 23       	and	r21, r21
    6866:	4a f4       	brpl	.+18     	; 0x687a <.L71>
    6868:	44 0f       	add	r20, r20
    686a:	55 1f       	adc	r21, r21
    686c:	11 f4       	brne	.+4      	; 0x6872 <.L61>
    686e:	60 ff       	sbrs	r22, 0
    6870:	04 c0       	rjmp	.+8      	; 0x687a <.L71>

00006872 <.L61>:
    6872:	6f 5f       	subi	r22, 0xFF	; 255
    6874:	7f 4f       	sbci	r23, 0xFF	; 255
    6876:	8f 4f       	sbci	r24, 0xFF	; 255
    6878:	9f 4f       	sbci	r25, 0xFF	; 255

0000687a <.L71>:
    687a:	88 0f       	add	r24, r24
    687c:	96 95       	lsr	r25
    687e:	87 95       	ror	r24
    6880:	97 f9       	bld	r25, 7
    6882:	08 95       	ret

00006884 <__fp_cmp>:
    6884:	99 0f       	add	r25, r25
    6886:	00 08       	sbc	r0, r0
    6888:	55 0f       	add	r21, r21
    688a:	aa 0b       	sbc	r26, r26
    688c:	e0 e8       	ldi	r30, 0x80	; 128
    688e:	fe ef       	ldi	r31, 0xFE	; 254
    6890:	16 16       	cp	r1, r22
    6892:	17 06       	cpc	r1, r23
    6894:	e8 07       	cpc	r30, r24
    6896:	f9 07       	cpc	r31, r25
    6898:	c0 f0       	brcs	.+48     	; 0x68ca <.L91>
    689a:	12 16       	cp	r1, r18
    689c:	13 06       	cpc	r1, r19
    689e:	e4 07       	cpc	r30, r20
    68a0:	f5 07       	cpc	r31, r21
    68a2:	98 f0       	brcs	.+38     	; 0x68ca <.L91>
    68a4:	62 1b       	sub	r22, r18
    68a6:	73 0b       	sbc	r23, r19
    68a8:	84 0b       	sbc	r24, r20
    68aa:	95 0b       	sbc	r25, r21
    68ac:	39 f4       	brne	.+14     	; 0x68bc <.L11>
    68ae:	0a 26       	eor	r0, r26
    68b0:	61 f0       	breq	.+24     	; 0x68ca <.L91>
    68b2:	23 2b       	or	r18, r19
    68b4:	24 2b       	or	r18, r20
    68b6:	25 2b       	or	r18, r21
    68b8:	21 f4       	brne	.+8      	; 0x68c2 <.L21>
    68ba:	08 95       	ret

000068bc <.L11>:
    68bc:	0a 26       	eor	r0, r26
    68be:	09 f4       	brne	.+2      	; 0x68c2 <.L21>
    68c0:	a1 40       	sbci	r26, 0x01	; 1

000068c2 <.L21>:
    68c2:	a6 95       	lsr	r26
    68c4:	8f ef       	ldi	r24, 0xFF	; 255
    68c6:	81 1d       	adc	r24, r1
    68c8:	81 1d       	adc	r24, r1

000068ca <.L91>:
    68ca:	08 95       	ret

000068cc <__fp_inf>:
    68cc:	97 f9       	bld	r25, 7
    68ce:	9f 67       	ori	r25, 0x7F	; 127
    68d0:	80 e8       	ldi	r24, 0x80	; 128
    68d2:	70 e0       	ldi	r23, 0x00	; 0
    68d4:	60 e0       	ldi	r22, 0x00	; 0
    68d6:	08 95       	ret

000068d8 <__fp_nan>:
    68d8:	9f ef       	ldi	r25, 0xFF	; 255
    68da:	80 ec       	ldi	r24, 0xC0	; 192
    68dc:	08 95       	ret

000068de <__fp_negdi>:
    68de:	90 95       	com	r25
    68e0:	80 95       	com	r24
    68e2:	70 95       	com	r23
    68e4:	60 95       	com	r22
    68e6:	50 95       	com	r21
    68e8:	40 95       	com	r20
    68ea:	30 95       	com	r19
    68ec:	21 95       	neg	r18
    68ee:	3f 4f       	sbci	r19, 0xFF	; 255
    68f0:	4f 4f       	sbci	r20, 0xFF	; 255
    68f2:	5f 4f       	sbci	r21, 0xFF	; 255
    68f4:	6f 4f       	sbci	r22, 0xFF	; 255
    68f6:	7f 4f       	sbci	r23, 0xFF	; 255
    68f8:	8f 4f       	sbci	r24, 0xFF	; 255
    68fa:	9f 4f       	sbci	r25, 0xFF	; 255
    68fc:	08 95       	ret

000068fe <__fp_pscA>:
    68fe:	00 24       	eor	r0, r0
    6900:	0a 94       	dec	r0
    6902:	16 16       	cp	r1, r22
    6904:	17 06       	cpc	r1, r23
    6906:	18 06       	cpc	r1, r24
    6908:	09 06       	cpc	r0, r25
    690a:	08 95       	ret

0000690c <__fp_pscB>:
    690c:	00 24       	eor	r0, r0
    690e:	0a 94       	dec	r0
    6910:	12 16       	cp	r1, r18
    6912:	13 06       	cpc	r1, r19
    6914:	14 06       	cpc	r1, r20
    6916:	05 06       	cpc	r0, r21
    6918:	08 95       	ret

0000691a <__fp_round>:
    691a:	09 2e       	mov	r0, r25
    691c:	03 94       	inc	r0
    691e:	00 0c       	add	r0, r0
    6920:	11 f4       	brne	.+4      	; 0x6926 <.L11>
    6922:	88 23       	and	r24, r24
    6924:	52 f0       	brmi	.+20     	; 0x693a <.L31>

00006926 <.L11>:
    6926:	bb 0f       	add	r27, r27
    6928:	40 f4       	brcc	.+16     	; 0x693a <.L31>
    692a:	bf 2b       	or	r27, r31
    692c:	11 f4       	brne	.+4      	; 0x6932 <.L21>
    692e:	60 ff       	sbrs	r22, 0
    6930:	04 c0       	rjmp	.+8      	; 0x693a <.L31>

00006932 <.L21>:
    6932:	6f 5f       	subi	r22, 0xFF	; 255
    6934:	7f 4f       	sbci	r23, 0xFF	; 255
    6936:	8f 4f       	sbci	r24, 0xFF	; 255
    6938:	9f 4f       	sbci	r25, 0xFF	; 255

0000693a <.L31>:
    693a:	08 95       	ret

0000693c <__fp_split3>:
    693c:	57 fd       	sbrc	r21, 7
    693e:	90 58       	subi	r25, 0x80	; 128
    6940:	44 0f       	add	r20, r20
    6942:	55 1f       	adc	r21, r21
    6944:	59 f0       	breq	.+22     	; 0x695c <.L41>
    6946:	5f 3f       	cpi	r21, 0xFF	; 255
    6948:	71 f0       	breq	.+28     	; 0x6966 <.L51>

0000694a <.L11>:
    694a:	47 95       	ror	r20

0000694c <__fp_splitA>:
    694c:	88 0f       	add	r24, r24
    694e:	97 fb       	bst	r25, 7
    6950:	99 1f       	adc	r25, r25
    6952:	61 f0       	breq	.+24     	; 0x696c <.L61>
    6954:	9f 3f       	cpi	r25, 0xFF	; 255
    6956:	79 f0       	breq	.+30     	; 0x6976 <.L71>

00006958 <.L31>:
    6958:	87 95       	ror	r24
    695a:	08 95       	ret

0000695c <.L41>:
    695c:	12 16       	cp	r1, r18
    695e:	13 06       	cpc	r1, r19
    6960:	14 06       	cpc	r1, r20
    6962:	55 1f       	adc	r21, r21
    6964:	f2 cf       	rjmp	.-28     	; 0x694a <.L11>

00006966 <.L51>:
    6966:	46 95       	lsr	r20
    6968:	f1 df       	rcall	.-30     	; 0x694c <__fp_splitA>
    696a:	08 c0       	rjmp	.+16     	; 0x697c <.L81>

0000696c <.L61>:
    696c:	16 16       	cp	r1, r22
    696e:	17 06       	cpc	r1, r23
    6970:	18 06       	cpc	r1, r24
    6972:	99 1f       	adc	r25, r25
    6974:	f1 cf       	rjmp	.-30     	; 0x6958 <.L31>

00006976 <.L71>:
    6976:	86 95       	lsr	r24
    6978:	71 05       	cpc	r23, r1
    697a:	61 05       	cpc	r22, r1

0000697c <.L81>:
    697c:	08 94       	sec
    697e:	08 95       	ret

00006980 <__fp_zero>:
    6980:	e8 94       	clt

00006982 <__fp_szero>:
    6982:	bb 27       	eor	r27, r27
    6984:	66 27       	eor	r22, r22
    6986:	77 27       	eor	r23, r23
    6988:	cb 01       	movw	r24, r22
    698a:	97 f9       	bld	r25, 7
    698c:	08 95       	ret

0000698e <__gesf2>:
    698e:	0e 94 42 34 	call	0x6884	; 0x6884 <__fp_cmp>
    6992:	08 f4       	brcc	.+2      	; 0x6996 <.L11>
    6994:	8f ef       	ldi	r24, 0xFF	; 255

00006996 <.L11>:
    6996:	08 95       	ret

00006998 <__mulsf3>:
    6998:	0e 94 df 34 	call	0x69be	; 0x69be <__mulsf3x>
    699c:	0c 94 8d 34 	jmp	0x691a	; 0x691a <__fp_round>

000069a0 <.L01>:
    69a0:	0e 94 7f 34 	call	0x68fe	; 0x68fe <__fp_pscA>
    69a4:	38 f0       	brcs	.+14     	; 0x69b4 <.L11>
    69a6:	0e 94 86 34 	call	0x690c	; 0x690c <__fp_pscB>
    69aa:	20 f0       	brcs	.+8      	; 0x69b4 <.L11>
    69ac:	95 23       	and	r25, r21
    69ae:	11 f0       	breq	.+4      	; 0x69b4 <.L11>
    69b0:	0c 94 66 34 	jmp	0x68cc	; 0x68cc <__fp_inf>

000069b4 <.L11>:
    69b4:	0c 94 6c 34 	jmp	0x68d8	; 0x68d8 <__fp_nan>

000069b8 <.L21>:
    69b8:	11 24       	eor	r1, r1
    69ba:	0c 94 c1 34 	jmp	0x6982	; 0x6982 <__fp_szero>

000069be <__mulsf3x>:
    69be:	0e 94 9e 34 	call	0x693c	; 0x693c <__fp_split3>
    69c2:	70 f3       	brcs	.-36     	; 0x69a0 <.L01>

000069c4 <__mulsf3_pse>:
    69c4:	95 9f       	mul	r25, r21
    69c6:	c1 f3       	breq	.-16     	; 0x69b8 <.L21>
    69c8:	95 0f       	add	r25, r21
    69ca:	50 e0       	ldi	r21, 0x00	; 0
    69cc:	55 1f       	adc	r21, r21
    69ce:	62 9f       	mul	r22, r18
    69d0:	f0 01       	movw	r30, r0
    69d2:	72 9f       	mul	r23, r18
    69d4:	bb 27       	eor	r27, r27
    69d6:	f0 0d       	add	r31, r0
    69d8:	b1 1d       	adc	r27, r1
    69da:	63 9f       	mul	r22, r19
    69dc:	aa 27       	eor	r26, r26
    69de:	f0 0d       	add	r31, r0
    69e0:	b1 1d       	adc	r27, r1
    69e2:	aa 1f       	adc	r26, r26
    69e4:	64 9f       	mul	r22, r20
    69e6:	66 27       	eor	r22, r22
    69e8:	b0 0d       	add	r27, r0
    69ea:	a1 1d       	adc	r26, r1
    69ec:	66 1f       	adc	r22, r22
    69ee:	82 9f       	mul	r24, r18
    69f0:	22 27       	eor	r18, r18
    69f2:	b0 0d       	add	r27, r0
    69f4:	a1 1d       	adc	r26, r1
    69f6:	62 1f       	adc	r22, r18
    69f8:	73 9f       	mul	r23, r19
    69fa:	b0 0d       	add	r27, r0
    69fc:	a1 1d       	adc	r26, r1
    69fe:	62 1f       	adc	r22, r18
    6a00:	83 9f       	mul	r24, r19
    6a02:	a0 0d       	add	r26, r0
    6a04:	61 1d       	adc	r22, r1
    6a06:	22 1f       	adc	r18, r18
    6a08:	74 9f       	mul	r23, r20
    6a0a:	33 27       	eor	r19, r19
    6a0c:	a0 0d       	add	r26, r0
    6a0e:	61 1d       	adc	r22, r1
    6a10:	23 1f       	adc	r18, r19
    6a12:	84 9f       	mul	r24, r20
    6a14:	60 0d       	add	r22, r0
    6a16:	21 1d       	adc	r18, r1
    6a18:	82 2f       	mov	r24, r18
    6a1a:	76 2f       	mov	r23, r22
    6a1c:	6a 2f       	mov	r22, r26
    6a1e:	11 24       	eor	r1, r1
    6a20:	9f 57       	subi	r25, 0x7F	; 127
    6a22:	50 40       	sbci	r21, 0x00	; 0
    6a24:	9a f0       	brmi	.+38     	; 0x6a4c <.L131>
    6a26:	f1 f0       	breq	.+60     	; 0x6a64 <.L151>

00006a28 <.L101>:
    6a28:	88 23       	and	r24, r24
    6a2a:	4a f0       	brmi	.+18     	; 0x6a3e <.L111>
    6a2c:	ee 0f       	add	r30, r30
    6a2e:	ff 1f       	adc	r31, r31
    6a30:	bb 1f       	adc	r27, r27
    6a32:	66 1f       	adc	r22, r22
    6a34:	77 1f       	adc	r23, r23
    6a36:	88 1f       	adc	r24, r24
    6a38:	91 50       	subi	r25, 0x01	; 1
    6a3a:	50 40       	sbci	r21, 0x00	; 0
    6a3c:	a9 f7       	brne	.-22     	; 0x6a28 <.L101>

00006a3e <.L111>:
    6a3e:	9e 3f       	cpi	r25, 0xFE	; 254
    6a40:	51 05       	cpc	r21, r1
    6a42:	80 f0       	brcs	.+32     	; 0x6a64 <.L151>
    6a44:	0c 94 66 34 	jmp	0x68cc	; 0x68cc <__fp_inf>

00006a48 <.L121>:
    6a48:	0c 94 c1 34 	jmp	0x6982	; 0x6982 <__fp_szero>

00006a4c <.L131>:
    6a4c:	5f 3f       	cpi	r21, 0xFF	; 255
    6a4e:	e4 f3       	brlt	.-8      	; 0x6a48 <.L121>
    6a50:	98 3e       	cpi	r25, 0xE8	; 232
    6a52:	d4 f3       	brlt	.-12     	; 0x6a48 <.L121>

00006a54 <.L141>:
    6a54:	86 95       	lsr	r24
    6a56:	77 95       	ror	r23
    6a58:	67 95       	ror	r22
    6a5a:	b7 95       	ror	r27
    6a5c:	f7 95       	ror	r31
    6a5e:	e7 95       	ror	r30
    6a60:	9f 5f       	subi	r25, 0xFF	; 255
    6a62:	c1 f7       	brne	.-16     	; 0x6a54 <.L141>

00006a64 <.L151>:
    6a64:	fe 2b       	or	r31, r30
    6a66:	88 0f       	add	r24, r24
    6a68:	91 1d       	adc	r25, r1
    6a6a:	96 95       	lsr	r25
    6a6c:	87 95       	ror	r24
    6a6e:	97 f9       	bld	r25, 7
    6a70:	08 95       	ret

00006a72 <.L_nf>:
    6a72:	19 f4       	brne	.+6      	; 0x6a7a <.L_pk>
    6a74:	16 f4       	brtc	.+4      	; 0x6a7a <.L_pk>

00006a76 <.L_nan>:
    6a76:	0c 94 6c 34 	jmp	0x68d8	; 0x68d8 <__fp_nan>

00006a7a <.L_pk>:
    6a7a:	0c 94 7f 35 	jmp	0x6afe	; 0x6afe <__fp_mpack>

00006a7e <sqrtf>:
    6a7e:	0e 94 a6 34 	call	0x694c	; 0x694c <__fp_splitA>
    6a82:	b8 f3       	brcs	.-18     	; 0x6a72 <.L_nf>
    6a84:	99 23       	and	r25, r25
    6a86:	c9 f3       	breq	.-14     	; 0x6a7a <.L_pk>
    6a88:	b6 f3       	brts	.-20     	; 0x6a76 <.L_nan>
    6a8a:	9f 57       	subi	r25, 0x7F	; 127
    6a8c:	55 0b       	sbc	r21, r21
    6a8e:	87 ff       	sbrs	r24, 7
    6a90:	0e 94 8d 35 	call	0x6b1a	; 0x6b1a <__fp_norm2>
    6a94:	00 24       	eor	r0, r0
    6a96:	a0 e6       	ldi	r26, 0x60	; 96
    6a98:	40 ea       	ldi	r20, 0xA0	; 160
    6a9a:	90 01       	movw	r18, r0
    6a9c:	80 58       	subi	r24, 0x80	; 128
    6a9e:	56 95       	lsr	r21
    6aa0:	97 95       	ror	r25
    6aa2:	28 f4       	brcc	.+10     	; 0x6aae <.L11>
    6aa4:	80 5c       	subi	r24, 0xC0	; 192

00006aa6 <.Loop>:
    6aa6:	66 0f       	add	r22, r22
    6aa8:	77 1f       	adc	r23, r23
    6aaa:	88 1f       	adc	r24, r24
    6aac:	20 f0       	brcs	.+8      	; 0x6ab6 <.L21>

00006aae <.L11>:
    6aae:	26 17       	cp	r18, r22
    6ab0:	37 07       	cpc	r19, r23
    6ab2:	48 07       	cpc	r20, r24
    6ab4:	30 f4       	brcc	.+12     	; 0x6ac2 <.L31>

00006ab6 <.L21>:
    6ab6:	62 1b       	sub	r22, r18
    6ab8:	73 0b       	sbc	r23, r19
    6aba:	84 0b       	sbc	r24, r20
    6abc:	20 29       	or	r18, r0
    6abe:	31 29       	or	r19, r1
    6ac0:	4a 2b       	or	r20, r26

00006ac2 <.L31>:
    6ac2:	a6 95       	lsr	r26
    6ac4:	17 94       	ror	r1
    6ac6:	07 94       	ror	r0
    6ac8:	20 25       	eor	r18, r0
    6aca:	31 25       	eor	r19, r1
    6acc:	4a 27       	eor	r20, r26
    6ace:	58 f7       	brcc	.-42     	; 0x6aa6 <.Loop>

00006ad0 <.Loop1>:
    6ad0:	66 0f       	add	r22, r22
    6ad2:	77 1f       	adc	r23, r23
    6ad4:	88 1f       	adc	r24, r24
    6ad6:	20 f0       	brcs	.+8      	; 0x6ae0 <.L41>
    6ad8:	26 17       	cp	r18, r22
    6ada:	37 07       	cpc	r19, r23
    6adc:	48 07       	cpc	r20, r24
    6ade:	30 f4       	brcc	.+12     	; 0x6aec <.L51>

00006ae0 <.L41>:
    6ae0:	62 0b       	sbc	r22, r18
    6ae2:	73 0b       	sbc	r23, r19
    6ae4:	84 0b       	sbc	r24, r20
    6ae6:	20 0d       	add	r18, r0
    6ae8:	31 1d       	adc	r19, r1
    6aea:	41 1d       	adc	r20, r1

00006aec <.L51>:
    6aec:	a0 95       	com	r26
    6aee:	81 f7       	brne	.-32     	; 0x6ad0 <.Loop1>
    6af0:	b9 01       	movw	r22, r18
    6af2:	84 2f       	mov	r24, r20
    6af4:	91 58       	subi	r25, 0x81	; 129
    6af6:	88 0f       	add	r24, r24
    6af8:	96 95       	lsr	r25
    6afa:	87 95       	ror	r24
    6afc:	08 95       	ret

00006afe <__fp_mpack>:
    6afe:	9f 3f       	cpi	r25, 0xFF	; 255
    6b00:	31 f0       	breq	.+12     	; 0x6b0e <.L11>

00006b02 <__fp_mpack_finite>:
    6b02:	91 50       	subi	r25, 0x01	; 1
    6b04:	20 f4       	brcc	.+8      	; 0x6b0e <.L11>
    6b06:	87 95       	ror	r24
    6b08:	77 95       	ror	r23
    6b0a:	67 95       	ror	r22
    6b0c:	b7 95       	ror	r27

00006b0e <.L11>:
    6b0e:	88 0f       	add	r24, r24
    6b10:	91 1d       	adc	r25, r1
    6b12:	96 95       	lsr	r25
    6b14:	87 95       	ror	r24
    6b16:	97 f9       	bld	r25, 7
    6b18:	08 95       	ret

00006b1a <__fp_norm2>:
    6b1a:	91 50       	subi	r25, 0x01	; 1
    6b1c:	50 40       	sbci	r21, 0x00	; 0
    6b1e:	66 0f       	add	r22, r22
    6b20:	77 1f       	adc	r23, r23
    6b22:	88 1f       	adc	r24, r24
    6b24:	d2 f7       	brpl	.-12     	; 0x6b1a <__fp_norm2>
    6b26:	08 95       	ret

00006b28 <ftostrf>:
    6b28:	ef 92       	push	r14
    6b2a:	0f 93       	push	r16
    6b2c:	1f 93       	push	r17
    6b2e:	cf 93       	push	r28
    6b30:	df 93       	push	r29
    6b32:	00 d0       	rcall	.+0      	; 0x6b34 <L0>

00006b34 <L0>:
    6b34:	cd b7       	in	r28, 0x3d	; 61
    6b36:	de b7       	in	r29, 0x3e	; 62
    6b38:	09 83       	std	Y+1, r16	; 0x01
    6b3a:	1a 83       	std	Y+2, r17	; 0x02
    6b3c:	34 e1       	ldi	r19, 0x14	; 20
    6b3e:	47 ff       	sbrs	r20, 7
    6b40:	34 e0       	ldi	r19, 0x04	; 4
    6b42:	47 fd       	sbrc	r20, 7
    6b44:	41 95       	neg	r20
    6b46:	e3 2e       	mov	r14, r19
    6b48:	02 2f       	mov	r16, r18
    6b4a:	24 2f       	mov	r18, r20
    6b4c:	49 81       	ldd	r20, Y+1	; 0x01
    6b4e:	5a 81       	ldd	r21, Y+2	; 0x02
    6b50:	0e 94 ce 35 	call	0x6b9c	; 0x6b9c <ftoa_prf>
    6b54:	89 81       	ldd	r24, Y+1	; 0x01
    6b56:	9a 81       	ldd	r25, Y+2	; 0x02
    6b58:	0f 90       	pop	r0
    6b5a:	0f 90       	pop	r0
    6b5c:	df 91       	pop	r29
    6b5e:	cf 91       	pop	r28
    6b60:	1f 91       	pop	r17
    6b62:	0f 91       	pop	r16
    6b64:	ef 90       	pop	r14
    6b66:	08 95       	ret

00006b68 <__utoa_ncheck>:
    6b68:	bb 27       	eor	r27, r27

00006b6a <__utoa_common>:
    6b6a:	fb 01       	movw	r30, r22
    6b6c:	55 27       	eor	r21, r21

00006b6e <.L11>:
    6b6e:	aa 27       	eor	r26, r26

00006b70 <.L21>:
    6b70:	88 0f       	add	r24, r24
    6b72:	99 1f       	adc	r25, r25
    6b74:	aa 1f       	adc	r26, r26
    6b76:	a4 17       	cp	r26, r20
    6b78:	10 f0       	brcs	.+4      	; 0x6b7e <.L31>
    6b7a:	a4 1b       	sub	r26, r20
    6b7c:	83 95       	inc	r24

00006b7e <.L31>:
    6b7e:	50 51       	subi	r21, 0x10	; 16
    6b80:	b9 f7       	brne	.-18     	; 0x6b70 <.L21>
    6b82:	a0 5d       	subi	r26, 0xD0	; 208
    6b84:	aa 33       	cpi	r26, 0x3A	; 58
    6b86:	08 f0       	brcs	.+2      	; 0x6b8a <.L41>
    6b88:	a9 5d       	subi	r26, 0xD9	; 217

00006b8a <.L41>:
    6b8a:	a1 93       	st	Z+, r26
    6b8c:	00 97       	sbiw	r24, 0x00	; 0
    6b8e:	79 f7       	brne	.-34     	; 0x6b6e <.L11>
    6b90:	b1 11       	cpse	r27, r1
    6b92:	b1 93       	st	Z+, r27
    6b94:	11 92       	st	Z+, r1
    6b96:	cb 01       	movw	r24, r22
    6b98:	0c 94 1a 38 	jmp	0x7034	; 0x7034 <strrev>

00006b9c <ftoa_prf>:
    6b9c:	8f 92       	push	r8
    6b9e:	9f 92       	push	r9
    6ba0:	af 92       	push	r10
    6ba2:	bf 92       	push	r11
    6ba4:	cf 92       	push	r12
    6ba6:	df 92       	push	r13
    6ba8:	ef 92       	push	r14
    6baa:	ff 92       	push	r15
    6bac:	0f 93       	push	r16
    6bae:	1f 93       	push	r17
    6bb0:	cf 93       	push	r28
    6bb2:	df 93       	push	r29
    6bb4:	cd b7       	in	r28, 0x3d	; 61
    6bb6:	de b7       	in	r29, 0x3e	; 62
    6bb8:	29 97       	sbiw	r28, 0x09	; 9
    6bba:	0f b6       	in	r0, 0x3f	; 63
    6bbc:	f8 94       	cli
    6bbe:	de bf       	out	0x3e, r29	; 62
    6bc0:	0f be       	out	0x3f, r0	; 63
    6bc2:	cd bf       	out	0x3d, r28	; 61
    6bc4:	6a 01       	movw	r12, r20
    6bc6:	f2 2e       	mov	r15, r18
    6bc8:	b0 2e       	mov	r11, r16
    6bca:	10 2f       	mov	r17, r16
    6bcc:	2c e3       	ldi	r18, 0x3C	; 60
    6bce:	02 17       	cp	r16, r18
    6bd0:	08 f0       	brcs	.+2      	; 0x6bd4 <.L2>
    6bd2:	1b e3       	ldi	r17, 0x3B	; 59

00006bd4 <.L2>:
    6bd4:	1f 5f       	subi	r17, 0xFF	; 255
    6bd6:	01 2f       	mov	r16, r17
    6bd8:	27 e0       	ldi	r18, 0x07	; 7
    6bda:	ae 01       	movw	r20, r28
    6bdc:	4f 5f       	subi	r20, 0xFF	; 255
    6bde:	5f 4f       	sbci	r21, 0xFF	; 255
    6be0:	0e 94 3d 37 	call	0x6e7a	; 0x6e7a <__ftoa_engine>
    6be4:	bc 01       	movw	r22, r24
    6be6:	29 81       	ldd	r18, Y+1	; 0x01
    6be8:	82 2f       	mov	r24, r18
    6bea:	89 70       	andi	r24, 0x09	; 9
    6bec:	9d e2       	ldi	r25, 0x2D	; 45
    6bee:	81 30       	cpi	r24, 0x01	; 1
    6bf0:	29 f0       	breq	.+10     	; 0x6bfc <.L3>
    6bf2:	e0 fa       	bst	r14, 0
    6bf4:	99 27       	eor	r25, r25
    6bf6:	95 f9       	bld	r25, 5
    6bf8:	e1 fc       	sbrc	r14, 1
    6bfa:	9b e2       	ldi	r25, 0x2B	; 43

00006bfc <.L3>:
    6bfc:	42 2f       	mov	r20, r18
    6bfe:	48 70       	andi	r20, 0x08	; 8
    6c00:	23 ff       	sbrs	r18, 3
    6c02:	50 c0       	rjmp	.+160    	; 0x6ca4 <.L4>
    6c04:	84 e0       	ldi	r24, 0x04	; 4
    6c06:	91 11       	cpse	r25, r1
    6c08:	01 c0       	rjmp	.+2      	; 0x6c0c <.L5>
    6c0a:	83 e0       	ldi	r24, 0x03	; 3

00006c0c <.L5>:
    6c0c:	8f 15       	cp	r24, r15
    6c0e:	c8 f4       	brcc	.+50     	; 0x6c42 <.L53>
    6c10:	f8 1a       	sub	r15, r24

00006c12 <.L6>:
    6c12:	e4 fe       	sbrs	r14, 4
    6c14:	22 c0       	rjmp	.+68     	; 0x6c5a <.L54>

00006c16 <.L8>:
    6c16:	91 15       	cp	r25, r1
    6c18:	19 f0       	breq	.+6      	; 0x6c20 <.L10>
    6c1a:	f6 01       	movw	r30, r12
    6c1c:	91 93       	st	Z+, r25
    6c1e:	6f 01       	movw	r12, r30

00006c20 <.L10>:
    6c20:	c6 01       	movw	r24, r12
    6c22:	03 96       	adiw	r24, 0x03	; 3
    6c24:	2e e6       	ldi	r18, 0x6E	; 110
    6c26:	31 e6       	ldi	r19, 0x61	; 97
    6c28:	e2 fe       	sbrs	r14, 2
    6c2a:	02 c0       	rjmp	.+4      	; 0x6c30 <.L11>
    6c2c:	2e e4       	ldi	r18, 0x4E	; 78
    6c2e:	31 e4       	ldi	r19, 0x41	; 65

00006c30 <.L11>:
    6c30:	d6 01       	movw	r26, r12
    6c32:	2d 93       	st	X+, r18
    6c34:	3d 93       	st	X+, r19
    6c36:	2c 93       	st	X, r18
    6c38:	2f 2d       	mov	r18, r15
    6c3a:	38 2f       	mov	r19, r24
    6c3c:	49 2f       	mov	r20, r25
    6c3e:	50 e2       	ldi	r21, 0x20	; 32
    6c40:	16 c0       	rjmp	.+44     	; 0x6c6e <.L12>

00006c42 <.L53>:
    6c42:	f1 2c       	mov	r15, r1
    6c44:	e6 cf       	rjmp	.-52     	; 0x6c12 <.L6>

00006c46 <.L9>:
    6c46:	f9 01       	movw	r30, r18
    6c48:	41 93       	st	Z+, r20
    6c4a:	81 50       	subi	r24, 0x01	; 1
    6c4c:	9f 01       	movw	r18, r30

00006c4e <.L7>:
    6c4e:	81 11       	cpse	r24, r1
    6c50:	fa cf       	rjmp	.-12     	; 0x6c46 <.L9>
    6c52:	cf 0c       	add	r12, r15
    6c54:	d1 1c       	adc	r13, r1
    6c56:	f1 2c       	mov	r15, r1
    6c58:	de cf       	rjmp	.-68     	; 0x6c16 <.L8>

00006c5a <.L54>:
    6c5a:	8f 2d       	mov	r24, r15
    6c5c:	96 01       	movw	r18, r12
    6c5e:	40 e2       	ldi	r20, 0x20	; 32
    6c60:	f6 cf       	rjmp	.-20     	; 0x6c4e <.L7>

00006c62 <.L13>:
    6c62:	e3 2f       	mov	r30, r19
    6c64:	f4 2f       	mov	r31, r20
    6c66:	51 93       	st	Z+, r21
    6c68:	21 50       	subi	r18, 0x01	; 1
    6c6a:	3e 2f       	mov	r19, r30
    6c6c:	4f 2f       	mov	r20, r31

00006c6e <.L12>:
    6c6e:	21 11       	cpse	r18, r1
    6c70:	f8 cf       	rjmp	.-16     	; 0x6c62 <.L13>
    6c72:	8f 0d       	add	r24, r15
    6c74:	91 1d       	adc	r25, r1

00006c76 <.L80>:
    6c76:	fc 01       	movw	r30, r24
    6c78:	10 82       	st	Z, r1
    6c7a:	8e ef       	ldi	r24, 0xFE	; 254
    6c7c:	9f ef       	ldi	r25, 0xFF	; 255

00006c7e <.L1>:
    6c7e:	29 96       	adiw	r28, 0x09	; 9
    6c80:	0f b6       	in	r0, 0x3f	; 63
    6c82:	f8 94       	cli
    6c84:	de bf       	out	0x3e, r29	; 62
    6c86:	0f be       	out	0x3f, r0	; 63
    6c88:	cd bf       	out	0x3d, r28	; 61
    6c8a:	df 91       	pop	r29
    6c8c:	cf 91       	pop	r28
    6c8e:	1f 91       	pop	r17
    6c90:	0f 91       	pop	r16
    6c92:	ff 90       	pop	r15
    6c94:	ef 90       	pop	r14
    6c96:	df 90       	pop	r13
    6c98:	cf 90       	pop	r12
    6c9a:	bf 90       	pop	r11
    6c9c:	af 90       	pop	r10
    6c9e:	9f 90       	pop	r9
    6ca0:	8f 90       	pop	r8
    6ca2:	08 95       	ret

00006ca4 <.L4>:
    6ca4:	32 2f       	mov	r19, r18
    6ca6:	34 70       	andi	r19, 0x04	; 4
    6ca8:	22 ff       	sbrs	r18, 2
    6caa:	3b c0       	rjmp	.+118    	; 0x6d22 <.L15>
    6cac:	84 e0       	ldi	r24, 0x04	; 4
    6cae:	91 11       	cpse	r25, r1
    6cb0:	01 c0       	rjmp	.+2      	; 0x6cb4 <.L16>
    6cb2:	83 e0       	ldi	r24, 0x03	; 3

00006cb4 <.L16>:
    6cb4:	8f 15       	cp	r24, r15
    6cb6:	10 f4       	brcc	.+4      	; 0x6cbc <.L17>
    6cb8:	4f 2d       	mov	r20, r15
    6cba:	48 1b       	sub	r20, r24

00006cbc <.L17>:
    6cbc:	e4 fe       	sbrs	r14, 4
    6cbe:	22 c0       	rjmp	.+68     	; 0x6d04 <.L57>

00006cc0 <.L19>:
    6cc0:	91 15       	cp	r25, r1
    6cc2:	19 f0       	breq	.+6      	; 0x6cca <.L21>
    6cc4:	f6 01       	movw	r30, r12
    6cc6:	91 93       	st	Z+, r25
    6cc8:	6f 01       	movw	r12, r30

00006cca <.L21>:
    6cca:	c6 01       	movw	r24, r12
    6ccc:	03 96       	adiw	r24, 0x03	; 3
    6cce:	59 e6       	ldi	r21, 0x69	; 105
    6cd0:	26 e6       	ldi	r18, 0x66	; 102
    6cd2:	3e e6       	ldi	r19, 0x6E	; 110
    6cd4:	e2 fe       	sbrs	r14, 2
    6cd6:	03 c0       	rjmp	.+6      	; 0x6cde <.L22>
    6cd8:	59 e4       	ldi	r21, 0x49	; 73
    6cda:	26 e4       	ldi	r18, 0x46	; 70
    6cdc:	3e e4       	ldi	r19, 0x4E	; 78

00006cde <.L22>:
    6cde:	d6 01       	movw	r26, r12
    6ce0:	5d 93       	st	X+, r21
    6ce2:	3d 93       	st	X+, r19
    6ce4:	2c 93       	st	X, r18
    6ce6:	24 2f       	mov	r18, r20
    6ce8:	38 2f       	mov	r19, r24
    6cea:	59 2f       	mov	r21, r25
    6cec:	60 e2       	ldi	r22, 0x20	; 32
    6cee:	14 c0       	rjmp	.+40     	; 0x6d18 <.L23>

00006cf0 <.L20>:
    6cf0:	f9 01       	movw	r30, r18
    6cf2:	51 93       	st	Z+, r21
    6cf4:	81 50       	subi	r24, 0x01	; 1
    6cf6:	9f 01       	movw	r18, r30

00006cf8 <.L18>:
    6cf8:	81 11       	cpse	r24, r1
    6cfa:	fa cf       	rjmp	.-12     	; 0x6cf0 <.L20>
    6cfc:	c4 0e       	add	r12, r20
    6cfe:	d1 1c       	adc	r13, r1
    6d00:	40 e0       	ldi	r20, 0x00	; 0
    6d02:	de cf       	rjmp	.-68     	; 0x6cc0 <.L19>

00006d04 <.L57>:
    6d04:	84 2f       	mov	r24, r20
    6d06:	96 01       	movw	r18, r12
    6d08:	50 e2       	ldi	r21, 0x20	; 32
    6d0a:	f6 cf       	rjmp	.-20     	; 0x6cf8 <.L18>

00006d0c <.L24>:
    6d0c:	e3 2f       	mov	r30, r19
    6d0e:	f5 2f       	mov	r31, r21
    6d10:	61 93       	st	Z+, r22
    6d12:	21 50       	subi	r18, 0x01	; 1
    6d14:	3e 2f       	mov	r19, r30
    6d16:	5f 2f       	mov	r21, r31

00006d18 <.L23>:
    6d18:	21 11       	cpse	r18, r1
    6d1a:	f8 cf       	rjmp	.-16     	; 0x6d0c <.L24>
    6d1c:	84 0f       	add	r24, r20
    6d1e:	91 1d       	adc	r25, r1
    6d20:	aa cf       	rjmp	.-172    	; 0x6c76 <.L80>

00006d22 <.L15>:
    6d22:	ab 01       	movw	r20, r22
    6d24:	77 ff       	sbrs	r23, 7
    6d26:	02 c0       	rjmp	.+4      	; 0x6d2c <.L26>
    6d28:	40 e0       	ldi	r20, 0x00	; 0
    6d2a:	50 e0       	ldi	r21, 0x00	; 0

00006d2c <.L26>:
    6d2c:	e1 e0       	ldi	r30, 0x01	; 1
    6d2e:	f0 e0       	ldi	r31, 0x00	; 0
    6d30:	91 11       	cpse	r25, r1
    6d32:	01 c0       	rjmp	.+2      	; 0x6d36 <.L27>
    6d34:	e0 e0       	ldi	r30, 0x00	; 0

00006d36 <.L27>:
    6d36:	da 01       	movw	r26, r20
    6d38:	11 96       	adiw	r26, 0x01	; 1
    6d3a:	ae 0f       	add	r26, r30
    6d3c:	bf 1f       	adc	r27, r31
    6d3e:	eb 2d       	mov	r30, r11
    6d40:	b1 14       	cp	r11, r1
    6d42:	a1 f0       	breq	.+40     	; 0x6d6c <.L59>
    6d44:	5f 01       	movw	r10, r30
    6d46:	8f ef       	ldi	r24, 0xFF	; 255
    6d48:	a8 1a       	sub	r10, r24
    6d4a:	b8 0a       	sbc	r11, r24

00006d4c <.L28>:
    6d4c:	aa 0d       	add	r26, r10
    6d4e:	bb 1d       	adc	r27, r11
    6d50:	af 15       	cp	r26, r15
    6d52:	b1 05       	cpc	r27, r1
    6d54:	14 f4       	brge	.+4      	; 0x6d5a <.L29>
    6d56:	3f 2d       	mov	r19, r15
    6d58:	3a 1b       	sub	r19, r26

00006d5a <.L29>:
    6d5a:	8e 2d       	mov	r24, r14
    6d5c:	88 71       	andi	r24, 0x18	; 24
    6d5e:	c9 f4       	brne	.+50     	; 0x6d92 <.L79>
    6d60:	83 2f       	mov	r24, r19
    6d62:	0c 2d       	mov	r16, r12
    6d64:	fd 2c       	mov	r15, r13
    6d66:	a0 e2       	ldi	r26, 0x20	; 32
    6d68:	ba 2e       	mov	r11, r26
    6d6a:	09 c0       	rjmp	.+18     	; 0x6d7e <.L30>

00006d6c <.L59>:
    6d6c:	a1 2c       	mov	r10, r1
    6d6e:	b1 2c       	mov	r11, r1
    6d70:	ed cf       	rjmp	.-38     	; 0x6d4c <.L28>

00006d72 <.L32>:
    6d72:	a0 2f       	mov	r26, r16
    6d74:	bf 2d       	mov	r27, r15
    6d76:	bd 92       	st	X+, r11
    6d78:	81 50       	subi	r24, 0x01	; 1
    6d7a:	0a 2f       	mov	r16, r26
    6d7c:	fb 2e       	mov	r15, r27

00006d7e <.L30>:
    6d7e:	81 11       	cpse	r24, r1
    6d80:	f8 cf       	rjmp	.-16     	; 0x6d72 <.L32>
    6d82:	c3 0e       	add	r12, r19
    6d84:	d1 1c       	adc	r13, r1
    6d86:	91 11       	cpse	r25, r1
    6d88:	07 c0       	rjmp	.+14     	; 0x6d98 <.L33>
    6d8a:	76 01       	movw	r14, r12
    6d8c:	30 e0       	ldi	r19, 0x00	; 0

00006d8e <.L34>:
    6d8e:	80 e3       	ldi	r24, 0x30	; 48
    6d90:	10 c0       	rjmp	.+32     	; 0x6db2 <.L37>

00006d92 <.L79>:
    6d92:	91 15       	cp	r25, r1
    6d94:	29 f0       	breq	.+10     	; 0x6da0 <.L35>
    6d96:	83 2f       	mov	r24, r19

00006d98 <.L33>:
    6d98:	d6 01       	movw	r26, r12
    6d9a:	9d 93       	st	X+, r25
    6d9c:	38 2f       	mov	r19, r24
    6d9e:	6d 01       	movw	r12, r26

00006da0 <.L35>:
    6da0:	e4 fc       	sbrc	r14, 4
    6da2:	0c c0       	rjmp	.+24     	; 0x6dbc <.L36>
    6da4:	93 2f       	mov	r25, r19
    6da6:	76 01       	movw	r14, r12
    6da8:	f2 cf       	rjmp	.-28     	; 0x6d8e <.L34>

00006daa <.L38>:
    6daa:	d6 01       	movw	r26, r12
    6dac:	8d 93       	st	X+, r24
    6dae:	31 50       	subi	r19, 0x01	; 1
    6db0:	6d 01       	movw	r12, r26

00006db2 <.L37>:
    6db2:	31 11       	cpse	r19, r1
    6db4:	fa cf       	rjmp	.-12     	; 0x6daa <.L38>
    6db6:	67 01       	movw	r12, r14
    6db8:	c9 0e       	add	r12, r25
    6dba:	d1 1c       	adc	r13, r1

00006dbc <.L36>:
    6dbc:	01 2f       	mov	r16, r17
    6dbe:	06 0f       	add	r16, r22
    6dc0:	9a 81       	ldd	r25, Y+2	; 0x02
    6dc2:	24 ff       	sbrs	r18, 4
    6dc4:	03 c0       	rjmp	.+6      	; 0x6dcc <.L39>
    6dc6:	91 33       	cpi	r25, 0x31	; 49
    6dc8:	09 f4       	brne	.+2      	; 0x6dcc <.L39>
    6dca:	01 50       	subi	r16, 0x01	; 1

00006dcc <.L39>:
    6dcc:	10 16       	cp	r1, r16
    6dce:	94 f5       	brge	.+100    	; 0x6e34 <.L62>
    6dd0:	09 30       	cpi	r16, 0x09	; 9
    6dd2:	08 f0       	brcs	.+2      	; 0x6dd6 <.L40>
    6dd4:	08 e0       	ldi	r16, 0x08	; 8

00006dd6 <.L40>:
    6dd6:	de 01       	movw	r26, r28
    6dd8:	11 96       	adiw	r26, 0x01	; 1
    6dda:	a6 0f       	add	r26, r22
    6ddc:	b7 1f       	adc	r27, r23
    6dde:	4d 01       	movw	r8, r26
    6de0:	84 1a       	sub	r8, r20
    6de2:	95 0a       	sbc	r9, r21
    6de4:	db 01       	movw	r26, r22
    6de6:	a0 1b       	sub	r26, r16
    6de8:	b1 09       	sbc	r27, r1
    6dea:	8d 01       	movw	r16, r26
    6dec:	ee 24       	eor	r14, r14
    6dee:	ff 24       	eor	r15, r15
    6df0:	ee 1a       	sub	r14, r30
    6df2:	ff 0a       	sbc	r15, r31
    6df4:	8e e2       	ldi	r24, 0x2E	; 46
    6df6:	b8 2e       	mov	r11, r24

00006df8 <.L42>:
    6df8:	64 17       	cp	r22, r20
    6dfa:	75 07       	cpc	r23, r21
    6dfc:	ec f0       	brlt	.+58     	; 0x6e38 <.L64>
    6dfe:	04 17       	cp	r16, r20
    6e00:	15 07       	cpc	r17, r21
    6e02:	d4 f4       	brge	.+52     	; 0x6e38 <.L64>
    6e04:	f4 01       	movw	r30, r8
    6e06:	81 81       	ldd	r24, Z+1	; 0x01

00006e08 <.L43>:
    6e08:	41 50       	subi	r20, 0x01	; 1
    6e0a:	51 09       	sbc	r21, r1
    6e0c:	f6 01       	movw	r30, r12
    6e0e:	31 96       	adiw	r30, 0x01	; 1
    6e10:	4e 15       	cp	r20, r14
    6e12:	5f 05       	cpc	r21, r15
    6e14:	9c f0       	brlt	.+38     	; 0x6e3c <.L44>
    6e16:	af ef       	ldi	r26, 0xFF	; 255
    6e18:	8a 1a       	sub	r8, r26
    6e1a:	9a 0a       	sbc	r9, r26
    6e1c:	d6 01       	movw	r26, r12
    6e1e:	8c 93       	st	X, r24
    6e20:	4f 3f       	cpi	r20, 0xFF	; 255
    6e22:	54 07       	cpc	r21, r20
    6e24:	29 f4       	brne	.+10     	; 0x6e30 <.L46>
    6e26:	f6 01       	movw	r30, r12
    6e28:	32 96       	adiw	r30, 0x02	; 2
    6e2a:	d6 01       	movw	r26, r12
    6e2c:	11 96       	adiw	r26, 0x01	; 1
    6e2e:	bc 92       	st	X, r11

00006e30 <.L46>:
    6e30:	6f 01       	movw	r12, r30
    6e32:	e2 cf       	rjmp	.-60     	; 0x6df8 <.L42>

00006e34 <.L62>:
    6e34:	01 e0       	ldi	r16, 0x01	; 1
    6e36:	cf cf       	rjmp	.-98     	; 0x6dd6 <.L40>

00006e38 <.L64>:
    6e38:	80 e3       	ldi	r24, 0x30	; 48
    6e3a:	e6 cf       	rjmp	.-52     	; 0x6e08 <.L43>

00006e3c <.L44>:
    6e3c:	64 17       	cp	r22, r20
    6e3e:	75 07       	cpc	r23, r21
    6e40:	29 f4       	brne	.+10     	; 0x6e4c <.L47>
    6e42:	95 33       	cpi	r25, 0x35	; 53
    6e44:	18 f0       	brcs	.+6      	; 0x6e4c <.L47>
    6e46:	81 f4       	brne	.+32     	; 0x6e68 <.L66>
    6e48:	24 ff       	sbrs	r18, 4
    6e4a:	0e c0       	rjmp	.+28     	; 0x6e68 <.L66>

00006e4c <.L47>:
    6e4c:	d6 01       	movw	r26, r12
    6e4e:	8c 93       	st	X, r24
    6e50:	83 2f       	mov	r24, r19
    6e52:	9e 2f       	mov	r25, r30
    6e54:	2f 2f       	mov	r18, r31
    6e56:	40 e2       	ldi	r20, 0x20	; 32

00006e58 <.L48>:
    6e58:	81 11       	cpse	r24, r1
    6e5a:	08 c0       	rjmp	.+16     	; 0x6e6c <.L49>
    6e5c:	e3 0f       	add	r30, r19
    6e5e:	f1 1d       	adc	r31, r1
    6e60:	10 82       	st	Z, r1
    6e62:	80 e0       	ldi	r24, 0x00	; 0
    6e64:	90 e0       	ldi	r25, 0x00	; 0
    6e66:	0b cf       	rjmp	.-490    	; 0x6c7e <.L1>

00006e68 <.L66>:
    6e68:	81 e3       	ldi	r24, 0x31	; 49
    6e6a:	f0 cf       	rjmp	.-32     	; 0x6e4c <.L47>

00006e6c <.L49>:
    6e6c:	a9 2f       	mov	r26, r25
    6e6e:	b2 2f       	mov	r27, r18
    6e70:	4d 93       	st	X+, r20
    6e72:	81 50       	subi	r24, 0x01	; 1
    6e74:	9a 2f       	mov	r25, r26
    6e76:	2b 2f       	mov	r18, r27
    6e78:	ef cf       	rjmp	.-34     	; 0x6e58 <.L48>

00006e7a <__ftoa_engine>:
    6e7a:	28 30       	cpi	r18, 0x08	; 8
    6e7c:	08 f0       	brcs	.+2      	; 0x6e80 <.L11>
    6e7e:	27 e0       	ldi	r18, 0x07	; 7

00006e80 <.L11>:
    6e80:	33 27       	eor	r19, r19
    6e82:	da 01       	movw	r26, r20
    6e84:	99 0f       	add	r25, r25
    6e86:	31 1d       	adc	r19, r1
    6e88:	87 fd       	sbrc	r24, 7
    6e8a:	91 60       	ori	r25, 0x01	; 1
    6e8c:	00 96       	adiw	r24, 0x00	; 0
    6e8e:	61 05       	cpc	r22, r1
    6e90:	71 05       	cpc	r23, r1
    6e92:	39 f4       	brne	.+14     	; 0x6ea2 <.L31>
    6e94:	32 60       	ori	r19, 0x02	; 2
    6e96:	2e 5f       	subi	r18, 0xFE	; 254

00006e98 <.L21>:
    6e98:	3d 93       	st	X+, r19
    6e9a:	30 e3       	ldi	r19, 0x30	; 48
    6e9c:	2a 95       	dec	r18
    6e9e:	e1 f7       	brne	.-8      	; 0x6e98 <.L21>
    6ea0:	08 95       	ret

00006ea2 <.L31>:
    6ea2:	9f 3f       	cpi	r25, 0xFF	; 255
    6ea4:	30 f0       	brcs	.+12     	; 0x6eb2 <.L61>
    6ea6:	80 38       	cpi	r24, 0x80	; 128
    6ea8:	71 05       	cpc	r23, r1
    6eaa:	61 05       	cpc	r22, r1
    6eac:	09 f0       	breq	.+2      	; 0x6eb0 <.L51>
    6eae:	3c 5f       	subi	r19, 0xFC	; 252

00006eb0 <.L51>:
    6eb0:	3c 5f       	subi	r19, 0xFC	; 252

00006eb2 <.L61>:
    6eb2:	3d 93       	st	X+, r19
    6eb4:	91 30       	cpi	r25, 0x01	; 1
    6eb6:	08 f0       	brcs	.+2      	; 0x6eba <.L71>
    6eb8:	80 68       	ori	r24, 0x80	; 128

00006eba <.L71>:
    6eba:	91 1d       	adc	r25, r1
    6ebc:	df 93       	push	r29
    6ebe:	cf 93       	push	r28
    6ec0:	1f 93       	push	r17
    6ec2:	0f 93       	push	r16
    6ec4:	ff 92       	push	r15
    6ec6:	ef 92       	push	r14
    6ec8:	19 2f       	mov	r17, r25
    6eca:	98 7f       	andi	r25, 0xF8	; 248
    6ecc:	96 95       	lsr	r25
    6ece:	e9 2f       	mov	r30, r25
    6ed0:	96 95       	lsr	r25
    6ed2:	96 95       	lsr	r25
    6ed4:	e9 0f       	add	r30, r25
    6ed6:	ff 27       	eor	r31, r31
    6ed8:	eb 56       	subi	r30, 0x6B	; 107
    6eda:	f2 4f       	sbci	r31, 0xF2	; 242
    6edc:	99 27       	eor	r25, r25
    6ede:	9f 4f       	sbci	r25, 0xFF	; 255
    6ee0:	9b bf       	out	0x3b, r25	; 59
    6ee2:	99 27       	eor	r25, r25
    6ee4:	33 27       	eor	r19, r19
    6ee6:	ee 24       	eor	r14, r14
    6ee8:	ff 24       	eor	r15, r15
    6eea:	a7 01       	movw	r20, r14
    6eec:	e7 01       	movw	r28, r14
    6eee:	07 90       	elpm	r0, Z+
    6ef0:	08 94       	sec
    6ef2:	07 94       	ror	r0

00006ef4 <.L101>:
    6ef4:	28 f4       	brcc	.+10     	; 0x6f00 <.L111>
    6ef6:	36 0f       	add	r19, r22
    6ef8:	e7 1e       	adc	r14, r23
    6efa:	f8 1e       	adc	r15, r24
    6efc:	49 1f       	adc	r20, r25
    6efe:	51 1d       	adc	r21, r1

00006f00 <.L111>:
    6f00:	66 0f       	add	r22, r22
    6f02:	77 1f       	adc	r23, r23
    6f04:	88 1f       	adc	r24, r24
    6f06:	99 1f       	adc	r25, r25
    6f08:	06 94       	lsr	r0
    6f0a:	a1 f7       	brne	.-24     	; 0x6ef4 <.L101>
    6f0c:	07 90       	elpm	r0, Z+
    6f0e:	07 94       	ror	r0

00006f10 <.L121>:
    6f10:	28 f4       	brcc	.+10     	; 0x6f1c <.L131>
    6f12:	e7 0e       	add	r14, r23
    6f14:	f8 1e       	adc	r15, r24
    6f16:	49 1f       	adc	r20, r25
    6f18:	56 1f       	adc	r21, r22
    6f1a:	c1 1d       	adc	r28, r1

00006f1c <.L131>:
    6f1c:	77 0f       	add	r23, r23
    6f1e:	88 1f       	adc	r24, r24
    6f20:	99 1f       	adc	r25, r25
    6f22:	66 1f       	adc	r22, r22
    6f24:	06 94       	lsr	r0
    6f26:	a1 f7       	brne	.-24     	; 0x6f10 <.L121>
    6f28:	07 90       	elpm	r0, Z+
    6f2a:	07 94       	ror	r0

00006f2c <.L141>:
    6f2c:	28 f4       	brcc	.+10     	; 0x6f38 <.L151>
    6f2e:	f8 0e       	add	r15, r24
    6f30:	49 1f       	adc	r20, r25
    6f32:	56 1f       	adc	r21, r22
    6f34:	c7 1f       	adc	r28, r23
    6f36:	d1 1d       	adc	r29, r1

00006f38 <.L151>:
    6f38:	88 0f       	add	r24, r24
    6f3a:	99 1f       	adc	r25, r25
    6f3c:	66 1f       	adc	r22, r22
    6f3e:	77 1f       	adc	r23, r23
    6f40:	06 94       	lsr	r0
    6f42:	a1 f7       	brne	.-24     	; 0x6f2c <.L141>
    6f44:	07 90       	elpm	r0, Z+
    6f46:	07 94       	ror	r0

00006f48 <.L161>:
    6f48:	20 f4       	brcc	.+8      	; 0x6f52 <.L171>
    6f4a:	49 0f       	add	r20, r25
    6f4c:	56 1f       	adc	r21, r22
    6f4e:	c7 1f       	adc	r28, r23
    6f50:	d8 1f       	adc	r29, r24

00006f52 <.L171>:
    6f52:	99 0f       	add	r25, r25
    6f54:	66 1f       	adc	r22, r22
    6f56:	77 1f       	adc	r23, r23
    6f58:	88 1f       	adc	r24, r24
    6f5a:	06 94       	lsr	r0
    6f5c:	a9 f7       	brne	.-22     	; 0x6f48 <.L161>
    6f5e:	86 91       	elpm	r24, Z
    6f60:	10 95       	com	r17
    6f62:	17 70       	andi	r17, 0x07	; 7
    6f64:	41 f0       	breq	.+16     	; 0x6f76 <.L191>

00006f66 <.L181>:
    6f66:	d6 95       	lsr	r29
    6f68:	c7 95       	ror	r28
    6f6a:	57 95       	ror	r21
    6f6c:	47 95       	ror	r20
    6f6e:	f7 94       	ror	r15
    6f70:	e7 94       	ror	r14
    6f72:	1a 95       	dec	r17
    6f74:	c1 f7       	brne	.-16     	; 0x6f66 <.L181>

00006f76 <.L191>:
    6f76:	e0 e0       	ldi	r30, 0x00	; 0
    6f78:	eb bf       	out	0x3b, r30	; 59
    6f7a:	eb e3       	ldi	r30, 0x3B	; 59
    6f7c:	fd e0       	ldi	r31, 0x0D	; 13
    6f7e:	68 94       	set

00006f80 <.L_digit>:
    6f80:	17 90       	elpm	r1, Z+
    6f82:	17 91       	elpm	r17, Z+
    6f84:	37 91       	elpm	r19, Z+
    6f86:	67 91       	elpm	r22, Z+
    6f88:	97 91       	elpm	r25, Z+
    6f8a:	07 90       	elpm	r0, Z+
    6f8c:	7f e2       	ldi	r23, 0x2F	; 47

00006f8e <.L201>:
    6f8e:	73 95       	inc	r23
    6f90:	e1 18       	sub	r14, r1
    6f92:	f1 0a       	sbc	r15, r17
    6f94:	43 0b       	sbc	r20, r19
    6f96:	56 0b       	sbc	r21, r22
    6f98:	c9 0b       	sbc	r28, r25
    6f9a:	d0 09       	sbc	r29, r0
    6f9c:	c0 f7       	brcc	.-16     	; 0x6f8e <.L201>
    6f9e:	e1 0c       	add	r14, r1
    6fa0:	f1 1e       	adc	r15, r17
    6fa2:	43 1f       	adc	r20, r19
    6fa4:	56 1f       	adc	r21, r22
    6fa6:	c9 1f       	adc	r28, r25
    6fa8:	d0 1d       	adc	r29, r0
    6faa:	7e f4       	brtc	.+30     	; 0x6fca <.L251>
    6fac:	70 33       	cpi	r23, 0x30	; 48
    6fae:	11 f4       	brne	.+4      	; 0x6fb4 <.L211>
    6fb0:	8a 95       	dec	r24
    6fb2:	e6 cf       	rjmp	.-52     	; 0x6f80 <.L_digit>

00006fb4 <.L211>:
    6fb4:	e8 94       	clt
    6fb6:	01 50       	subi	r16, 0x01	; 1
    6fb8:	30 f0       	brcs	.+12     	; 0x6fc6 <.L231>
    6fba:	08 0f       	add	r16, r24
    6fbc:	0a f4       	brpl	.+2      	; 0x6fc0 <.L221>
    6fbe:	00 27       	eor	r16, r16

00006fc0 <.L221>:
    6fc0:	02 17       	cp	r16, r18
    6fc2:	08 f4       	brcc	.+2      	; 0x6fc6 <.L231>
    6fc4:	20 2f       	mov	r18, r16

00006fc6 <.L231>:
    6fc6:	23 95       	inc	r18
    6fc8:	02 2f       	mov	r16, r18

00006fca <.L251>:
    6fca:	7a 33       	cpi	r23, 0x3A	; 58
    6fcc:	28 f0       	brcs	.+10     	; 0x6fd8 <.L271>
    6fce:	79 e3       	ldi	r23, 0x39	; 57

00006fd0 <.L261>:
    6fd0:	7d 93       	st	X+, r23
    6fd2:	2a 95       	dec	r18
    6fd4:	e9 f7       	brne	.-6      	; 0x6fd0 <.L261>
    6fd6:	10 c0       	rjmp	.+32     	; 0x6ff8 <.L_up>

00006fd8 <.L271>:
    6fd8:	7d 93       	st	X+, r23
    6fda:	2a 95       	dec	r18
    6fdc:	89 f6       	brne	.-94     	; 0x6f80 <.L_digit>
    6fde:	06 94       	lsr	r0
    6fe0:	97 95       	ror	r25
    6fe2:	67 95       	ror	r22
    6fe4:	37 95       	ror	r19
    6fe6:	17 95       	ror	r17
    6fe8:	17 94       	ror	r1
    6fea:	e1 18       	sub	r14, r1
    6fec:	f1 0a       	sbc	r15, r17
    6fee:	43 0b       	sbc	r20, r19
    6ff0:	56 0b       	sbc	r21, r22
    6ff2:	c9 0b       	sbc	r28, r25
    6ff4:	d0 09       	sbc	r29, r0
    6ff6:	98 f0       	brcs	.+38     	; 0x701e <.L_rest>

00006ff8 <.L_up>:
    6ff8:	23 95       	inc	r18
    6ffa:	7e 91       	ld	r23, -X
    6ffc:	73 95       	inc	r23
    6ffe:	7a 33       	cpi	r23, 0x3A	; 58
    7000:	08 f0       	brcs	.+2      	; 0x7004 <.L311>
    7002:	70 e3       	ldi	r23, 0x30	; 48

00007004 <.L311>:
    7004:	7c 93       	st	X, r23
    7006:	20 13       	cpse	r18, r16
    7008:	b8 f7       	brcc	.-18     	; 0x6ff8 <.L_up>
    700a:	7e 91       	ld	r23, -X
    700c:	70 61       	ori	r23, 0x10	; 16
    700e:	7d 93       	st	X+, r23
    7010:	30 f0       	brcs	.+12     	; 0x701e <.L_rest>
    7012:	83 95       	inc	r24
    7014:	71 e3       	ldi	r23, 0x31	; 49

00007016 <.L321>:
    7016:	7d 93       	st	X+, r23
    7018:	70 e3       	ldi	r23, 0x30	; 48
    701a:	2a 95       	dec	r18
    701c:	e1 f7       	brne	.-8      	; 0x7016 <.L321>

0000701e <.L_rest>:
    701e:	11 24       	eor	r1, r1
    7020:	ef 90       	pop	r14
    7022:	ff 90       	pop	r15
    7024:	0f 91       	pop	r16
    7026:	1f 91       	pop	r17
    7028:	cf 91       	pop	r28
    702a:	df 91       	pop	r29
    702c:	99 27       	eor	r25, r25
    702e:	87 fd       	sbrc	r24, 7
    7030:	90 95       	com	r25
    7032:	08 95       	ret

00007034 <strrev>:
    7034:	dc 01       	movw	r26, r24
    7036:	fc 01       	movw	r30, r24

00007038 <.L11>:
    7038:	67 2f       	mov	r22, r23
    703a:	71 91       	ld	r23, Z+
    703c:	77 23       	and	r23, r23
    703e:	e1 f7       	brne	.-8      	; 0x7038 <.L11>
    7040:	32 97       	sbiw	r30, 0x02	; 2
    7042:	04 c0       	rjmp	.+8      	; 0x704c <.L31>

00007044 <.L21>:
    7044:	7c 91       	ld	r23, X
    7046:	6d 93       	st	X+, r22
    7048:	70 83       	st	Z, r23
    704a:	62 91       	ld	r22, -Z

0000704c <.L31>:
    704c:	ae 17       	cp	r26, r30
    704e:	bf 07       	cpc	r27, r31
    7050:	c8 f3       	brcs	.-14     	; 0x7044 <.L21>
    7052:	08 95       	ret

00007054 <_exit>:
    7054:	f8 94       	cli

00007056 <__stop_program>:
    7056:	ff cf       	rjmp	.-2      	; 0x7056 <__stop_program>

00007058 <L0>:
    7058:	4f 1f       	adc	r20, r31
    705a:	5b 1f       	adc	r21, r27
    705c:	63 1f       	adc	r22, r19
    705e:	6b 1f       	adc	r22, r27
    7060:	73 1f       	adc	r23, r19
    7062:	7b 1f       	adc	r23, r27
    7064:	83 1f       	adc	r24, r19

00007066 <.L91>:
    7066:	d0 2f       	mov	r29, r16
    7068:	ec 2e       	mov	r14, r28
    706a:	f4 2e       	mov	r15, r20
    706c:	f4 2e       	mov	r15, r20
    706e:	94 2f       	mov	r25, r20
    7070:	f4 2e       	mov	r15, r20
    7072:	bd 2f       	mov	r27, r29
    7074:	9d 2f       	mov	r25, r29
    7076:	f4 2e       	mov	r15, r20
    7078:	d8 2f       	mov	r29, r24
    707a:	cc 2f       	mov	r28, r28
    707c:	f4 2e       	mov	r15, r20
    707e:	d2 2f       	mov	r29, r18
    7080:	d6 2f       	mov	r29, r22
    7082:	dc 2f       	mov	r29, r28
    7084:	e2 2f       	mov	r30, r18
    7086:	e6 2f       	mov	r30, r22
    7088:	fb 2f       	mov	r31, r27
